((lp0
(dp1
S'forgender'
p2
S'female'
p3
sS'furnished'
p4
S'True'
p5
sS'rtype'
p6
S'Paying Guest'
p7
sS'rtypeCluster'
p8
(lp9
S'paying guest'
p10
asS'locationCluster'
p11
(lp12
S'thiruvanmiyur'
p13
asS'furnishedCluster'
p14
(lp15
S'furnished'
p16
asS'location'
p17
(lp18
S'rto thiruvanmiyur'
p19
asS'ph'
p20
(lp21
S'9444616062'
p22
asa(dp23
g2
S'men'
p24
sg4
g5
sS'tv'
p25
g5
sg6
g7
sg8
(lp26
g10
asg11
(lp27
S'adyar'
p28
asg14
(lp29
g16
asg17
(lp30
S'adyar'
p31
asS'parking'
p32
g5
sg20
(lp33
S'9840935969'
p34
asa(dp35
S'ac'
p36
S'Both'
p37
sg2
g3
sS'washing'
p38
S'free'
p39
sg4
g5
sg25
g5
sg6
g7
sg8
(lp40
g10
asg11
(lp41
S'indra nagar'
p42
asg14
(lp43
g16
asg17
(lp44
S'indra nagar'
p45
asS'ironing'
p46
g39
sg20
(lp47
S'24411620'
p48
aS'9962672248'
p49
asa(dp50
g36
g37
sS'sharing'
p51
g5
sg4
g5
sg6
g7
sg8
(lp52
g10
asg11
(lp53
S'taramani'
p54
asg2
g3
sg14
(lp55
g16
asg17
(lp56
S'taramani'
p57
asg20
(lp58
S'9962335139'
p59
aS'9940390710'
p60
asa(dp61
g2
g3
sg4
g5
sg6
g7
sg8
(lp62
g10
asg11
(lp63
g13
asg14
(lp64
g16
asg17
(lp65
S'thiruvanmiyur'
p66
asg20
(lp67
S'9941908484'
p68
aS'9790924117'
p69
asa(dp70
g2
g3
sg4
g5
sg6
g7
sg8
(lp71
g10
asg11
(lp72
g42
asg14
(lp73
g16
asg17
(lp74
g45
asg20
(lp75
S'9841435205'
p76
aS'9841435212'
p77
asa(dp78
g51
g5
sg4
g5
sg6
g7
sg8
(lp79
g10
asg11
(lp80
g42
aS'gandhi nagar'
p81
asg2
g3
sg14
(lp82
g16
asg17
(lp83
S'gandhi nagar'
p84
ag45
asg20
(lp85
S'9962002983'
p86
asa(dp87
g2
g3
sg4
g5
sS'food'
p88
S'veg'
p89
sg6
g7
sg8
(lp90
g10
asg11
(lp91
g81
asg14
(lp92
g16
asg17
(lp93
g84
asg20
(lp94
S'24455372'
p95
asa(dp96
S'advance'
p97
S'3000'
p98
sg51
g5
sg2
g3
sg4
g5
sg6
g7
sg8
(lp99
g10
asg11
(lp100
g28
asS'contact'
p101
S'apprnaa'
p102
sg14
(lp103
g16
asS'rent'
p104
S'3000'
p105
sg20
(lp106
S'9600135851'
p107
aS'9444050033'
p108
asg17
(lp109
g31
asa(dp110
g2
g3
sg4
g5
sg6
g7
sg8
(lp111
g10
asg11
(lp112
S'velachery'
p113
asg14
(lp114
g16
asg17
(lp115
S'velachery'
p116
asg20
(lp117
S'9841045388'
p118
aS'9884842377'
p119
asa(dp120
g2
g3
sg4
g5
sg6
g7
sg8
(lp121
g10
asg11
(lp122
g28
asg14
(lp123
g16
asg17
(lp124
g31
asg20
(lp125
S'9962310509'
p126
asa(dp127
g36
g5
sg2
S'male'
p128
sg4
g5
sg25
g5
sg6
g7
sg8
(lp129
g10
asS'fridge'
p130
g5
sg11
(lp131
g13
asg51
g5
sg14
(lp132
g16
asg17
(lp133
g66
asg20
(lp134
S'9176625441'
p135
asa(dp136
g2
S'both'
p137
sg4
g5
sg6
g7
sg8
(lp138
g10
asg11
(lp139
g28
ag42
aS'r.a.puram'
p140
aS'besant nagar'
p141
aS'perungudi'
p142
aS'kottur'
p143
aS'alwarpet'
p144
asg101
S'Sujatha'
p145
sg14
(lp146
g16
asg17
(lp147
g31
ag45
aS'besant nagar'
p148
aS'perungudi'
p149
aS'kotturpuram'
p150
aS'r.a.puram'
p151
aS'alwarpet'
p152
asg20
(lp153
S'9884066744'
p154
aS'9841811103'
p155
asa(dp156
g36
g5
sg2
S'women'
p157
sg4
g5
sg25
g5
sg6
g7
sg8
(lp158
g10
asg88
g89
sg11
(lp159
S'11,25 cross street,indira nagar,chennai 20'
p160
asg14
(lp161
g16
asg17
(lp162
S'11,25 cross street,indira nagar,chennai 20'
p163
asg32
S'False'
p164
sg20
(lp165
S'9380363677'
p166
asa(dp167
g2
g3
sg4
g5
sg11
(lp168
g13
asg14
(lp169
g16
asg17
(lp170
g19
asg20
(lp171
g22
asa(dp172
g2
g24
sg4
g5
sg25
g5
sg11
(lp173
g28
asg14
(lp174
g16
asg17
(lp175
g31
asg32
g5
sg20
(lp176
g34
asa(dp177
g36
g37
sg2
g3
sg38
g39
sg4
g5
sg25
g5
sg11
(lp178
g42
asg14
(lp179
g16
asg17
(lp180
g45
asg46
g39
sg20
(lp181
g48
ag49
asa(dp182
g36
g37
sg2
g3
sg4
g5
sg11
(lp183
g54
asg51
g5
sg14
(lp184
g16
asg17
(lp185
g57
asg20
(lp186
g59
ag60
asa(dp187
g2
g3
sg4
g5
sg11
(lp188
g13
asg14
(lp189
g16
asg17
(lp190
g66
asg20
(lp191
g68
ag69
asa(dp192
g2
g3
sg4
g5
sg11
(lp193
g42
asg14
(lp194
g16
asg17
(lp195
g45
asg20
(lp196
g76
ag77
asa(dp197
g51
g5
sg4
g5
sg11
(lp198
g42
ag81
asg2
g3
sg14
(lp199
g16
asg17
(lp200
g84
ag45
asg20
(lp201
g86
asa(dp202
g2
g3
sg4
g5
sg88
g89
sg11
(lp203
g81
asg14
(lp204
g16
asg17
(lp205
g84
asg20
(lp206
g95
asa(dp207
g97
S'3000'
p208
sg51
g5
sg2
g3
sg4
g5
sg11
(lp209
g28
asg101
g102
sg14
(lp210
g16
asg104
g105
sg20
(lp211
g107
ag108
asg17
(lp212
g31
asa(dp213
g2
g3
sg4
g5
sg11
(lp214
g113
asg14
(lp215
g16
asg17
(lp216
g116
asg20
(lp217
g118
ag119
asa(dp218
g2
g3
sg4
g5
sg11
(lp219
g28
asg14
(lp220
g16
asg17
(lp221
g31
asg20
(lp222
g126
asa(dp223
g36
g5
sg51
g5
sg4
g5
sg25
g5
sg130
g5
sg11
(lp224
g13
asg2
g128
sg14
(lp225
g16
asg17
(lp226
g66
asg20
(lp227
g135
asa(dp228
g2
g137
sg4
g5
sg11
(lp229
g28
ag42
ag140
ag141
ag142
ag143
ag144
asg101
g145
sg14
(lp230
g16
asg17
(lp231
g31
ag45
ag148
ag149
ag150
ag151
ag152
asg20
(lp232
g154
ag155
asa(dp233
g4
S'fully'
p234
sg32
S'covered car park'
p235
sg11
(lp236
g81
asg101
S'Sathya'
p237
sg14
(lp238
g16
asg17
(lp239
S'GANDHI NAGAR'
p240
asS'bedroom'
p241
S'2'
p242
sg20
(lp243
S'9940514870'
p244
asa(dp245
g36
S'1'
p246
sS'floor'
p247
S'ground'
p248
sg241
S'3'
p249
sg11
(lp250
g13
asS'lift'
p251
S'available'
p252
sg104
S'13000'
p253
sg32
S'with'
p254
sg20
(lp255
S'9884178739'
p256
asg17
(lp257
S'THIRUVANMIYUR'
p258
asa(dp259
S'bathroom'
p260
g252
sg247
S'1st'
p261
sg11
(lp262
g13
asg17
(lp263
S'Thiruvanmiyur, Kalakshetra Road, residence 1st floor, 560 sft. flat No.05, New No.64, old No.41'
p264
asg241
g246
sg20
(lp265
S'09967807147'
p266
asS'kitchen'
p267
g252
sa(dp268
g36
S'provided'
p269
sg247
S'first'
p270
sg32
S'2 covered  car park'
p271
sg17
(lp272
S'VALMIKI NAGAR, Balakrishna Road'
p273
asg11
(lp274
S'valmiki nagar, balakrishna road'
p275
asg104
S'30000'
p276
sg241
g249
sg20
(lp277
S'9841098434'
p278
aS'9841041084'
p279
asS'size'
p280
S'2000 sft'
p281
sa(dp282
g247
g270
sg17
(lp283
S'Kottivakkam, AGS colony'
p284
asS'onlyclause'
p285
S'vegetarians'
p286
sg11
(lp287
S'kottivakkam'
p288
asS'onlyclauseCluster'
p289
(lp290
S'vegetarian'
p291
asg104
S'16000'
p292
sg241
g242
sg20
(lp293
g278
ag279
asg280
S'1400 sft'
p294
sa(dp295
g285
S'vegetarian families'
p296
sg11
(lp297
g28
ag13
ag141
asg289
(lp298
g291
asg17
(lp299
S'Adyar, Besant Nagar, Thiruvanmiyur'
p300
asg20
(lp301
S'9884493320'
p302
asg104
S'15000-25000'
p303
sa(dp304
g11
(lp305
g288
asg101
S'A.Natarajan'
p306
sg17
(lp307
S'Kottivakkam'
p308
asg241
g242
sg20
(lp309
S'9840662939'
p310
asg104
S'Rs.10000'
p311
sa(dp312
g247
g261
sg285
S'bachelors, small family'
p313
sg11
(lp314
S'mylapore'
p315
asg289
(lp316
S'family'
p317
aS'bachelors'
p318
asg17
(lp319
S'MYLAPORE'
p320
asg20
(lp321
S'24617890'
p322
asg267
g246
sg104
S'5000'
p323
sa(dp324
g247
S'2nd'
p325
sg285
g313
sg11
(lp326
S'santhome'
p327
asg289
(lp328
g317
ag318
asg17
(lp329
S'Santhome'
p330
asg241
g246
sg20
(lp331
g322
asa(dp332
g247
g261
sg32
S'two wheeler'
p333
sg11
(lp334
g13
asg17
(lp335
S'THIRUVANMIYUR, RTO behind'
p336
asg241
g242
sg20
(lp337
S'9445218112'
p338
asg280
S'750 sft'
p339
sa(dp340
g6
S'bungalow'
p341
sS'servant_quaters'
p342
g246
sg4
g4
sg8
(lp343
S'bungalow'
p344
asg17
(lp345
S'PALAVAKKAM'
p346
asg11
(lp347
S'palavakkam'
p348
asg14
(lp349
g16
asg104
S'45000'
p350
sg241
S'4'
p351
sg20
(lp352
S'9841802600'
p353
aS'9791103934'
p354
asg280
S'3600 sft'
p355
sa(dp356
g6
S'flat'
p357
sg8
(lp358
S'flat'
p359
asg285
S'Brahmin, vegetarian family'
p360
sg11
(lp361
S'medavakkam on main road'
p362
asg101
S'Shree Lakshmi Agency'
p363
sg289
(lp364
g317
ag291
asg104
S'10000'
p365
sg241
g249
sg20
(lp366
S'24913536'
p367
aS'24466809'
p368
asg17
(lp369
S'MEDAVAKKAM on main road'
p370
asa(dp371
g6
S'house'
p372
sg8
(lp373
S'house'
p374
asg285
g360
sg11
(lp375
S'kalakshetra colony'
p376
asg101
g363
sg289
(lp377
g317
ag291
asg104
S'14000'
p378
sg241
g242
sg20
(lp379
g367
ag368
asg17
(lp380
S'Kalakshetra Colony'
p381
asa(dp382
g247
g246
sg241
g242
sg285
S'family'
p383
sg11
(lp384
S'parameswari nagar'
p385
asg101
g363
sg289
(lp386
g317
asg104
S'15000'
p387
sg32
S'car'
p388
sg20
(lp389
g367
ag368
asg17
(lp390
S'PARAMESWARI NAGAR'
p391
asa(dp392
g247
g246
sg6
g357
sg8
(lp393
g359
asg285
g383
sg11
(lp394
g81
asg101
g363
sg289
(lp395
g317
asg104
S'21000'
p396
sg32
g388
sg241
g249
sg20
(lp397
g367
ag368
asg17
(lp398
S'Gandhi Nagar'
p399
asa(dp400
g247
g261
sg241
g249
sg17
(lp401
S'KASTURBA NAGAR'
p402
asg285
S'vegetarians,'
p403
sg11
(lp404
S'kasturba nagar'
p405
asg289
(lp406
g291
asg104
S'18000'
p407
sg32
g388
sg20
(lp408
S'9841074791'
p409
aS'24422468'
p410
asg280
g294
sa(dp411
g247
g270
sg32
S'closed car parking'
p412
sg11
(lp413
g13
asg17
(lp414
S'behind RTO, Thiruvanmiyur'
p415
asg241
g351
sg20
(lp416
S'24514009'
p417
aS'43042736'
p418
aS'9566163077'
p419
asg104
S'20000'
p420
sa(dp421
g11
(lp422
g42
asg20
(lp423
S'25246568'
p424
aS'9444393006'
p425
asg241
g242
sg17
(lp426
S'Indra Nagar'
p427
asg267
g267
sa(dp428
g11
(lp429
g28
ag13
aS'tangarai'
p430
ag141
asg20
(lp431
S'9841113621'
p432
aS'9543626372'
p433
asg289
(lp434
S'vegetarien'
p435
asg17
(lp436
S'Besant Nagar'
p437
aS'Adyar'
p438
aS'Thiruvanmiyur'
p439
aS'Tangarai'
p440
asg285
S'vegetarien'
p441
sa(dp442
g247
g261
sg241
g249
sg17
(lp443
S'PADMANABA NAGAR, Adyar'
p444
asg285
g286
sg11
(lp445
g28
asg289
(lp446
g291
asg104
S'27000'
p447
sg32
g235
sg20
(lp448
S'9840904122'
p449
asg280
S'1600 sft'
p450
sa(dp451
g32
g235
sg11
(lp452
g288
asg17
(lp453
S'KOTTIVAKKAM'
p454
asg241
g249
sg20
(lp455
S'9444838544'
p456
aS'24481455'
p457
asg267
g267
sg104
S'15K'
p458
sa(dp459
g247
g270
sg285
S'Brahmin family'
p460
sg11
(lp461
g13
asg289
(lp462
g317
asg17
(lp463
S'Rajaji Nagar, Thiruvanmiyur'
p464
asg20
(lp465
S'24485510'
p466
aS'24481313'
p467
asg280
S'1000 sft'
p468
sa(dp469
g6
g357
sg8
(lp470
g359
asg11
(lp471
g348
ag288
asg17
(lp472
S'KOTTIVAKKAM, Palavakkam'
p473
asg241
S'2, 3'
p474
sg20
(lp475
S'9940271050'
p476
asg104
S'12000'
p477
sa(dp478
g247
g248
sg285
S'family bachelors'
p479
sg11
(lp480
S'thuraipakkam'
p481
asg289
(lp482
g317
ag318
asg17
(lp483
S'OMR, Thuraipakkam'
p484
asg241
g249
sg20
(lp485
g476
asg104
g365
sa(dp486
g36
S'AC'
p487
sg241
g242
sg17
(lp488
S'INDRA NAGAR'
p489
asg11
(lp490
g42
asg101
S'Senthil'
p491
sg104
S'17000'
p492
sg32
g388
sg20
(lp493
S'9940617788'
p494
asg280
S'950 sft'
p495
sa(dp496
g32
S'cover car park'
p497
sg17
(lp498
g489
asg11
(lp499
g42
asg104
g407
sg241
g242
sg20
(lp500
S'9840166991'
p501
asg280
S'1300 sft'
p502
sa(dp503
g247
g248
sg17
(lp504
S'Thiruvanmiyur near Sankara'
p505
asg11
(lp506
g13
asg104
g420
sg241
g249
sg20
(lp507
g501
asg280
S'1450 sft'
p508
sa(dp509
g11
(lp510
g141
asg20
(lp511
g501
asg17
(lp512
S'Besant Nagar behind bus stand'
p513
asg104
g292
sg241
g249
sa(dp514
g11
(lp515
S'near tidel park'
p516
asg20
(lp517
S'9840852779'
p518
aS'24452779'
p519
asg241
g242
sg17
(lp520
S'near Tidel Park'
p521
asg247
g261
sa(dp522
g6
S'Flat'
p523
sg241
g242
sg8
(lp524
g359
asg11
(lp525
g141
asg17
(lp526
S'BESANT NAGAR'
p527
asg32
g388
sg20
(lp528
S'9894967388'
p529
asg247
g261
sg280
S'970 stf'
p530
sa(dp531
g6
g357
sg32
g388
sg8
(lp532
g359
asg17
(lp533
g527
asg11
(lp534
g141
asg104
g447
sg241
g249
sg20
(lp535
g529
asg280
S'1500 sft'
p536
sa(dp537
g260
S'attached bathroom in all rooms'
p538
sg4
S'semi'
p539
sg17
(lp540
S'Thuraipakkam'
p541
asg11
(lp542
g481
asg101
S'Ravi'
p543
sg14
(lp544
S'semi'
p545
asg104
S'covered'
p546
sg241
g249
sg20
(lp547
S'9940139808'
p548
asS'hall'
p549
g549
sg267
g267
sa(dp550
g97
S'60000'
p551
sg247
g325
sg32
g388
sg17
(lp552
S'THURAIPAKKAM'
p553
asg11
(lp554
g481
asg251
g251
sg104
g253
sg241
g242
sg20
(lp555
g529
asg280
g468
sa(dp556
g11
(lp557
g13
asg17
(lp558
g439
asg241
g246
sg20
(lp559
g529
asg280
S'600 sft'
p560
sg104
S'8000'
p561
sa(dp562
g247
S'second'
p563
sg241
g249
sg285
g286
sg11
(lp564
g405
asg289
(lp565
g291
asg17
(lp566
S'KASTURBA NAGAR near railway station'
p567
asg32
g388
sg20
(lp568
S'9841161196'
p569
asg267
g267
sg549
g549
sg280
S'1200 sft'
p570
sa(dp571
g4
g539
sg11
(lp572
g28
ag81
asg101
g145
sg14
(lp573
g545
asg17
(lp574
S'ADYAR, Gandhi Nagar'
p575
asg241
g249
sg20
(lp576
g155
asg104
S'25000'
p577
sa(dp578
g6
g357
sg8
(lp579
g359
asg285
S'bachelors, family'
p580
sg11
(lp581
g405
asg101
g145
sg289
(lp582
g317
ag318
asg104
g407
sg241
g249
sg20
(lp583
g154
asg17
(lp584
S'Kasturba Nagar'
p585
asa(dp586
S'cots'
p587
g587
sg4
g4
sg25
S'TV'
p588
sg8
(lp589
g359
asg6
g357
sS'gas'
p590
g590
sg130
g130
sg11
(lp591
g13
asg101
g145
sg14
(lp592
g16
asg104
g407
sg241
g249
sg20
(lp593
g154
ag155
asg32
g388
sg17
(lp594
g258
asa(dp595
S'garden'
p596
g596
sS'generator'
p597
S'genset'
p598
sg6
g341
sg4
S'furnished, semi furnished'
p599
sg8
(lp600
g344
asg285
S'guesthouse, MNCs'
p601
sg11
(lp602
g348
asg289
(lp603
S'guesthouse, mncs'
p604
asg17
(lp605
S'ECR ROAD, Palavakkam'
p606
asg241
g249
sg14
(lp607
g545
ag16
asg20
(lp608
S'9840844111'
p609
asg32
g388
sg280
S'3000 sft'
p610
sa(dp611
g6
g357
sg8
(lp612
g359
asg17
(lp613
g240
asg11
(lp614
g81
asg101
S'S.P.S. Maathavan'
p615
sg104
S'20,000'
p616
sg241
g242
sg20
(lp617
S'9444401575'
p618
aS'42117333'
p619
asg280
S'1000'
p620
sa(dp621
g11
(lp622
g42
asg101
g615
sg17
(lp623
g427
asg241
g249
sg104
S'23,000'
p624
sg20
(lp625
g618
ag619
asg280
g294
sa(dp626
g6
S'semi independent house'
p627
sg8
(lp628
g374
asg17
(lp629
S'NEELANKARAI'
p630
asg11
(lp631
S'neelankarai'
p632
asg101
g615
sg104
S'22,000'
p633
sg241
g249
sg20
(lp634
g618
ag619
asg280
S'1800 sft'
p635
sa(dp636
g6
g357
sg241
g249
sg8
(lp637
g359
asg17
(lp638
S'Valmiki  Nagar'
p639
asg11
(lp640
S'valmiki  nagar'
p641
asg101
g615
sg104
S'25,000'
p642
sg32
g546
sg20
(lp643
g618
ag619
asg280
S'1700 sft'
p644
sa(dp645
g6
g357
sg8
(lp646
g359
asg17
(lp647
g527
asg11
(lp648
g141
asg101
g615
sg104
S'55,000'
p649
sg241
g249
sg20
(lp650
g618
ag619
asg280
S'2400'
p651
sa(dp652
g597
g597
sg6
g341
sg8
(lp653
g344
asg17
(lp654
g381
asg11
(lp655
g376
asg101
g615
sg104
S'50,000'
p656
sg241
g249
sg20
(lp657
g618
ag619
asg280
S'4000 sft'
p658
sa(dp659
g260
S'attached'
p660
sg4
g539
sg32
g388
sg285
S'MNC executives, bachelors'
p661
sg11
(lp662
S'no.2, 1st cross street, sivagamipuram, opposite k.g. oakside, chennai-41'
p663
asg289
(lp664
g318
asg17
(lp665
S'No.2, 1st Cross street, Sivagamipuram, Opposite K.G. Oakside, Chennai-41'
p666
asg241
g246
sg14
(lp667
g545
asg20
(lp668
S'9884223450'
p669
aS'9952942933'
p670
asa(dp671
g36
S'split A/C'
p672
sg6
S'flat '
p673
sg241
g242
sg8
(lp674
g359
asg285
g383
sg11
(lp675
g42
asg101
S'Chennai Homes'
p676
sg289
(lp677
g317
asg17
(lp678
g489
asg32
g546
sg104
g378
sg20
(lp679
S'9841671039'
p680
aS'9840275147'
p681
asg280
S'1100 sft'
p682
sa(dp683
g247
S'First'
p684
sg6
g357
sg8
(lp685
g359
asg285
S'small vegetarian family preferred'
p686
sg11
(lp687
S'parameshwari nagar, 1st street'
p688
asg289
(lp689
g317
ag291
asg17
(lp690
S'Parameshwari Nagar, 1st street'
p691
asg20
(lp692
S'9841059793'
p693
asg280
S'850 sft'
p694
sa(dp695
g11
(lp696
S'victoria towers on omr sirucheri near sipcot'
p697
asg20
(lp698
S'9176023789'
p699
aS'43042544'
p700
asg241
g249
sg17
(lp701
S'Victoria Towers on OMR Sirucheri near SIPCOT'
p702
asg280
S'2900 sft'
p703
sa(dp704
g36
S'A/C'
p705
sg597
S'power backup'
p706
sg4
g4
sg25
S'television'
p707
sg130
g130
sg11
(lp708
g13
asg14
(lp709
g16
asg17
(lp710
S'ECR near Thiruvanmiyur bus terminus'
p711
asg241
g242
sg20
(lp712
S'43042554'
p713
aS'9840152203'
p714
asg280
S'1340 sft'
p715
sg267
g267
sa(dp716
g241
g242
sg285
S'vegetarian'
p717
sg11
(lp718
S'lb road'
p719
asg289
(lp720
g291
asg17
(lp721
S'LB Road'
p722
asg32
S'1 car'
p723
sg20
(lp724
S'42115304'
p725
asg267
g267
sg549
g549
sg280
g468
sa(dp726
S'kidspark'
p727
g246
sg11
(lp728
S'near infosys'
p729
asg17
(lp730
S'near Infosys'
p731
asg32
S'2 covered car'
p732
sg241
g249
sg20
(lp733
S'9840055091'
p734
asg549
g549
sS'pool'
p735
g246
sg267
g267
sa(dp736
g97
S'220000'
p737
sg247
g270
sg32
g546
sg11
(lp738
g28
ag42
asg104
S'22000'
p739
sg241
g242
sg20
(lp740
S'9444470071'
p741
aS'24405399'
p742
asg17
(lp743
S'ADYAR, Indra Nagar 1 Avenue'
p744
asa(dp745
g6
g357
sg32
g546
sg8
(lp746
g359
asg17
(lp747
S'Palavakkam, Kandasamy Nagar'
p748
asg11
(lp749
g348
asg104
g561
sg241
g242
sg20
(lp750
S'9444913353'
p751
asg247
g270
sg280
g339
sa(dp752
g11
(lp753
g28
ag141
asg101
S'S.Anandan'
p754
sg17
(lp755
S'ADYAR, Besant Nagar'
p756
asg241
g242
sg20
(lp757
S'9884178443'
p758
asg104
g420
sa(dp759
g11
(lp760
g28
ag141
asg101
g754
sg17
(lp761
g756
asg241
g249
sg20
(lp762
g758
asg104
g276
sa(dp763
g11
(lp764
g28
ag141
asg101
g754
sg17
(lp765
g756
asg241
g351
sg20
(lp766
g758
asg104
g350
sa(dp767
g6
g341
sg8
(lp768
g344
asg11
(lp769
g288
ag632
asg101
g754
sg17
(lp770
S'Neelankarai, Kottivakkam'
p771
asg241
S'4,6'
p772
sg20
(lp773
g758
asa(dp774
g6
g372
sg8
(lp775
g374
asg11
(lp776
g13
asg17
(lp777
S'JOURANLIST COLONY, Thiruvanmiyur'
p778
asg241
g242
sg20
(lp779
S'9444800299'
p780
asg549
g549
sg267
g267
sa(dp781
g247
g248
sg11
(lp782
g140
asg17
(lp783
S'R.A.PURAM near Sri Hari Vidyalaya School'
p784
asg241
g246
sg20
(lp785
S'24416282'
p786
aS'24416805'
p787
asg104
S'8500'
p788
sa(dp789
g247
g248
sg11
(lp790
g13
asg17
(lp791
S'Thiruvanmiyur near railway station'
p792
asg241
g246
sg20
(lp793
g786
ag787
asg104
S'9000'
p794
sa(dp795
g11
(lp796
g42
asg20
(lp797
g786
ag787
asg17
(lp798
S'INDRA NAGAR near Hindu school'
p799
asg104
g477
sg241
g242
sa(dp800
g247
g248
sg11
(lp801
S'sastri nagar'
p802
asg17
(lp803
S'Sastri Nagar'
p804
asg241
g242
sg20
(lp805
g786
ag787
asg104
g477
sa(dp806
g36
S'3 A/C'
p807
sg6
g357
sg727
S'play area'
p808
sg8
(lp809
g359
asg17
(lp810
S'L.B. Road'
p811
asg11
(lp812
S'l.b. road'
p813
asg251
g251
sg104
S'35000'
p814
sg241
g249
sg20
(lp815
g786
ag787
asg247
S'3rd'
p816
sg280
g450
sa(dp817
g247
g248
sg11
(lp818
S'thiruvalluvar nagar, near rto office'
p819
asg17
(lp820
S'THIRUVALLUVAR NAGAR, near RTO office'
p821
asg241
g242
sg20
(lp822
g786
ag787
asg104
g365
sa(dp823
g247
g270
sg11
(lp824
g819
asg17
(lp825
g821
asg241
g242
sg20
(lp826
g786
ag787
asg104
g477
sa(dp827
g247
g248
sg11
(lp828
S'valmik nagar'
p829
asg17
(lp830
S'VALMIK NAGAR'
p831
asg241
g242
sg20
(lp832
g787
ag786
asg104
S'13500'
p833
sa(dp834
g247
g248
sg32
g32
sg17
(lp835
S'VELACHERY, near terminus'
p836
asg11
(lp837
g113
asg104
S'12,000'
p838
sg241
g242
sg20
(lp839
g786
aS'2446805'
p840
asg280
g502
sa(dp841
g6
g357
sg32
g32
sg8
(lp842
g359
asg11
(lp843
g516
asg251
g251
sg104
S'15,000'
p844
sg241
g242
sg20
(lp845
g786
ag787
asg247
g325
sg17
(lp846
S'OMR, near Tidel Park'
p847
asa(dp848
g247
g248
sg6
g372
sg8
(lp849
g374
asg285
S'bachelors'
p850
sg11
(lp851
g143
asg289
(lp852
g318
asg17
(lp853
S'KOTTUR'
p854
asg241
g242
sg20
(lp855
S'9840153940'
p856
aS'9841373531'
p857
aS'9841351821'
p858
asa(dp859
g36
(dp860
g246
(lp861
I28
asg37
(lp862
I2
aI3
aI16
aI17
asg487
(lp863
I51
asg705
(lp864
I76
asg807
(lp865
I90
asg269
(lp866
I30
asg5
(lp867
I11
aI13
aI25
asg672
(lp868
I73
assg4
(dp869
g234
(lp870
I27
asg599
(lp871
I65
asg5
(lp872
I0
aI1
aI2
aI3
aI4
aI5
aI6
aI7
aI8
aI9
aI10
aI11
aI12
aI13
aI14
aI15
aI16
aI17
aI18
aI19
aI20
aI21
aI22
aI23
aI24
aI25
aI26
asg539
(lp873
I58
aI62
aI72
asg4
(lp874
I37
aI64
aI76
assg735
(dp875
g246
(lp876
I78
assg241
(dp877
g246
(lp878
I29
aI35
aI60
aI72
aI86
aI87
asg249
(lp879
I28
aI30
aI38
aI41
aI42
aI46
aI47
aI50
aI53
aI54
aI57
aI58
aI61
aI62
aI63
aI64
aI65
aI67
aI68
aI69
aI70
aI71
aI75
aI78
aI82
aI90
asg242
(lp880
I27
aI31
aI33
aI36
aI39
aI40
aI44
aI51
aI52
aI55
aI56
aI59
aI66
aI73
aI76
aI77
aI79
aI80
aI81
aI85
aI88
aI89
aI91
aI92
aI93
aI94
aI95
aI96
asg351
(lp881
I37
aI43
aI83
asg474
(lp882
I49
asg772
(lp883
I84
assg285
(dp884
g313
(lp885
I34
aI35
asg601
(lp886
I65
asg460
(lp887
I48
asg383
(lp888
I40
aI41
aI73
asg717
(lp889
I77
asg479
(lp890
I50
asg686
(lp891
I74
asg580
(lp892
I63
asg360
(lp893
I38
aI39
asg661
(lp894
I72
asg850
(lp895
I96
asg286
(lp896
I31
aI46
aI61
asg403
(lp897
I42
asg441
(lp898
I45
asg296
(lp899
I32
assg727
(dp900
g246
(lp901
I78
asg808
(lp902
I90
assg51
(dp903
g5
(lp904
I3
aI6
aI8
aI11
aI17
aI20
aI22
aI25
assg104
(dp905
g788
(lp906
I86
asg323
(lp907
I34
asg365
(lp908
I38
aI50
aI91
asg276
(lp909
I30
aI82
asg378
(lp910
I39
aI73
asg387
(lp911
I40
asg844
(lp912
I95
asg649
(lp913
I70
asg642
(lp914
I69
asg838
(lp915
I94
asg447
(lp916
I46
aI57
asg633
(lp917
I68
asg420
(lp918
I43
aI53
aI81
asg833
(lp919
I93
asg492
(lp920
I51
asg561
(lp921
I60
aI80
asg458
(lp922
I47
asg794
(lp923
I87
asg616
(lp924
I66
asg350
(lp925
I37
aI83
asg624
(lp926
I67
asg407
(lp927
I42
aI52
aI63
aI64
asg577
(lp928
I62
asg656
(lp929
I71
asg477
(lp930
I49
aI88
aI89
aI92
asg303
(lp931
I32
asg396
(lp932
I41
asg292
(lp933
I31
aI54
asg253
(lp934
I28
aI59
asg739
(lp935
I79
asg814
(lp936
I90
asg546
(lp937
I58
asg311
(lp938
I33
asg105
(lp939
I8
aI22
assg32
(dp940
g164
(lp941
I13
asg388
(lp942
I40
aI41
aI42
aI51
aI56
aI57
aI59
aI61
aI64
aI65
aI72
asg32
(lp943
I94
aI95
asg271
(lp944
I30
asg333
(lp945
I36
asg5
(lp946
I1
aI15
asg235
(lp947
I27
aI46
aI47
asg497
(lp948
I52
asg412
(lp949
I43
asg546
(lp950
I69
aI73
aI79
aI80
asg723
(lp951
I77
asg254
(lp952
I28
asg732
(lp953
I78
assg46
(dp954
g39
(lp955
I2
aI16
assg280
(dp956
g682
(lp957
I73
asg281
(lp958
I30
asg658
(lp959
I71
asg468
(lp960
I48
aI59
aI77
asg508
(lp961
I53
asg610
(lp962
I65
asg644
(lp963
I69
asg536
(lp964
I57
asg355
(lp965
I37
asg570
(lp966
I61
asg703
(lp967
I75
asg450
(lp968
I46
aI90
asg502
(lp969
I52
aI94
asg294
(lp970
I31
aI42
aI67
asg495
(lp971
I51
asg635
(lp972
I68
asg560
(lp973
I60
asg715
(lp974
I76
asg339
(lp975
I36
aI80
asg530
(lp976
I56
asg694
(lp977
I74
asg651
(lp978
I70
asg620
(lp979
I66
assg260
(dp980
g252
(lp981
I29
asg660
(lp982
I72
asg538
(lp983
I58
assg597
(dp984
g598
(lp985
I65
asg597
(lp986
I71
asg706
(lp987
I76
assg247
(dp988
g246
(lp989
I40
aI41
asg563
(lp990
I61
asg816
(lp991
I90
asg261
(lp992
I29
aI34
aI36
aI42
aI46
aI55
aI56
asg248
(lp993
I28
aI50
aI53
aI86
aI87
aI89
aI91
aI93
aI94
aI96
asg270
(lp994
I30
aI31
aI43
aI48
aI79
aI80
aI92
asg684
(lp995
I74
asg325
(lp996
I35
aI59
aI95
assg25
(dp997
g588
(lp998
I64
asg707
(lp999
I76
asg5
(lp1000
I1
aI2
aI11
aI13
aI15
aI16
aI25
assg342
(dp1001
g246
(lp1002
I37
assg289
(dp1003
g291
(lp1004
I31
aI32
aI38
aI39
aI42
aI46
aI61
aI74
aI77
asg604
(lp1005
I65
asg318
(lp1006
I34
aI35
aI50
aI63
aI72
aI96
asg435
(lp1007
I45
asg317
(lp1008
I34
aI35
aI38
aI39
aI40
aI41
aI48
aI50
aI63
aI73
aI74
assg17
(dp1009
g567
(lp1010
I61
asg799
(lp1011
I88
asg521
(lp1012
I55
asg831
(lp1013
I93
asg308
(lp1014
I33
asg541
(lp1015
I58
asg370
(lp1016
I38
asg399
(lp1017
I41
asg744
(lp1018
I79
asg513
(lp1019
I54
asg57
(lp1020
I3
aI17
asg31
(lp1021
I1
aI8
aI10
aI12
aI15
aI22
aI24
aI26
asg639
(lp1022
I69
asg454
(lp1023
I47
asg439
(lp1024
I45
aI60
asg273
(lp1025
I30
asg505
(lp1026
I53
asg440
(lp1027
I45
asg402
(lp1028
I42
asg330
(lp1029
I35
asg45
(lp1030
I2
aI5
aI6
aI12
aI16
aI19
aI20
aI26
asg151
(lp1031
I12
aI26
asg666
(lp1032
I72
asg240
(lp1033
I27
aI66
asg722
(lp1034
I77
asg391
(lp1035
I40
asg19
(lp1036
I0
aI14
asg264
(lp1037
I29
asg811
(lp1038
I90
asg575
(lp1039
I62
asg630
(lp1040
I68
asg444
(lp1041
I46
asg691
(lp1042
I74
asg415
(lp1043
I43
asg756
(lp1044
I81
aI82
aI83
asg66
(lp1045
I4
aI11
aI18
aI25
asg300
(lp1046
I32
asg771
(lp1047
I84
asg527
(lp1048
I56
aI57
aI70
asg854
(lp1049
I96
asg847
(lp1050
I95
asg585
(lp1051
I63
asg84
(lp1052
I6
aI7
aI20
aI21
asg473
(lp1053
I49
asg148
(lp1054
I12
aI26
asg778
(lp1055
I85
asg150
(lp1056
I12
aI26
asg792
(lp1057
I87
asg284
(lp1058
I31
asg804
(lp1059
I89
asg711
(lp1060
I76
asg258
(lp1061
I28
aI64
asg336
(lp1062
I36
asg437
(lp1063
I45
asg149
(lp1064
I12
aI26
asg163
(lp1065
I13
asg464
(lp1066
I48
asg484
(lp1067
I50
asg489
(lp1068
I51
aI52
aI73
asg836
(lp1069
I94
asg553
(lp1070
I59
asg606
(lp1071
I65
asg731
(lp1072
I78
asg381
(lp1073
I39
aI71
asg427
(lp1074
I44
aI67
asg821
(lp1075
I91
aI92
asg702
(lp1076
I75
asg346
(lp1077
I37
asg320
(lp1078
I34
asg438
(lp1079
I45
asg748
(lp1080
I80
asg152
(lp1081
I12
aI26
asg784
(lp1082
I86
asg116
(lp1083
I9
aI23
assg20
(dp1084
g126
(lp1085
I10
aI24
asg780
(lp1086
I85
asg338
(lp1087
I36
asg34
(lp1088
I1
aI15
asg322
(lp1089
I34
aI35
asg279
(lp1090
I30
aI31
asg48
(lp1091
I2
aI16
asg119
(lp1092
I9
aI23
asg76
(lp1093
I5
aI19
asg714
(lp1094
I76
asg154
(lp1095
I12
aI26
aI63
aI64
asg449
(lp1096
I46
asg424
(lp1097
I44
asg108
(lp1098
I8
aI22
asg858
(lp1099
I96
asg476
(lp1100
I49
aI50
asg857
(lp1101
I96
asg95
(lp1102
I7
aI21
asg418
(lp1103
I43
asg432
(lp1104
I45
asg670
(lp1105
I72
asg569
(lp1106
I61
asg49
(lp1107
I2
aI16
asg425
(lp1108
I44
asg410
(lp1109
I42
asg256
(lp1110
I28
asg751
(lp1111
I80
asg619
(lp1112
I66
aI67
aI68
aI69
aI70
aI71
asg681
(lp1113
I73
asg856
(lp1114
I96
asg302
(lp1115
I32
asg669
(lp1116
I72
asg457
(lp1117
I47
asg155
(lp1118
I12
aI26
aI62
aI64
asg417
(lp1119
I43
asg787
(lp1120
I86
aI87
aI88
aI89
aI90
aI91
aI92
aI93
aI95
asg840
(lp1121
I94
asg456
(lp1122
I47
asg86
(lp1123
I6
aI20
asg467
(lp1124
I48
asg266
(lp1125
I29
asg118
(lp1126
I9
aI23
asg725
(lp1127
I77
asg368
(lp1128
I38
aI39
aI40
aI41
asg494
(lp1129
I51
asg786
(lp1130
I86
aI87
aI88
aI89
aI90
aI91
aI92
aI93
aI94
aI95
asg618
(lp1131
I66
aI67
aI68
aI69
aI70
aI71
asg529
(lp1132
I56
aI57
aI59
aI60
asg680
(lp1133
I73
asg77
(lp1134
I5
aI19
asg310
(lp1135
I33
asg518
(lp1136
I55
asg107
(lp1137
I8
aI22
asg699
(lp1138
I75
asg713
(lp1139
I76
asg22
(lp1140
I0
aI14
asg68
(lp1141
I4
aI18
asg244
(lp1142
I27
asg758
(lp1143
I81
aI82
aI83
aI84
asg466
(lp1144
I48
asg166
(lp1145
I13
asg433
(lp1146
I45
asg278
(lp1147
I30
aI31
asg135
(lp1148
I11
aI25
asg609
(lp1149
I65
asg354
(lp1150
I37
asg519
(lp1151
I55
asg60
(lp1152
I3
aI17
asg741
(lp1153
I79
asg548
(lp1154
I58
asg353
(lp1155
I37
asg69
(lp1156
I4
aI18
asg409
(lp1157
I42
asg367
(lp1158
I38
aI39
aI40
aI41
asg734
(lp1159
I78
asg700
(lp1160
I75
asg419
(lp1161
I43
asg501
(lp1162
I52
aI53
aI54
asg59
(lp1163
I3
aI17
asg693
(lp1164
I74
asg742
(lp1165
I79
assg2
(dp1166
g137
(lp1167
I12
aI26
asg24
(lp1168
I1
aI15
asg128
(lp1169
I11
aI25
asg3
(lp1170
I0
aI2
aI3
aI4
aI5
aI6
aI7
aI8
aI9
aI10
aI14
aI16
aI17
aI18
aI19
aI20
aI21
aI22
aI23
aI24
asg157
(lp1171
I13
assg587
(dp1172
g587
(lp1173
I64
assg88
(dp1174
g89
(lp1175
I7
aI13
aI21
assg590
(dp1176
g590
(lp1177
I64
assg130
(dp1178
g5
(lp1179
I11
aI25
asg130
(lp1180
I64
aI76
assg251
(dp1181
g252
(lp1182
I28
asg251
(lp1183
I59
aI90
aI95
assg549
(dp1184
g549
(lp1185
I58
aI61
aI77
aI78
aI85
assg596
(dp1186
g596
(lp1187
I65
assg267
(dp1188
g252
(lp1189
I29
asg246
(lp1190
I34
asg267
(lp1191
I44
aI47
aI58
aI61
aI76
aI77
aI78
aI85
assg97
(dp1192
g737
(lp1193
I79
asg551
(lp1194
I59
asg98
(lp1195
I8
aI22
assg38
(dp1196
g39
(lp1197
I2
aI16
assg6
(dp1198
g523
(lp1199
I56
asg627
(lp1200
I68
asg341
(lp1201
I37
aI65
aI71
aI84
asg357
(lp1202
I38
aI41
aI49
aI57
aI63
aI64
aI66
aI69
aI70
aI74
aI80
aI90
aI95
asg372
(lp1203
I39
aI85
aI96
asg7
(lp1204
I0
aI1
aI2
aI3
aI4
aI5
aI6
aI7
aI8
aI9
aI10
aI11
aI12
aI13
asg673
(lp1205
I73
assg8
(dp1206
g359
(lp1207
I38
aI41
aI49
aI56
aI57
aI63
aI64
aI66
aI69
aI70
aI73
aI74
aI80
aI90
aI95
asg10
(lp1208
I0
aI1
aI2
aI3
aI4
aI5
aI6
aI7
aI8
aI9
aI10
aI11
aI12
aI13
asg344
(lp1209
I37
aI65
aI71
aI84
asg374
(lp1210
I39
aI68
aI85
aI96
assg11
(dp1211
g430
(lp1212
I45
asg405
(lp1213
I42
aI61
aI63
asg327
(lp1214
I35
asg697
(lp1215
I75
asg362
(lp1216
I38
asg81
(lp1217
I6
aI7
aI20
aI21
aI27
aI41
aI62
aI66
asg729
(lp1218
I78
asg288
(lp1219
I31
aI33
aI47
aI49
aI84
asg348
(lp1220
I37
aI49
aI65
aI80
asg819
(lp1221
I91
aI92
asg632
(lp1222
I68
aI84
asg54
(lp1223
I3
aI17
asg28
(lp1224
I1
aI8
aI10
aI12
aI15
aI22
aI24
aI26
aI32
aI45
aI46
aI62
aI79
aI81
aI82
aI83
asg802
(lp1225
I89
asg376
(lp1226
I39
aI71
asg641
(lp1227
I69
asg275
(lp1228
I30
asg829
(lp1229
I93
asg141
(lp1230
I12
aI26
aI32
aI45
aI54
aI56
aI57
aI70
aI81
aI82
aI83
asg142
(lp1231
I12
aI26
asg516
(lp1232
I55
aI95
asg160
(lp1233
I13
asg813
(lp1234
I90
asg42
(lp1235
I2
aI5
aI6
aI12
aI16
aI19
aI20
aI26
aI44
aI51
aI52
aI67
aI73
aI79
aI88
asg140
(lp1236
I12
aI26
aI86
asg481
(lp1237
I50
aI58
aI59
asg663
(lp1238
I72
asg385
(lp1239
I40
asg143
(lp1240
I12
aI26
aI96
asg688
(lp1241
I74
asg315
(lp1242
I34
asg144
(lp1243
I12
aI26
asg719
(lp1244
I77
asg13
(lp1245
I0
aI4
aI11
aI14
aI18
aI25
aI28
aI29
aI32
aI36
aI43
aI45
aI48
aI53
aI60
aI64
aI76
aI85
aI87
asg113
(lp1246
I9
aI23
aI94
assg101
(dp1247
g237
(lp1248
I27
asg615
(lp1249
I66
aI67
aI68
aI69
aI70
aI71
asg145
(lp1250
I12
aI26
aI62
aI63
aI64
asg306
(lp1251
I33
asg363
(lp1252
I38
aI39
aI40
aI41
asg543
(lp1253
I58
asg491
(lp1254
I51
asg102
(lp1255
I8
aI22
asg676
(lp1256
I73
asg754
(lp1257
I81
aI82
aI83
aI84
assg14
(dp1258
g545
(lp1259
I58
aI62
aI65
aI72
asg16
(lp1260
I0
aI1
aI2
aI3
aI4
aI5
aI6
aI7
aI8
aI9
aI10
aI11
aI12
aI13
aI14
aI15
aI16
aI17
aI18
aI19
aI20
aI21
aI22
aI23
aI24
aI25
aI26
aI27
aI37
aI64
aI65
aI76
ass(dp1261
g36
(lp1262
(g246
I1
tp1263
a(g37
I4
tp1264
a(g487
I1
tp1265
a(g705
I1
tp1266
a(g807
I1
tp1267
a(g269
I1
tp1268
a(g5
I3
tp1269
a(g672
I1
tp1270
asg4
(lp1271
(g234
I1
tp1272
a(g599
I1
tp1273
a(g5
I27
tp1274
a(g539
I3
tp1275
a(g4
I3
tp1276
asg727
(lp1277
(g246
I1
tp1278
a(g808
I1
tp1279
asg285
(lp1280
(g313
I2
tp1281
a(g601
I1
tp1282
a(g460
I1
tp1283
a(g383
I3
tp1284
a(g717
I1
tp1285
a(g479
I1
tp1286
a(g686
I1
tp1287
a(g580
I1
tp1288
a(g360
I2
tp1289
a(g661
I1
tp1290
a(g850
I1
tp1291
a(g286
I3
tp1292
a(g403
I1
tp1293
a(g441
I1
tp1294
a(g296
I1
tp1295
asg2
(lp1296
(g137
I2
tp1297
a(g24
I2
tp1298
a(g128
I2
tp1299
a(g3
I20
tp1300
a(g157
I1
tp1301
asg104
(lp1302
(g788
I1
tp1303
a(g323
I1
tp1304
a(g365
I3
tp1305
a(g276
I2
tp1306
a(g378
I2
tp1307
a(g387
I1
tp1308
a(g844
I1
tp1309
a(g649
I1
tp1310
a(g642
I1
tp1311
a(g838
I1
tp1312
a(g447
I2
tp1313
a(g633
I1
tp1314
a(g420
I3
tp1315
a(g833
I1
tp1316
a(g492
I1
tp1317
a(g561
I2
tp1318
a(g458
I1
tp1319
a(g794
I1
tp1320
a(g616
I1
tp1321
a(g350
I2
tp1322
a(g624
I1
tp1323
a(g407
I4
tp1324
a(g577
I1
tp1325
a(g656
I1
tp1326
a(g477
I4
tp1327
a(g303
I1
tp1328
a(g396
I1
tp1329
a(g292
I2
tp1330
a(g253
I2
tp1331
a(g739
I1
tp1332
a(g814
I1
tp1333
a(g546
I1
tp1334
a(g311
I1
tp1335
a(g105
I2
tp1336
asg241
(lp1337
(g246
I6
tp1338
a(g249
I26
tp1339
a(g242
I28
tp1340
a(g351
I3
tp1341
a(g474
I1
tp1342
a(g772
I1
tp1343
asg46
(lp1344
(g39
I2
tp1345
asg32
(lp1346
(g164
I1
tp1347
a(g388
I11
tp1348
a(g32
I2
tp1349
a(g271
I1
tp1350
a(g333
I1
tp1351
a(g5
I2
tp1352
a(g235
I3
tp1353
a(g497
I1
tp1354
a(g412
I1
tp1355
a(g546
I4
tp1356
a(g723
I1
tp1357
a(g254
I1
tp1358
a(g732
I1
tp1359
asg280
(lp1360
(g682
I1
tp1361
a(g281
I1
tp1362
a(g658
I1
tp1363
a(g468
I3
tp1364
a(g508
I1
tp1365
a(g610
I1
tp1366
a(g644
I1
tp1367
a(g536
I1
tp1368
a(g355
I1
tp1369
a(g570
I1
tp1370
a(g703
I1
tp1371
a(g450
I2
tp1372
a(g502
I2
tp1373
a(g294
I3
tp1374
a(g495
I1
tp1375
a(g635
I1
tp1376
a(g560
I1
tp1377
a(g715
I1
tp1378
a(g339
I2
tp1379
a(g530
I1
tp1380
a(g694
I1
tp1381
a(g651
I1
tp1382
a(g620
I1
tp1383
asg260
(lp1384
(g252
I1
tp1385
a(g660
I1
tp1386
a(g538
I1
tp1387
asg597
(lp1388
(g598
I1
tp1389
a(g597
I1
tp1390
a(g706
I1
tp1391
asg247
(lp1392
(g246
I2
tp1393
a(g563
I1
tp1394
a(g816
I1
tp1395
a(g261
I7
tp1396
a(g248
I10
tp1397
a(g270
I7
tp1398
a(g684
I1
tp1399
a(g325
I3
tp1400
asg25
(lp1401
(g588
I1
tp1402
a(g707
I1
tp1403
a(g5
I7
tp1404
asg342
(lp1405
(g246
I1
tp1406
asg289
(lp1407
(g291
I9
tp1408
a(g604
I1
tp1409
a(g318
I6
tp1410
a(g435
I1
tp1411
a(g317
I11
tp1412
asg17
(lp1413
(g567
I1
tp1414
a(g799
I1
tp1415
a(g521
I1
tp1416
a(g831
I1
tp1417
a(g308
I1
tp1418
a(g541
I1
tp1419
a(g370
I1
tp1420
a(g399
I1
tp1421
a(g744
I1
tp1422
a(g513
I1
tp1423
a(g57
I2
tp1424
a(g31
I8
tp1425
a(g639
I1
tp1426
a(g454
I1
tp1427
a(g439
I2
tp1428
a(g273
I1
tp1429
a(g505
I1
tp1430
a(g440
I1
tp1431
a(g402
I1
tp1432
a(g330
I1
tp1433
a(g45
I8
tp1434
a(g151
I2
tp1435
a(g666
I1
tp1436
a(g240
I2
tp1437
a(g722
I1
tp1438
a(g391
I1
tp1439
a(g19
I2
tp1440
a(g264
I1
tp1441
a(g811
I1
tp1442
a(g575
I1
tp1443
a(g630
I1
tp1444
a(g444
I1
tp1445
a(g691
I1
tp1446
a(g415
I1
tp1447
a(g756
I3
tp1448
a(g66
I4
tp1449
a(g300
I1
tp1450
a(g771
I1
tp1451
a(g527
I3
tp1452
a(g854
I1
tp1453
a(g847
I1
tp1454
a(g585
I1
tp1455
a(g84
I4
tp1456
a(g473
I1
tp1457
a(g148
I2
tp1458
a(g778
I1
tp1459
a(g150
I2
tp1460
a(g792
I1
tp1461
a(g284
I1
tp1462
a(g804
I1
tp1463
a(g711
I1
tp1464
a(g258
I2
tp1465
a(g336
I1
tp1466
a(g437
I1
tp1467
a(g149
I2
tp1468
a(g163
I1
tp1469
a(g464
I1
tp1470
a(g484
I1
tp1471
a(g489
I3
tp1472
a(g836
I1
tp1473
a(g553
I1
tp1474
a(g606
I1
tp1475
a(g731
I1
tp1476
a(g381
I2
tp1477
a(g427
I2
tp1478
a(g821
I2
tp1479
a(g702
I1
tp1480
a(g346
I1
tp1481
a(g320
I1
tp1482
a(g438
I1
tp1483
a(g748
I1
tp1484
a(g152
I2
tp1485
a(g784
I1
tp1486
a(g116
I2
tp1487
asg20
(lp1488
(g126
I2
tp1489
a(g780
I1
tp1490
a(g338
I1
tp1491
a(g34
I2
tp1492
a(g322
I2
tp1493
a(g279
I2
tp1494
a(g48
I2
tp1495
a(g119
I2
tp1496
a(g76
I2
tp1497
a(g714
I1
tp1498
a(g154
I4
tp1499
a(g449
I1
tp1500
a(g424
I1
tp1501
a(g108
I2
tp1502
a(g858
I1
tp1503
a(g476
I2
tp1504
a(g857
I1
tp1505
a(g95
I2
tp1506
a(g418
I1
tp1507
a(g432
I1
tp1508
a(g670
I1
tp1509
a(g569
I1
tp1510
a(g49
I2
tp1511
a(g425
I1
tp1512
a(g410
I1
tp1513
a(g256
I1
tp1514
a(g751
I1
tp1515
a(g619
I6
tp1516
a(g681
I1
tp1517
a(g856
I1
tp1518
a(g302
I1
tp1519
a(g669
I1
tp1520
a(g457
I1
tp1521
a(g155
I4
tp1522
a(g417
I1
tp1523
a(g787
I9
tp1524
a(g840
I1
tp1525
a(g456
I1
tp1526
a(g86
I2
tp1527
a(g467
I1
tp1528
a(g266
I1
tp1529
a(g118
I2
tp1530
a(g725
I1
tp1531
a(g368
I4
tp1532
a(g494
I1
tp1533
a(g786
I10
tp1534
a(g618
I6
tp1535
a(g529
I4
tp1536
a(g680
I1
tp1537
a(g77
I2
tp1538
a(g310
I1
tp1539
a(g518
I1
tp1540
a(g107
I2
tp1541
a(g699
I1
tp1542
a(g713
I1
tp1543
a(g22
I2
tp1544
a(g68
I2
tp1545
a(g244
I1
tp1546
a(g758
I4
tp1547
a(g466
I1
tp1548
a(g166
I1
tp1549
a(g433
I1
tp1550
a(g278
I2
tp1551
a(g135
I2
tp1552
a(g609
I1
tp1553
a(g354
I1
tp1554
a(g519
I1
tp1555
a(g60
I2
tp1556
a(g741
I1
tp1557
a(g548
I1
tp1558
a(g353
I1
tp1559
a(g69
I2
tp1560
a(g409
I1
tp1561
a(g367
I4
tp1562
a(g734
I1
tp1563
a(g700
I1
tp1564
a(g419
I1
tp1565
a(g501
I3
tp1566
a(g59
I2
tp1567
a(g693
I1
tp1568
a(g742
I1
tp1569
asg51
(lp1570
(g5
I8
tp1571
asg587
(lp1572
(g587
I1
tp1573
asg88
(lp1574
(g89
I3
tp1575
asg590
(lp1576
(g590
I1
tp1577
asg130
(lp1578
(g5
I2
tp1579
a(g130
I2
tp1580
asg251
(lp1581
(g252
I1
tp1582
a(g251
I3
tp1583
asg549
(lp1584
(g549
I5
tp1585
asg735
(lp1586
(g246
I1
tp1587
asg267
(lp1588
(g252
I1
tp1589
a(g246
I1
tp1590
a(g267
I8
tp1591
asg97
(lp1592
(g737
I1
tp1593
a(g551
I1
tp1594
a(g98
I2
tp1595
asg38
(lp1596
(g39
I2
tp1597
asg6
(lp1598
(g523
I1
tp1599
a(g627
I1
tp1600
a(g341
I4
tp1601
a(g357
I13
tp1602
a(g372
I3
tp1603
a(g7
I14
tp1604
a(g673
I1
tp1605
asg8
(lp1606
(g359
I15
tp1607
a(g10
I14
tp1608
a(g344
I4
tp1609
a(g374
I4
tp1610
asg11
(lp1611
(g430
I1
tp1612
a(g405
I3
tp1613
a(g327
I1
tp1614
a(g697
I1
tp1615
a(g362
I1
tp1616
a(g81
I8
tp1617
a(g729
I1
tp1618
a(g288
I5
tp1619
a(g348
I4
tp1620
a(g819
I2
tp1621
a(g632
I2
tp1622
a(g54
I2
tp1623
a(g28
I16
tp1624
a(g802
I1
tp1625
a(g376
I2
tp1626
a(g641
I1
tp1627
a(g275
I1
tp1628
a(g829
I1
tp1629
a(g141
I11
tp1630
a(g142
I2
tp1631
a(g516
I2
tp1632
a(g160
I1
tp1633
a(g813
I1
tp1634
a(g42
I15
tp1635
a(g140
I3
tp1636
a(g481
I3
tp1637
a(g663
I1
tp1638
a(g385
I1
tp1639
a(g143
I3
tp1640
a(g688
I1
tp1641
a(g315
I1
tp1642
a(g144
I2
tp1643
a(g719
I1
tp1644
a(g13
I19
tp1645
a(g113
I3
tp1646
asg101
(lp1647
(g237
I1
tp1648
a(g615
I6
tp1649
a(g145
I5
tp1650
a(g306
I1
tp1651
a(g363
I4
tp1652
a(g543
I1
tp1653
a(g491
I1
tp1654
a(g102
I2
tp1655
a(g676
I1
tp1656
a(g754
I4
tp1657
asg14
(lp1658
(g545
I4
tp1659
a(g16
I32
tp1660
asg596
(lp1661
(g596
I1
tp1662
astp1663
.
