((lp0
(dp1
S'jobCluster'
p2
(lp3
S'bank'
p4
asS'lookingFor'
p5
S'well qualified'
p6
sS'father'
p7
S'Malayali'
p8
sS'height'
p9
S'150'
p10
sS'email'
p11
S'gc.shyam@gmail.com'
p12
sS'job'
p13
S'Intl. Bank'
p14
sS'base'
p15
S'Chennai'
p16
sS'casteCluster'
p17
(lp18
S'rc'
p19
asS'mother'
p20
S'Mangalorean'
p21
sS'baseCluster'
p22
(lp23
S'chennai'
p24
asS'ph'
p25
S'9962709014'
p26
sS'age'
p27
S'27'
p28
sS'caste'
p29
S'RC'
p30
sa(dp31
S'descCluster'
p32
(lp33
S'beautiful'
p34
aS'fair'
p35
asS'jobCluster'
p36
(lp37
S'doctor'
p38
asg5
S'qualified professionals.  Caste no bar'
p39
sg7
S'A.D'
p40
sg11
S'ponnu@gmail.com'
p41
sg13
S'Doctor'
p42
sS'casteCluster'
p43
(lp44
S'thiyya'
p45
asS'pg'
p46
S'MD, DM'
p47
sg25
S' 97454 18372'
p48
sS'desc'
p49
S'Brilliant fair and beautiful'
p50
sg27
S'32'
p51
sg29
S'Thiyya'
p52
sa(dp53
S'descCluster'
p54
(lp55
g35
aS'good looking'
p56
asS'jobCluster'
p57
(lp58
S'employed'
p59
asS'family'
p60
g8
sg27
S'47'
p61
sg7
g40
sg13
S'employed'
p62
sS'casteCluster'
p63
(lp64
g19
asg25
S' 09164328691'
p65
sg49
S'Fair, Good looking'
p66
sg5
S'seeks suitable alliance.'
p67
sg29
g30
sa(dp68
S'descCluster'
p69
(lp70
g56
asg27
S'25'
p71
sg9
S'155'
p72
sS'casteCluster'
p73
(lp74
S'mudaliar'
p75
asg25
S'09884433649'
p76
sg49
S'Good Looking'
p77
sS'ug'
p78
S'BS'
p79
sg29
S'Mudaliar'
p80
sa(dp81
S'descCluster'
p82
(lp83
g56
asS'incomeCluster'
p84
(lp85
S'5 lacs p.a.'
p86
asg60
S'Elite'
p87
sg27
S'31'
p88
sg9
g72
sS'casteCluster'
p89
(lp90
S'christian'
p91
asS'income'
p92
S'5 Lacs p.a.'
p93
sg25
g76
sg49
g77
sg5
S'Language No Bar'
p94
sg29
S'Christian'
p95
sa(dp96
g27
S'33'
p97
sg25
S'09849672659'
p98
sg5
S'seeks groom preferably in Visakhapatnam.'
p99
sg60
S'BENGALI'
p100
sg46
S'PG'
p101
sa(dp102
S'jobCluster'
p103
(lp104
S'working'
p105
asg5
S'good family background & professional'
p106
sg13
S'working'
p107
sg15
S'Dubai'
p108
sS'casteCluster'
p109
(lp110
S'catholic'
p111
asg46
S'MBA'
p112
sS'baseCluster'
p113
(lp114
S'dubai'
p115
asg78
S'B.Com'
p116
sg25
S' 9841172036'
p117
sg27
g97
sg29
S'CATHOLIC'
p118
sa(dp119
S'jobCluster'
p120
(lp121
S'civil engineer'
p122
asg27
S'23'
p123
sg9
S'151'
p124
sS'astro'
p125
S'Makayiram'
p126
sg13
S'Civil Engineer'
p127
sS'casteCluster'
p128
(lp129
S'viswakarma'
p130
asS'astroCluster'
p131
(lp132
S'makayiram'
p133
asg25
S' 09491145174'
p134
sg29
S'VISWAKARMA'
p135
sa(dp136
S'descCluster'
p137
(lp138
g35
asS'jobCluster'
p139
(lp140
S'mnc'
p141
asg27
S'28'
p142
sg7
S' Hindu'
p143
sg9
g72
sg13
S'MNC'
p144
sS'contact'
p145
S'Box No.HB-1539,The Hindu,Chennai-600002'
p146
sS'casteCluster'
p147
(lp148
g130
asg46
g101
sg15
g16
sS'baseCluster'
p149
(lp150
g24
asg25
S'9444159054'
p151
sg49
S'fair'
p152
sg5
S'qualified/employed boy preferably Chennai'
p153
sg29
S'Viswakarma'
p154
sa(dp155
S'descCluster'
p156
(lp157
S'wheatish'
p158
asS'baseCluster'
p159
(lp160
S'delhi'
p161
asg49
S'wheatish'
p162
sS'jobCluster'
p163
(lp164
g38
asg60
S'TVM Dist'
p165
sg5
S'Preference for Doctors/Engineers/IT Professionals'
p166
sg9
g10
sg125
S'Avittam'
p167
sg11
S'drvikashnair@gmail.com / ksnairpb@gmail.com'
p168
sg13
g42
sg15
S'Delhi (Noida)'
p169
sS'casteCluster'
p170
(lp171
S'nair'
p172
asg46
S'PG Diploma (Chest-Medicine)'
p173
sS'astroCluster'
p174
(lp175
S'avittam'
p176
asg78
S'MBBS'
p177
sg25
S'09434263508,09434292528,09440236317'
p178
sg27
S'26'
p179
sg29
S'Nair'
p180
sa(dp181
S'jobCluster'
p182
(lp183
S'it'
p184
asg27
g142
sg9
S'165'
p185
sg13
S'IT'
p186
sg15
g16
sS'casteCluster'
p187
(lp188
S'visakam'
p189
asg46
S'MS'
p190
sS'baseCluster'
p191
(lp192
g24
asg25
S'044-26379006 , 9962903753'
p193
sg5
S'Nair/ Iyer from Chennai'
p194
sg29
S'VISAKAM'
p195
sa(dp196
S'descCluster'
p197
(lp198
g34
asS'jobCluster'
p199
(lp200
S'completing mba'
p201
asg5
S'well qualified and handsome professional boys, employed in USA, preferably with similar backgrounds'
p202
sg9
S'160'
p203
sg27
g179
sg13
S'completing MBA'
p204
sg15
S'USA'
p205
sS'casteCluster'
p206
(lp207
S'nambiar'
p208
asg46
g112
sS'baseCluster'
p209
(lp210
S'us'
p211
asg49
S'beautiful'
p212
sg11
S'varanusa@gmail.com'
p213
sg29
S'NAMBIAR'
p214
sa(dp215
S'jobCluster'
p216
(lp217
g4
asg5
S'Subcaste no bar'
p218
sg9
g203
sg125
S'Uthram'
p219
sg27
S'30'
p220
sg13
S'Bank Officer SBI'
p221
sS'casteCluster'
p222
(lp223
S'sc'
p224
asg46
S'MCA'
p225
sS'astroCluster'
p226
(lp227
S'uthram'
p228
asg78
S'B.Sc'
p229
sg25
S' 0469 2783365 9,447595402'
p230
sg29
S'PATHIYAN(SC)'
p231
sa(dp232
S'descCluster'
p233
(lp234
g35
asS'baseCluster'
p235
(lp236
S'blore'
p237
asS'jobCluster'
p238
(lp239
g141
asg5
S'seeks same qualified groom.'
p240
sg9
S'168'
p241
sg125
S'poorattathi'
p242
sg27
g28
sg13
g144
sg145
S'Box No. HB  1612 , THE HINDU, Chennai - 600002'
p243
sS'casteCluster'
p244
(lp245
g172
asg46
g112
sg15
S'Blore'
p246
sS'astroCluster'
p247
(lp248
S'poorattathi'
p249
asg78
S'B.Tech'
p250
sg49
g152
sg25
S' - 600002'
p251
sg29
S'NAIR'
p252
sa(dp253
S'descCluster'
p254
(lp255
g35
asS'jobCluster'
p256
(lp257
S'ibm'
p258
asg5
S'Equally Qualified Menon/Nair groom'
p259
sg7
S'MENON'
p260
sg11
S'sindujp@gmail.com'
p261
sg13
S'IBM Bglr(Transferable to Chennai)'
p262
sg15
g16
sS'baseCluster'
p263
(lp264
g24
asg46
g225
sg20
S'TAMIL Pillai'
p265
sg25
S'09249792733,9048999263'
p266
sg27
g71
sg49
S'Fair'
p267
sa(dp268
S'descCluster'
p269
(lp270
g35
asS'jobCluster'
p271
(lp272
g38
asg27
S'24'
p273
sg78
g177
sg13
g42
sS'casteCluster'
p274
(lp275
g45
asg25
S' 09447027631,0495 2300631'
p276
sg49
g267
sg5
S'Seeks Suitable Alliance.'
p277
sg29
S'THIYYA'
p278
sa(dp279
S'baseCluster'
p280
(lp281
g24
asS'incomeCluster'
p282
(lp283
S'3.25/pa'
p284
asS'weight'
p285
S'72kg'
p286
sg60
S'Middle Class'
p287
sS'divorcee'
p288
S'Divorcee'
p289
sg27
g142
sg9
g72
sg125
S'Thiruvonam'
p290
sg15
g16
sS'casteCluster'
p291
(lp292
g172
aS'ezhava'
p293
asg92
S'3.25/pa'
p294
sS'astroCluster'
p295
(lp296
S'thiruvonam'
p297
asg25
S'9445162800, 9962809321'
p298
sg5
S'seeks suitable Hindu Malayali Groom.'
p299
sg29
S'NAIR/EZHAVA'
p300
sa(dp301
S'baseCluster'
p302
(lp303
g24
asS'jobCluster'
p304
(lp305
S'medical transcription'
p306
asg288
g289
sg27
S'36'
p307
sg7
g40
sg9
g72
sg125
S'Maham'
p308
sg13
S'Medical Transcription'
p309
sg145
S'Box No.KR42110, THE HINDU, Chennai-600002.'
p310
sS'casteCluster'
p311
(lp312
g293
asg15
g16
sS'astroCluster'
p313
(lp314
S'maham'
p315
asg29
S'EZHAVA'
p316
sa(dp317
g60
S'Aristrocratic family Ernakulam'
p318
sg5
S'broadminded well settled in UK/ US similar background unmarried groom'
p319
sg27
S'29'
p320
sg15
S'London'
p321
sS'casteCluster'
p322
(lp323
g172
asg46
S'Graduate US'
p324
sS'baseCluster'
p325
(lp326
S'london'
p327
asg25
S'91-44-994008936'
p328
sg11
S'rmenon2402@rediffmail.com'
p329
sg29
g252
sa(dp330
S'jobCluster'
p331
(lp332
S'manager'
p333
asg60
S'Hailing from Vatakara'
p334
sg5
S'seeks Professional.'
p335
sg9
S'152'
p336
sg27
S'34'
p337
sg13
S'Deputy Manager'
p338
sg15
g16
sS'casteCluster'
p339
(lp340
g45
asS'baseCluster'
p341
(lp342
g24
asg78
S'Chartered Accountant'
p343
sg25
S' 0496-2525417, 09645779901'
p344
sg29
g278
sa(dp345
S'baseCluster'
p346
(lp347
S'singapore'
p348
asS'jobCluster'
p349
(lp350
S'software engineer'
p351
asg27
g320
sg125
g167
sg13
S'Software Engineer'
p352
sg15
S'Singapore'
p353
sS'casteCluster'
p354
(lp355
g293
asS'astroCluster'
p356
(lp357
g176
asg78
g250
sg25
S'04885241635, 09995362002, 09995203845'
p358
sg29
g316
sa(dp359
S'baseCluster'
p360
(lp361
g161
asS'jobCluster'
p362
(lp363
g59
asg27
g179
sg9
S'157'
p364
sg125
S'Rohini'
p365
sg13
g62
sg15
S'Delhi'
p366
sS'casteCluster'
p367
(lp368
g172
asg46
g112
sS'astroCluster'
p369
(lp370
S'rohini'
p371
asg25
S' 011 28549634 0,9312218941'
p372
sg5
S'employed Nair boys from Metros'
p373
sg29
g252
sa(dp374
S'baseCluster'
p375
(lp376
S'kochi'
p377
asS'jobCluster'
p378
(lp379
S'private practice'
p380
asg5
S'seeks alliance from qualified well employed boys.'
p381
sg7
S'retired Railway Officer'
p382
sg9
S'153'
p383
sg125
S'Pooyyam'
p384
sg27
g88
sg13
S'Private practice'
p385
sg145
S'Box No.: KA-118, THE HINDU, Kochi-682019'
p386
sS'casteCluster'
p387
(lp388
g45
asg15
S'Kochi'
p389
sS'astroCluster'
p390
(lp391
S'pooyyam'
p392
asg78
S'BSc BHMS'
p393
sg25
S'-0491-2556736'
p394
sg29
g278
sa(dp395
S'jobCluster'
p396
(lp397
g184
asg27
g142
sg9
g241
sg13
S'Ph. D with fellowship'
p398
sg15
S'Trivandrum'
p399
sS'casteCluster'
p400
(lp401
g293
asg46
S'M.sc Medical Bio-Chemistry'
p402
sS'baseCluster'
p403
(lp404
S'trivandrum'
p405
asg25
S'0474 2592571'
p406
sg5
S'professionally qualified boys in India or abroad'
p407
sg29
g316
sa(dp408
S'jobCluster'
p409
(lp410
g105
asg27
S'35'
p411
sg125
S'Avittom'
p412
sg13
g107
sS'casteCluster'
p413
(lp414
g293
asg46
S'PHD biotech'
p415
sS'astroCluster'
p416
(lp417
S'avittom'
p418
asg25
S' 0471-2350996 '
p419
sg11
S'vkpappan2004@gmail.com'
p420
sg29
g316
sa(dp421
S'baseCluster'
p422
(lp423
g24
asS'jobCluster'
p424
(lp425
g141
asg5
S'seeks suitable Groom.'
p426
sg9
g185
sg125
g290
sg27
g28
sg13
g144
sg15
g16
sS'casteCluster'
p427
(lp428
g293
asg46
g112
sS'astroCluster'
p429
(lp430
g297
asg78
g116
sg25
S' 0-9940622916'
p431
sg29
g316
sa(dp432
S'jobCluster'
p433
(lp434
g141
asg27
g273
sg9
g185
sg13
g144
sg145
S'Box No.SH48609, THE HINDU, Chennai-600002.'
p435
sS'casteCluster'
p436
(lp437
g208
asg15
g16
sS'baseCluster'
p438
(lp439
g24
asg5
S'seeks Prof.Qual Groom of Same Caste'
p440
sg29
g214
sa(dp441
S'baseCluster'
p442
(lp443
g24
asg60
S'PALAKKAD'
p444
sg27
g71
sg7
g40
sg9
g336
sg125
S'Revathi'
p445
sg145
S'Box No.DM32246, THE HINDU, Chennai-600002'
p446
sS'casteCluster'
p447
(lp448
g172
asg15
g16
sS'astroCluster'
p449
(lp450
S'revathi'
p451
asg5
S'seeks suitable groom.'
p452
sg29
g252
sa(dp453
S'baseCluster'
p454
(lp455
g24
asg27
g71
sg9
S'163'
p456
sg125
S'Chitra'
p457
sg145
S'Box No.HA37382, THE HINDU, Chennai-600002'
p458
sS'casteCluster'
p459
(lp460
g172
asg15
g16
sS'astroCluster'
p461
(lp462
S'chitra'
p463
asg78
S'B.A'
p464
sg5
S'Seeks Graduate.'
p465
sg29
g252
sa(dp466
S'baseCluster'
p467
(lp468
g24
asS'jobCluster'
p469
(lp470
S'acctant'
p471
asg27
g320
sg9
g456
sg125
S'Thriketta'
p472
sg13
S'Acctant'
p473
sg15
S'CHENNAI'
p474
sS'casteCluster'
p475
(lp476
g172
asg46
g112
sS'astroCluster'
p477
(lp478
S'thriketta'
p479
asg25
S' 044-23660975 , 09444011751'
p480
sg29
g180
sa(dp481
S'baseCluster'
p482
(lp483
g24
asS'jobCluster'
p484
(lp485
S'sw'
p486
asg5
S'seeks Prfsnl only.'
p487
sg9
g203
sg125
S'Punartham'
p488
sg11
S'sugathansimi@gmail.com'
p489
sg13
S'SWE'
p490
sg15
g474
sS'casteCluster'
p491
(lp492
g293
asS'astroCluster'
p493
(lp494
S'punartham'
p495
asg78
S'BTech'
p496
sg25
S'9884247729, 9176186511'
p497
sg27
g273
sg29
S'Ezhava'
p498
sa(dp499
S'jobCluster'
p500
(lp501
g141
asg288
S'DIVORCEE'
p502
sg27
g179
sg13
g144
sS'casteCluster'
p503
(lp504
g172
asg46
g101
sg25
S'99400-13014'
p505
sg5
S'seeks Married (Issueless)/ Unmarried groom 28-33yrs from good company.Caste no bar'
p506
sg29
g180
sa(dp507
S'baseCluster'
p508
(lp509
g24
asg60
S'Marathi'
p510
sg27
S'22'
p511
sg9
g203
sg125
S'Poosam'
p512
sg145
S'Box No.KR42113, THE HINDU, Chennai-600002'
p513
sS'casteCluster'
p514
(lp515
S'madhwa'
p516
asg46
g190
sg15
g16
sS'astroCluster'
p517
(lp518
S'poosam'
p519
asg5
S'Groom below-27'
p520
sg29
S'MADHWA'
p521
sa(dp522
S'jobCluster'
p523
(lp524
g486
asg5
S'SWE/IT groom below 30 height above 173'
p525
sg9
S'173'
p526
sg11
S'shamuhammed786@yahoo.com'
p527
sg13
g490
sg15
g16
sS'casteCluster'
p528
(lp529
S'muslim'
p530
asS'baseCluster'
p531
(lp532
g24
asg25
S' 0413-2202326'
p533
sg27
g71
sg29
S'MUSLIM'
p534
sa(dp535
S'descCluster'
p536
(lp537
g35
asS'jobCluster'
p538
(lp539
S'dnb pediatrics i year'
p540
asg60
S'TAMIL'
p541
sg5
S'MBBS/PG Medical groom'
p542
sg9
g383
sg27
g28
sg13
S'DNB Pediatrics I year'
p543
sS'casteCluster'
p544
(lp545
g530
asg25
S'9443209068'
p546
sg49
g152
sg78
g177
sg29
g534
sa(dp547
S'jobCluster'
p548
(lp549
g141
asg60
g541
sg27
g71
sg9
S'167'
p550
sg13
g144
sg15
g16
sS'casteCluster'
p551
(lp552
g530
asg46
g225
sS'baseCluster'
p553
(lp554
g24
asg25
S' 9677207334'
p555
sg29
S'MUSLIM Rowther'
p556
sa(dp557
S'descCluster'
p558
(lp559
g35
aS'slim'
p560
asg49
S'Fair Slim'
p561
sS'jobCluster'
p562
(lp563
S'pg diploma'
p564
asg60
S'tamil'
p565
sg5
S'Medical PG Groom'
p566
sg9
S'164'
p567
sg11
S'mashee95@yahoo.in'
p568
sg13
S'PG Diploma'
p569
sg15
S'chennai'
p570
sS'casteCluster'
p571
(lp572
g530
asS'baseCluster'
p573
(lp574
g24
asg78
g177
sg25
S'(0)9840068258'
p575
sg27
g123
sg29
S'Muslim'
p576
sa(dp577
S'descCluster'
p578
(lp579
g35
ag560
asg49
S'FAIR Slim'
p580
sg60
S'Nativity around Tanjore Mayavaram'
p581
sg5
S'Groom ME/MS/ MTech/MBA/PG Dr frm Chennai'
p582
sg9
S'156'
p583
sg11
S'drmohd45@gmail.com'
p584
sg15
g16
sS'casteCluster'
p585
(lp586
g530
asg46
g112
sS'baseCluster'
p587
(lp588
g24
asg78
g496
sg25
S' 09842566608, 09941494065'
p589
sg27
g273
sg29
g576
sa(dp590
S'descCluster'
p591
(lp592
g560
aS'goodlooking'
p593
asg27
g320
sg9
g583
sg145
S'Box No. CB-357, THE HINDU, Coimbatore-641018.'
p594
sS'casteCluster'
p595
(lp596
g530
asg46
S'M.Sc, M.Phil'
p597
sg49
S'religious slim goodlooking homely'
p598
sg5
S'seeks groom for their M.'
p599
sg29
g576
sa(dp600
S'jobCluster'
p601
(lp602
S'physician'
p603
asg27
g71
sg11
S'asimamansoor@yahoo.com'
p604
sg13
S'Physician'
p605
sg15
g205
sS'casteCluster'
p606
(lp607
S'sunni'
p608
asS'baseCluster'
p609
(lp610
g211
asg9
g567
sg5
S'USMLE passed Physician Groom 24 to 29age, from Good family with decent look, clean character, Hard working, Humble & motivated nature'
p611
sg29
S'SUNNI'
p612
sa(dp613
S'descCluster'
p614
(lp615
g34
asg288
g289
sg27
g51
sg9
S'170'
p616
sg145
S'Box No.WW56888, THE HINDU, Chennai-600002'
p617
sS'baseCluster'
p618
(lp619
g24
asg46
g112
sg15
g16
sg78
g464
sg5
S'Highly Qualified Groom Divorcee/Widower'
p620
sg49
g212
sa(dp621
S'descCluster'
p622
(lp623
S'vitiligo in the right leg'
p624
asS'jobCluster'
p625
(lp626
S'bpo'
p627
asg27
g220
sg9
g203
sg13
S'BPO'
p628
sg145
S'Box No. HB-1517, THE HINDU, Chennai-600002'
p629
sS'casteCluster'
p630
(lp631
S'vellala'
p632
ag19
asg46
S'M.Com'
p633
sg15
g16
sS'baseCluster'
p634
(lp635
g24
asg49
S'vitiligo in the right leg'
p636
sg29
S'RC VELLALA '
p637
sa(dp638
S'descCluster'
p639
(lp640
g35
asg60
S'Devendrakula Vellalar'
p641
sg27
g28
sg7
g143
sg9
S'162'
p642
sg145
S'Box No:HB-1519 The Hindu Chennai-600002.'
p643
sS'casteCluster'
p644
(lp645
g91
asg46
S'MS PHD'
p646
sg15
g205
sS'baseCluster'
p647
(lp648
g211
asg78
S'BE'
p649
sg49
S'fair God fearing'
p650
sg5
S'BE MS ME employed groom in USA'
p651
sg29
S'CHRISTIAN'
p652
sa(dp653
S'descCluster'
p654
(lp655
g35
ag560
asS'jobCluster'
p656
(lp657
g4
asS'incomeCluster'
p658
(lp659
S'24000/-pm'
p660
asg27
g88
sg7
g40
sg9
S'159'
p661
sg13
S'Officer Nationalised Bank'
p662
sS'casteCluster'
p663
(lp664
g19
asg46
S'M.Sc MBA'
p665
sg92
S'24000/-PM'
p666
sg25
S'9047621794'
p667
sg49
g561
sg5
S'seeks Well employed Groom.'
p668
sg29
S'RC/AD'
p669
sa(dp670
S'jobCluster'
p671
(lp672
g105
asg60
g541
sg5
S'god fearing clean habits BE/Any professional groom'
p673
sg9
g583
sg11
S'drsamsonvet@yahoo.com'
p674
sg13
g107
sg15
S'Kuwait'
p675
sS'casteCluster'
p676
(lp677
g91
asS'baseCluster'
p678
(lp679
S'kuwait'
p680
asg78
g649
sg25
S'0-99521 58927 '
p681
sg27
g51
sg29
g95
sa(dp682
S'descCluster'
p683
(lp684
g35
ag56
asS'jobCluster'
p685
(lp686
g486
aS'tcs'
p687
asS'incomeCluster'
p688
(lp689
S'35000'
p690
asg5
S'seeks groom with clean habits.'
p691
sg7
g40
sg27
g273
sg13
S'SWE in TCS'
p692
sg15
g16
sS'casteCluster'
p693
(lp694
S'nadar'
p695
aS'csi'
p696
asg92
S'35000/- pm'
p697
sS'baseCluster'
p698
(lp699
g24
asg78
g649
sg49
S'fair, good looking'
p700
sg25
S' 99946 19216'
p701
sg29
S'CSI NADAR'
p702
sa(dp703
S'jobCluster'
p704
(lp705
g486
asS'incomeCluster'
p706
(lp707
S'8lpa'
p708
asg60
g541
sg288
g288
sg27
g220
sg9
g567
sg13
g490
sg145
S'Box No: CB-334, THE HINDU, Coimbatore 641018.'
p709
sS'casteCluster'
p710
(lp711
g632
ag19
asg46
g190
sg15
S'Banglore'
p712
sg92
S'8lpa'
p713
sS'baseCluster'
p714
(lp715
S'banglore'
p716
asg5
S'highly qualified professionals in equal status, above 170cm & below 36yrs'
p717
sg29
S'RC Vellalar'
p718
sa(dp719
S'descCluster'
p720
(lp721
g35
asS'jobCluster'
p722
(lp723
S'cts'
p724
asS'incomeCluster'
p725
(lp726
S'40,000'
p727
asg27
g179
sg9
g383
sg13
S'CTS'
p728
sg145
S'Box No:MA-239, THE HINDU, Madurai - 625020.'
p729
sS'casteCluster'
p730
(lp731
g91
asg92
S'40,000'
p732
sg25
S' - 625020'
p733
sg49
g152
sg5
S'SWE/Doctor/Engineer/Lecturer/Officers'
p734
sg29
g652
sa(dp735
S'jobCluster'
p736
(lp737
g38
asg5
S'Caste no bar.'
p738
sg9
S'158'
p739
sg11
S'hildaagnes@gmail.com'
p740
sg13
g42
sg15
g205
sS'casteCluster'
p741
(lp742
g91
ag696
asg46
S'MD(Psychiatry)'
p743
sS'baseCluster'
p744
(lp745
g211
asg78
g177
sg25
S'9840649076'
p746
sg27
g179
sg29
S'CSI CHRISTIAN AD'
p747
sa(dp748
S'jobCluster'
p749
(lp750
g486
asS'incomeCluster'
p751
(lp752
S'20,000'
p753
asg27
g28
sg9
g642
sg13
g490
sS'casteCluster'
p754
(lp755
g695
ag696
asg46
S'M.Sc.IT'
p756
sg92
S'20,000'
p757
sg25
S'9442317511'
p758
sg5
S'M.Sc. IT/MCA/BE/BPT/Govt./Bank staff'
p759
sg29
g702
sa(dp760
S'descCluster'
p761
(lp762
S'weatish'
p763
asS'jobCluster'
p764
(lp765
S'lecturer'
p766
asS'incomeCluster'
p767
(lp768
S'rs.18,000'
p769
asg288
S'legally separated'
p770
sg27
g28
sg9
g364
sg13
S'Sr.Lecturer'
p771
sS'casteCluster'
p772
(lp773
g695
ag91
asg46
S'M.E.'
p774
sg92
S'Rs.18,000'
p775
sg25
S'9442515010'
p776
sg49
S'weatish'
p777
sg5
S'Same caste age below 35'
p778
sg29
S'NADAR CHRISTIAN'
p779
sa(dp780
S'descCluster'
p781
(lp782
S'pious&dedicated'
p783
asS'jobCluster'
p784
(lp785
g141
asS'incomeCluster'
p786
(lp787
g690
asg27
g142
sg9
g185
sg13
g144
sS'casteCluster'
p788
(lp789
g19
asg46
S'MSc Economics '
p790
sg92
S'35000'
p791
sg25
S'9003033569'
p792
sg49
S'Pious&Dedicated'
p793
sg29
g669
sa(dp794
g288
g289
sg27
g97
sg9
g661
sg145
S'Box No.HB-1584, THE HINDU, Chennai-600 002.'
p795
sS'casteCluster'
p796
(lp797
g19
asg46
S'M.Sc'
p798
sg15
g16
sS'baseCluster'
p799
(lp800
g24
asg78
S'B.Ed'
p801
sg5
S'Educated Groom'
p802
sg29
g669
sa(dp803
S'descCluster'
p804
(lp805
g35
asS'jobCluster'
p806
(lp807
g766
asg27
g179
sg9
S'154'
p808
sg13
S'Lecturer'
p809
sg145
S'Box No. BA-178, THE HINDU, Bangalore-560001'
p810
sS'casteCluster'
p811
(lp812
g19
asg46
S'M.A'
p813
sg15
S'Bangalore'
p814
sS'baseCluster'
p815
(lp816
S'bangalore'
p817
asg78
g801
sg49
S'fair, god fearing'
p818
sg29
g30
sa(dp819
S'descCluster'
p820
(lp821
g560
asS'jobCluster'
p822
(lp823
g333
asS'incomeCluster'
p824
(lp825
S'70k/m'
p826
asg60
S'pious'
p827
sg5
S'caste nobar'
p828
sg9
g203
sg11
S'heidelger@gmail.com'
p829
sg13
S'Manager'
p830
sS'casteCluster'
p831
(lp832
g19
asg46
g101
sg92
S'70K/m'
p833
sg49
S'slim'
p834
sg27
g337
sg29
g30
sa(dp835
S'jobCluster'
p836
(lp837
g486
asS'incomeCluster'
p838
(lp839
S'9lakh/annum'
p840
asg60
g541
sg27
g142
sg7
g40
sg9
g567
sg13
g490
sg15
g814
sS'casteCluster'
p841
(lp842
g695
ag91
asg92
S'9lakh/annum'
p843
sS'baseCluster'
p844
(lp845
g817
asg25
S' 09865664377'
p846
sg78
g649
sg29
S'NADAR Christian'
p847
sa(dp848
S'descCluster'
p849
(lp850
g35
asg27
g273
sg9
g185
sg145
S'Box No: HB-1616, THE HINDU, Chennai-600002.'
p851
sS'casteCluster'
p852
(lp853
g19
asg46
S'BDS'
p854
sg15
g16
sS'baseCluster'
p855
(lp856
g24
asg78
S'BSc'
p857
sg49
g152
sg5
S'profl groom med prefd'
p858
sg29
g30
sa(dp859
S'jobCluster'
p860
(lp861
S'therapist'
p862
asg27
g411
sg9
g526
sg13
S'therapist'
p863
sg15
g205
sS'casteCluster'
p864
(lp865
g91
ag696
asS'baseCluster'
p866
(lp867
g211
asg25
S' 9994627371, 0416-2243984'
p868
sg5
S'employed at USA preferred'
p869
sg29
S'CSI CHRISTIAN'
p870
sa(dp871
S'jobCluster'
p872
(lp873
S'teacher'
p874
asg5
S'Seeks RC Only.'
p875
sg9
g583
sg27
g51
sg13
S'Teacher'
p876
sS'casteCluster'
p877
(lp878
g632
ag19
asg46
g813
sg25
S'9841252188,9043161209,9841584761'
p879
sg78
g801
sg29
S'RC VELLALAR'
p880
sa(dp881
S'descCluster'
p882
(lp883
g35
asg27
g142
sg9
g808
sg145
S'Box No.KR42102, THE HINDU, Chennai-600002'
p884
sS'casteCluster'
p885
(lp886
g695
asg15
g16
sS'baseCluster'
p887
(lp888
g24
asg25
S'9444566444'
p889
sg49
g152
sg11
S'suvigaran@yahoo.com'
p890
sg29
S'NADAR'
p891
sa(dp892
S'descCluster'
p893
(lp894
g35
asg27
g220
sg11
S'manoharanjosephjv@gmail.com'
p895
sS'casteCluster'
p896
(lp897
g696
asg46
S'MSc'
p898
sg49
g267
sg9
g808
sg5
S'Seeks Suitable Employed Groom.'
p899
sg29
S'CSI'
p900
sa(dp901
S'descCluster'
p902
(lp903
g56
asg27
g28
sg7
g40
sS'casteCluster'
p904
(lp905
g695
ag696
asg25
S' 9025606917 , 044-27927448'
p906
sg49
S'good looking'
p907
sg5
S'seeks any professional Groom.'
p908
sg29
g702
sa(dp909
S'descCluster'
p910
(lp911
S'handsome'
p912
asg60
S'VELLALAR Pillai'
p913
sg5
S'seeks Handsome Vellalar Pillai Christian CSI or Catholic.'
p914
sg27
g142
sg145
S'Box No.HB-1661 THE HINDU Chennai-600002'
p915
sS'casteCluster'
p916
(lp917
g91
asg46
g112
sg15
g16
sS'baseCluster'
p918
(lp919
g24
asg78
g464
sg49
S'Handsome'
p920
sg25
S' 9092614816 '
p921
sg29
g652
sa(dp922
S'incomeCluster'
p923
(lp924
S'40000pm'
p925
asg5
S'MBA,ME,BE same caste'
p926
sg9
g185
sg11
S'madhavan1510@yahoo.co.in'
p927
sg15
g16
sS'casteCluster'
p928
(lp929
g91
ag696
asg46
g112
sg92
S'40000pm'
p930
sS'baseCluster'
p931
(lp932
g24
asg78
g649
sg25
S' 044-26743824,9841977826 '
p933
sg27
g142
sg29
g747
sa(dp934
S'descCluster'
p935
(lp936
g35
ag56
asg60
S'S.G.Durai Nadar'
p937
sg27
S'21'
p938
sS'casteCluster'
p939
(lp940
g695
ag696
asg25
S' 044-22410032, 9840817571'
p941
sg49
S'Very Fair, Good Looking'
p942
sg78
g177
sg29
g702
sa(dp943
S'descCluster'
p944
(lp945
g35
ag593
asS'jobCluster'
p946
(lp947
g486
asS'incomeCluster'
p948
(lp949
g753
asg60
g937
sg27
g511
sg13
g490
sS'casteCluster'
p950
(lp951
g695
asg92
g757
sg25
g941
sg49
S'very fair, goodlooking'
p952
sg78
S'BE (C.S)'
p953
sg29
S'Nadar'
p954
sa(dp955
S'descCluster'
p956
(lp957
g35
ag593
asS'jobCluster'
p958
(lp959
S'wipro'
p960
asS'incomeCluster'
p961
(lp962
S'25,000/p.m'
p963
asg27
g511
sg13
S'Wipro'
p964
sS'casteCluster'
p965
(lp966
g695
asg92
S'25,000/p.m'
p967
sg25
g941
sg49
g952
sg78
S'BE (ECE)'
p968
sg29
g954
sa(dp969
S'descCluster'
p970
(lp971
g35
asS'jobCluster'
p972
(lp973
g486
asS'incomeCluster'
p974
(lp975
S'35,000/pm'
p976
asg27
g511
sg13
S'SWE in Dell'
p977
sS'casteCluster'
p978
(lp979
g695
ag696
asg92
S'35,000/pm'
p980
sg25
S'044-22410032,9840817571'
p981
sg49
g152
sg78
g649
sg29
g702
sa(dp982
S'descCluster'
p983
(lp984
g35
ag593
asS'jobCluster'
p985
(lp986
g486
asS'incomeCluster'
p987
(lp988
S'22,000'
p989
asg27
g938
sg13
g490
sS'casteCluster'
p990
(lp991
g695
ag696
asg92
S'22,000'
p992
sg25
g981
sg49
S'veryfair,goodlooking'
p993
sg78
g953
sg29
g702
sa(dp994
S'descCluster'
p995
(lp996
g35
ag593
asS'jobCluster'
p997
(lp998
S'hcl'
p999
ag486
asS'incomeCluster'
p1000
(lp1001
S'30,000/pm '
p1002
asg27
g511
sg13
S'SWE in HCL'
p1003
sS'casteCluster'
p1004
(lp1005
g695
ag696
asg92
S'30,000/pm '
p1006
sg25
g981
sg49
g993
sg78
g968
sg29
g702
sa(dp1007
S'descCluster'
p1008
(lp1009
g35
ag593
asS'jobCluster'
p1010
(lp1011
S'infosys'
p1012
ag486
asS'incomeCluster'
p1013
(lp1014
S'23,000/p.m'
p1015
asg27
g938
sg13
S'SWE in Infosys'
p1016
sg145
S'S.G.Durai Nadar,25,1st Cross Street,New Colony,Chromepet,Chennai-44'
p1017
sS'casteCluster'
p1018
(lp1019
g695
ag696
asg15
g16
sg92
S'23,000/p.m'
p1020
sS'baseCluster'
p1021
(lp1022
g24
asg25
g981
sg49
g993
sg78
g953
sg29
g702
sa(dp1023
S'descCluster'
p1024
(lp1025
g35
ag593
asS'jobCluster'
p1026
(lp1027
g724
ag486
asS'incomeCluster'
p1028
(lp1029
S'23,000/pm'
p1030
asg27
g511
sg13
S'SWE in CTS'
p1031
sS'casteCluster'
p1032
(lp1033
g695
asg92
S'23,000/pm'
p1034
sg25
g981
sg49
g993
sg78
g968
sg29
g954
sa(dp1035
S'descCluster'
p1036
(lp1037
g35
ag56
asg60
g937
sg27
g511
sS'casteCluster'
p1038
(lp1039
g695
asg25
g941
sg49
g700
sg78
g177
sg29
g954
sa(dp1040
S'descCluster'
p1041
(lp1042
g35
ag593
asS'jobCluster'
p1043
(lp1044
g486
asS'incomeCluster'
p1045
(lp1046
g963
asg60
g937
sg27
g938
sg7
g40
sg9
S'000'
p1047
sg13
S'SWE in Steria'
p1048
sg145
S'25,1st Cross Street,New Colony,Chromepet,Chennai-44'
p1049
sS'casteCluster'
p1050
(lp1051
g695
asg92
g967
sg25
g981
sg49
g993
sg78
g649
sg29
g954
sa(dp1052
S'descCluster'
p1053
(lp1054
g158
asS'jobCluster'
p1055
(lp1056
g766
asg27
g28
sg9
g739
sg13
g809
sS'casteCluster'
p1057
(lp1058
g696
asg46
g798
sg25
S' (0)9944070533'
p1059
sg49
S'Wheatish'
p1060
sg5
S'seeks God fearing Suitable groom.'
p1061
sg29
g900
sa(dp1062
S'jobCluster'
p1063
(lp1064
g184
asg60
S'CSI T.VELI Nadar'
p1065
sg27
g88
sg9
S'171'
p1066
sg13
g186
sg15
S"B'lore"
p1067
sS'casteCluster'
p1068
(lp1069
g91
asg46
g112
sS'baseCluster'
p1070
(lp1071
S"b'lore"
p1072
asg25
S' 9444070607, 9840030407'
p1073
sg5
S'any Caste suitable Christian Profesnal'
p1074
sg29
g95
sa(dp1075
S'jobCluster'
p1076
(lp1077
S'own business'
p1078
asg5
S'Caste/Religion No Bar'
p1079
sg9
g550
sg27
g142
sg13
S'Own Business'
p1080
sg15
g16
sS'baseCluster'
p1081
(lp1082
g24
asg25
S' 09962375166, 09176664229'
p1083
sg78
g857
sa(dp1084
S'descCluster'
p1085
(lp1086
g35
asS'jobCluster'
p1087
(lp1088
g184
aS'analyst'
p1089
asS'incomeCluster'
p1090
(lp1091
S'16000/pm'
p1092
asg27
g142
sg9
g642
sg13
S'Quality Analyst '
p1093
sg145
S'Box No.DM32247, THE HINDU, Chennai-600002'
p1094
sS'casteCluster'
p1095
(lp1096
g632
ag696
asg46
g112
sg15
g16
sg92
S'16000/pm'
p1097
sS'baseCluster'
p1098
(lp1099
g24
asg78
g229
sg49
g152
sg5
S'educated, well employed'
p1100
sg29
S'CSI VELLALAR'
p1101
sa(dp1102
S'descCluster'
p1103
(lp1104
S'dark brown'
p1105
asS'jobCluster'
p1106
(lp1107
S'nurse'
p1108
asg27
g71
sg9
g642
sg13
S'nurse'
p1109
sS'casteCluster'
p1110
(lp1111
S'r.c.'
p1112
asg29
S'R.C.'
p1113
sg11
S'vijaymodi@gmail.com'
p1114
sg49
S'dark brown'
p1115
sa(dp1116
S'descCluster'
p1117
(lp1118
g158
asS'jobCluster'
p1119
(lp1120
g766
asg27
g71
sg7
g40
sg9
g203
sg13
g809
sS'casteCluster'
p1121
(lp1122
g695
ag696
asg46
S'M.Tech'
p1123
sg25
S'-9489250240'
p1124
sg49
g1060
sg5
S'Employed boy Same Caste'
p1125
sg29
g702
sa(dp1126
S'jobCluster'
p1127
(lp1128
g486
asg60
S'Devendrakulam (Pallar)'
p1129
sg27
g28
sg9
g203
sg13
g490
sg15
g16
sS'casteCluster'
p1130
(lp1131
g91
asg46
g225
sS'baseCluster'
p1132
(lp1133
g24
asg25
S' 09791170034'
p1134
sg5
S'(BE/MCA/ME/MBA) Any Job'
p1135
sg29
g652
sa(dp1136
S'descCluster'
p1137
(lp1138
g35
ag593
asg27
g71
sg78
g649
sg9
g185
sS'casteCluster'
p1139
(lp1140
g695
asg25
S' 09962632239'
p1141
sg49
S'fair goodlooking'
p1142
sg5
S'Seeks suitable well settled RC Nadar Groom.'
p1143
sg29
g954
sa(dp1144
S'jobCluster'
p1145
(lp1146
g766
asg60
S'High class'
p1147
sg27
g28
sg145
S'Box No. HB-1676, THE HINDU, Chennai-600002.'
p1148
sg13
g809
sg15
g16
sS'casteCluster'
p1149
(lp1150
g695
asg46
g112
sS'baseCluster'
p1151
(lp1152
g24
asg5
S'groom from same Caste and Religion'
p1153
sg29
g891
sa(dp1154
S'descCluster'
p1155
(lp1156
S'us citizen'
p1157
asS'jobCluster'
p1158
(lp1159
g184
asg288
S'divorcee with child'
p1160
sg27
g51
sg13
g186
sg145
S'Box No.DM32233, THE HINDU, Chennai-600002.'
p1161
sS'casteCluster'
p1162
(lp1163
g91
asg20
g95
sg49
S'US CITIZEN'
p1164
sg5
S'seeks Christian Professionals.'
p1165
sg29
g95
sa(dp1166
S'descCluster'
p1167
(lp1168
g35
ag56
asg27
g273
sg9
g456
sS'casteCluster'
p1169
(lp1170
g91
asg25
S'09789863969'
p1171
sg49
S'Fair and Good Looking'
p1172
sg78
g116
sg29
g95
sa(dp1173
S'descCluster'
p1174
(lp1175
g35
ag56
asg27
g179
sg9
g185
sS'casteCluster'
p1176
(lp1177
g91
asg25
g76
sg49
g1172
sg78
g649
sg29
g95
sa(dp1178
S'descCluster'
p1179
(lp1180
g35
ag56
asS'jobCluster'
p1181
(lp1182
g874
asg5
S'seeks well educated groom good family.'
p1183
sg9
g185
sg125
g512
sg27
g273
sg13
g876
sS'casteCluster'
p1184
(lp1185
g632
asg46
g798
sS'astroCluster'
p1186
(lp1187
g519
asg78
g801
sg49
S'fair good looking'
p1188
sg25
S'9842522075'
p1189
sg29
S'DEVENDRAKULA Vellalar'
p1190
sa(dp1191
g5
S'seeks suitable Groom well settled/preferably in US '
p1192
sg78
g649
sg27
g71
sg15
S'US'
p1193
sS'casteCluster'
p1194
(lp1195
S'pillai'
p1196
asg46
g190
sS'baseCluster'
p1197
(lp1198
g211
asg25
S'9444242972 '
p1199
sg11
S'amalamurugesan@yahoo.com'
p1200
sg29
S'PILLAI'
p1201
sa(dp1202
S'baseCluster'
p1203
(lp1204
g24
asg60
g541
sg27
g142
sg9
g72
sg125
S'Chitthirai'
p1205
sg145
S'Box No:HB-1520,THE HINDU,Chennai-600 002.'
p1206
sS'casteCluster'
p1207
(lp1208
S'yadava'
p1209
asg46
S'MA MLIS'
p1210
sg15
g16
sS'astroCluster'
p1211
(lp1212
S'chitthirai'
p1213
asg5
g452
sg29
S'TAMIL YADAVA'
p1214
sa(dp1215
S'descCluster'
p1216
(lp1217
g34
ag35
asS'jobCluster'
p1218
(lp1219
S'sap consultant '
p1220
asg60
S'Devendrakula Velalar'
p1221
sg27
g28
sg13
S'SAP Consultant '
p1222
sg15
g205
sS'casteCluster'
p1223
(lp1224
g224
asS'baseCluster'
p1225
(lp1226
g211
asg25
S' 9710096492'
p1227
sg49
S'fair and beautiful'
p1228
sg5
S'same caste'
p1229
sg29
S'SC'
p1230
sa(dp1231
S'descCluster'
p1232
(lp1233
g35
ag593
asS'jobCluster'
p1234
(lp1235
g766
asg27
g71
sg9
g364
sg125
g445
sg13
g809
sS'casteCluster'
p1236
(lp1237
g632
asg46
S'MA, M.Phil (Ph.D)'
p1238
sS'astroCluster'
p1239
(lp1240
g451
asg25
S' 9443544405, 9442480323'
p1241
sg49
g1142
sg5
S'seeks BE/ME/M.Tech, Lecturer/any high post. Any Vellalar accepted.'
p1242
sg29
S'SAIVA VELLALA'
p1243
sa(dp1244
S'descCluster'
p1245
(lp1246
g35
asS'jobCluster'
p1247
(lp1248
g258
ag486
asg5
S'seeks professionally qualified boys from good family.'
p1249
sg9
g203
sg11
S'bala16arumuga@gmail.com'
p1250
sg13
S'Sr.SWE in IBM'
p1251
sg145
S'Box No. HB-1527, THE HINDU, Chennai-600 002.'
p1252
sS'casteCluster'
p1253
(lp1254
g224
asg15
g16
sS'baseCluster'
p1255
(lp1256
g24
asg78
g649
sg49
g152
sg27
g320
sg29
S'HINDU SC AD'
p1257
sa(dp1258
S'baseCluster'
p1259
(lp1260
g817
asS'jobCluster'
p1261
(lp1262
S'interior designer'
p1263
asg27
g28
sg9
g456
sg125
S'Moolam'
p1264
sg11
S'manibhr55@gmail.com'
p1265
sg13
S'Interior designer'
p1266
sg145
S'Box No. BA-172, THE HINDU, Bangalore-560001'
p1267
sS'casteCluster'
p1268
(lp1269
g224
asg15
g814
sS'astroCluster'
p1270
(lp1271
S'moolam'
p1272
asg78
g464
sg25
S'9900279063'
p1273
sg29
g1257
sa(dp1274
S'descCluster'
p1275
(lp1276
g56
asS'jobCluster'
p1277
(lp1278
g38
asg27
g511
sg9
S'161'
p1279
sg13
g42
sg15
g16
sS'casteCluster'
p1280
(lp1281
g19
asS'baseCluster'
p1282
(lp1283
g24
asg78
g177
sg49
g77
sg5
S'Hindu, Mudaliar, Pillai (Subsects Acceptable) Doctor Grooms'
p1284
sg29
S'INTERCASTE'
p1285
sa(dp1286
S'jobCluster'
p1287
(lp1288
g486
asg5
S'BE/MCA groom SWE preferable'
p1289
sg9
g203
sg27
g142
sg13
g490
sg15
g1067
sS'casteCluster'
p1290
(lp1291
g130
asg46
g225
sS'baseCluster'
p1292
(lp1293
g1072
asg78
g649
sg25
S'04565256491,9443501953'
p1294
sg29
g135
sa(dp1295
S'jobCluster'
p1296
(lp1297
g141
asS'incomeCluster'
p1298
(lp1299
g925
asg27
g220
sg11
S'sukumaranmadurai@gmail.com'
p1300
sg125
S'Visakam'
p1301
sg13
g144
sS'casteCluster'
p1302
(lp1303
S'chettiar'
p1304
asg92
S'40000PM'
p1305
sS'astroCluster'
p1306
(lp1307
S'visakam'
p1308
asg25
S' 9444358383,04428444751'
p1309
sg78
g649
sg29
S'CHETTIAR'
p1310
sa(dp1311
g60
S'PALLAR'
p1312
sg27
g71
sg9
g203
sg145
S'BHP Box No.HB-1541,THE HINDU, Chennai-2'
p1313
sS'casteCluster'
p1314
(lp1315
g91
asg15
g16
sS'baseCluster'
p1316
(lp1317
g24
asg78
g177
sg5
S'Seeks Doctor Engineer Officer having faith in Christianity'
p1318
sg29
g95
sa(dp1319
S'incomeCluster'
p1320
(lp1321
S'25lac/pa'
p1322
asg27
g71
sg145
S'Box No.HB-1543,THE HINDU,Chennai-600002'
p1323
sS'casteCluster'
p1324
(lp1325
g632
asg46
S'MS USA'
p1326
sg15
g205
sg92
S'25Lac/pa'
p1327
sS'baseCluster'
p1328
(lp1329
g211
asg78
g649
sg5
S'Vellalr/Pillai'
p1330
sg29
S'VELLALAR'
p1331
sa(dp1332
S'jobCluster'
p1333
(lp1334
S'cra in sbi'
p1335
asg27
g273
sg9
g550
sg125
g1264
sg13
S'CRA in SBI'
p1336
sS'casteCluster'
p1337
(lp1338
g1196
asg46
g112
sS'astroCluster'
p1339
(lp1340
g1272
asg25
S' -0431-2707169'
p1341
sg5
S'seeks groom Saiva Pillai/ Mudaliar- Professionally qualified'
p1342
sg29
S'SAIVA PILLAI'
p1343
sa(dp1344
S'jobCluster'
p1345
(lp1346
S'govt'
p1347
asg27
g320
sg9
g203
sg13
S'Cent. Govt. employee'
p1348
sS'casteCluster'
p1349
(lp1350
g695
asg46
g225
sg25
S'0462-2532107'
p1351
sg5
S'seeks educated employed groom.'
p1352
sg29
S'HINDU NADAR'
p1353
sa(dp1354
S'jobCluster'
p1355
(lp1356
g766
asg27
g179
sg9
g72
sg13
g809
sg145
S'Box No. HB-1550, THE HINDU, Chennai-600 002'
p1357
sS'casteCluster'
p1358
(lp1359
g224
asg15
S'Trichy'
p1360
sS'baseCluster'
p1361
(lp1362
S'trichy'
p1363
asg29
g1230
sa(dp1364
S'baseCluster'
p1365
(lp1366
g24
asS'jobCluster'
p1367
(lp1368
S's/w'
p1369
asg60
g541
sg288
g289
sg27
g220
sg7
g40
sg9
g642
sg125
S'Pooradam'
p1370
sg13
S'S/W'
p1371
sg145
S'Box No. HB-1552, THE HINDU Chennai-600002'
p1372
sS'casteCluster'
p1373
(lp1374
g1209
asg46
g225
sg15
g16
sS'astroCluster'
p1375
(lp1376
S'pooradam'
p1377
asg29
g1214
sa(dp1378
S'jobCluster'
p1379
(lp1380
g766
asg27
g179
sg125
S'Hastham'
p1381
sg13
S'lecturer'
p1382
sS'casteCluster'
p1383
(lp1384
S'hindu ad'
p1385
asg46
S'ME'
p1386
sS'astroCluster'
p1387
(lp1388
S'hastham'
p1389
asg25
S'9486432596'
p1390
sg5
S'seeks M.E'
p1391
sg29
S'HINDU AD'
p1392
sa(dp1393
S'descCluster'
p1394
(lp1395
g35
ag593
asS'jobCluster'
p1396
(lp1397
g999
ag486
asS'incomeCluster'
p1398
(lp1399
g753
asg27
g938
sg13
g1003
sg145
S'S.G.Durainadar'
p1400
sS'casteCluster'
p1401
(lp1402
g695
asg46
g112
sg92
g757
sg25
g981
sg49
S'Veryfair,Goodlooking'
p1403
sg78
g649
sg29
g1353
sa(dp1404
S'descCluster'
p1405
(lp1406
g56
asS'jobCluster'
p1407
(lp1408
g486
ag687
asS'incomeCluster'
p1409
(lp1410
S'27,000/p.m.'
p1411
asg60
g937
sg27
g938
sg13
g692
sg145
g937
sS'casteCluster'
p1412
(lp1413
g695
asg92
S'27,000/P.M.'
p1414
sg25
g941
sg49
g77
sg78
g250
sg29
g1353
sa(dp1415
S'descCluster'
p1416
(lp1417
g35
ag593
asg27
g511
sg145
S'S.G.DuraiNadar'
p1418
sS'casteCluster'
p1419
(lp1420
g695
asg25
g981
sg49
g993
sg78
g177
sg29
g1353
sa(dp1421
S'descCluster'
p1422
(lp1423
g35
ag593
asS'jobCluster'
p1424
(lp1425
g486
asS'incomeCluster'
p1426
(lp1427
S'25,000/pm '
p1428
asg27
g938
sg13
S'SWE in Honeywell Technology'
p1429
sg145
S'S.G.DuraiNadar,25,1st Cross Street,New Colony,Chromepet,Chennai-44'
p1430
sS'casteCluster'
p1431
(lp1432
g695
asg15
g16
sg92
S'25,000/pm '
p1433
sS'baseCluster'
p1434
(lp1435
g24
asg25
g981
sg49
g993
sg78
g649
sg29
g1353
sa(dp1436
S'descCluster'
p1437
(lp1438
g158
asS'jobCluster'
p1439
(lp1440
S'dctech amie'
p1441
asg27
g51
sg9
g336
sg13
S'DCTech AMIE'
p1442
sS'casteCluster'
p1443
(lp1444
g1196
asg25
S'9487443104'
p1445
sg49
g162
sg5
S'seeks same caste educated employed groom.'
p1446
sg29
g1343
sa(dp1447
S'descCluster'
p1448
(lp1449
S'with 3 years daughter'
p1450
asg60
S'Coimbatore'
p1451
sg5
S'seeks qualified widower/divorcee below 36 yrs'
p1452
sg11
S'ptv@stengineers.com'
p1453
sS'widower'
p1454
S'WIDOW '
p1455
sS'casteCluster'
p1456
(lp1457
S'thevar'
p1458
asg25
S'9842257362 '
p1459
sg49
S'with 3 years daughter'
p1460
sg27
g142
sg29
S'THEVAR'
p1461
sa(dp1462
S'jobCluster'
p1463
(lp1464
g1347
asg60
g541
sg27
g71
sg13
S'Central Govt'
p1465
sg15
S'Hubli'
p1466
sS'casteCluster'
p1467
(lp1468
g224
asS'baseCluster'
p1469
(lp1470
S'hubli'
p1471
asg25
S' 04842235440,09746018611'
p1472
sg5
S'preferably Central Govt'
p1473
sg29
g1230
sa(dp1474
S'descCluster'
p1475
(lp1476
g35
asS'incomeCluster'
p1477
(lp1478
S'3l pa'
p1479
asg27
g71
sg9
g456
sS'casteCluster'
p1480
(lp1481
S'hindu pallan'
p1482
asg46
g1386
sg92
S'3L PA'
p1483
sg25
S' 04562-252621, 9894322927'
p1484
sg49
g152
sg5
S'seeks Govt.Officers/Eng professional/Doctors'
p1485
sg29
S'HINDU PALLAN'
p1486
sa(dp1487
S'descCluster'
p1488
(lp1489
g35
asS'baseCluster'
p1490
(lp1491
g1072
asS'jobCluster'
p1492
(lp1493
g486
asg5
S'bel 38 Emp'
p1494
sg125
g219
sg27
g97
sg13
S'SW'
p1495
sg15
g1067
sS'casteCluster'
p1496
(lp1497
g224
asS'astroCluster'
p1498
(lp1499
g228
asg78
g116
sg49
g152
sg25
S' 044-26502364,-09176473905'
p1500
sg29
S'SC AD'
p1501
sa(dp1502
S'descCluster'
p1503
(lp1504
S'veg'
p1505
asS'jobCluster'
p1506
(lp1507
g960
asg27
g179
sg9
g364
sg13
g964
sg15
g16
sS'casteCluster'
p1508
(lp1509
g632
asg46
g798
sS'baseCluster'
p1510
(lp1511
g24
asg25
S' 09443525476,0435-2431212'
p1512
sg49
S'Veg'
p1513
sg5
S'Seeks profnally qualified Groom.'
p1514
sg29
S'SOZHIYA VELLALAR'
p1515
sa(dp1516
S'jobCluster'
p1517
(lp1518
g766
asg27
g51
sg9
g364
sg13
g809
sS'casteCluster'
p1519
(lp1520
S'valluvan'
p1521
asg46
g1386
sg25
S' 9245453396, 9715407258'
p1522
sg5
S'Engineer'
p1523
sg29
S'HINDU VALLUVAN'
p1524
sa(dp1525
S'descCluster'
p1526
(lp1527
g35
asg27
g273
sg9
g203
sg125
S'Barani'
p1528
sS'casteCluster'
p1529
(lp1530
S'vishwakarma'
p1531
asg46
g112
sS'astroCluster'
p1532
(lp1533
S'barani'
p1534
asg25
S'9994422978'
p1535
sg49
g152
sg5
S'seeks professional employed graduate.'
p1536
sg29
S'VISHWAKARMA'
p1537
sa(dp1538
S'descCluster'
p1539
(lp1540
S'attractive'
p1541
asS'incomeCluster'
p1542
(lp1543
S'15,000'
p1544
asg27
g179
sg145
S'Box No. HB-1581, THE HINDU, Chennai-600002'
p1545
sS'casteCluster'
p1546
(lp1547
g224
asg46
g112
sg15
g16
sg92
S'15,000'
p1548
sS'baseCluster'
p1549
(lp1550
g24
asg78
g649
sg49
S'attractive'
p1551
sg5
S'any Prof.Subsect'
p1552
sg29
g1230
sa(dp1553
S'descCluster'
p1554
(lp1555
g35
asg27
g142
sg9
g185
sg125
S'Ayilyam'
p1556
sS'casteCluster'
p1557
(lp1558
g75
asg46
S'Msc (P.hd Bio-Tech)'
p1559
sS'astroCluster'
p1560
(lp1561
S'ayilyam'
p1562
asg25
S'9994361542, 0416-2261229'
p1563
sg49
g267
sg29
S'MUDALIAR'
p1564
sa(dp1565
S'jobCluster'
p1566
(lp1567
g1012
asS'incomeCluster'
p1568
(lp1569
g925
asg60
S'Hindu'
p1570
sg27
g179
sg125
g1381
sg13
S'Infosys as PA'
p1571
sg145
S'Box No. HB-1585, THE HINDU, Chennai-600002'
p1572
sS'casteCluster'
p1573
(lp1574
g224
asg92
g930
sS'astroCluster'
p1575
(lp1576
g1389
asg78
S'B.E'
p1577
sg5
S'seeks Profession/Govt/Bank employed'
p1578
sg29
g1501
sa(dp1579
S'baseCluster'
p1580
(lp1581
g24
asS'jobCluster'
p1582
(lp1583
g687
asg60
S'HINDU'
p1584
sg27
g179
sg9
g185
sg125
g512
sg13
S'TCS'
p1585
sg145
S'Box No. HB-1586, THE HINDU, Chennai-600002.'
p1586
sS'casteCluster'
p1587
(lp1588
g224
asg15
g16
sS'astroCluster'
p1589
(lp1590
g519
asg78
g649
sg29
g1230
sa(dp1591
S'descCluster'
p1592
(lp1593
g1505
asg27
g337
sg9
g203
sg145
S'Box No HB-1587 THE HINDU Chennai-600002'
p1594
sS'casteCluster'
p1595
(lp1596
g75
asg46
S'MCom'
p1597
sg15
g16
sS'baseCluster'
p1598
(lp1599
g24
asg49
g1513
sg5
S'seeks any Mudaliar/Pillai Empl UG/PG Groom Pref Veg'
p1600
sg29
S'MUDALIAR SENGUNTHAR'
p1601
sa(dp1602
S'jobCluster'
p1603
(lp1604
g687
asS'incomeCluster'
p1605
(lp1606
S'20k'
p1607
asg27
g28
sg9
g203
sg13
g1585
sg15
g814
sS'casteCluster'
p1608
(lp1609
g1385
asg46
g112
sg92
S'20K PM'
p1610
sS'baseCluster'
p1611
(lp1612
g817
asg25
S' 080-65838590, 9845383016'
p1613
sg78
g116
sg29
g1392
sa(dp1614
S'descCluster'
p1615
(lp1616
g593
asg288
g288
sg5
S'well qualifed and well placed goodlooking groom below 30yrs. from the same caste'
p1617
sg9
g241
sg125
g1264
sg27
g273
sS'casteCluster'
p1618
(lp1619
g75
asS'astroCluster'
p1620
(lp1621
g1272
asg78
g116
sg49
S'goodlooking'
p1622
sg25
S'09912161284'
p1623
sg29
g1564
sa(dp1624
g288
g502
sg27
g337
sg78
g857
sS'casteCluster'
p1625
(lp1626
S'naidu'
p1627
asg46
g112
sg25
S' 09884456175'
p1628
sg5
S'Seeks BE MBA well placed Groom'
p1629
sg29
S'NAIDU'
p1630
sa(dp1631
S'descCluster'
p1632
(lp1633
g35
asS'jobCluster'
p1634
(lp1635
S'hr'
p1636
asg60
g1584
sg5
S'seeks professional groom, age below 45, from decent family, Caste no bar'
p1637
sg9
g739
sg11
S'ice.gkmoorthy@gmail.com'
p1638
sg13
S'HR'
p1639
sg46
g813
sg25
S'9789666486'
p1640
sg27
S'41'
p1641
sg49
g152
sa(dp1642
S'descCluster'
p1643
(lp1644
g35
ag593
asS'baseCluster'
p1645
(lp1646
g24
asS'jobCluster'
p1647
(lp1648
g1636
asg60
S'parents Doctors'
p1649
sg27
g142
sg9
g550
sg125
S'Uthiradam'
p1650
sg13
S'HRD'
p1651
sg145
S'Box No:HB-1593 THE HINDU Chennai-600002'
p1652
sS'casteCluster'
p1653
(lp1654
g224
asg46
g898
sg15
g16
sS'astroCluster'
p1655
(lp1656
S'uthiradam'
p1657
asg25
S'09840783625'
p1658
sg49
g1142
sg29
g1257
sa(dp1659
S'jobCluster'
p1660
(lp1661
g486
asS'incomeCluster'
p1662
(lp1663
S'3lpa'
p1664
asg27
g142
sg13
g490
sS'casteCluster'
p1665
(lp1666
S'veerasaivam'
p1667
asg92
S'3LPA'
p1668
sg25
S' 09840494397,044-28144850'
p1669
sg29
S'VEERASAIVAM'
p1670
sa(dp1671
S'jobCluster'
p1672
(lp1673
g141
asg60
g1584
sg5
S'seeks Qualified Groom.'
p1674
sg145
S'Box No HB-1594 THE HINDU Chennai-600002'
p1675
sg27
g142
sg13
g144
sg15
g16
sS'casteCluster'
p1676
(lp1677
g632
asS'baseCluster'
p1678
(lp1679
g24
asg78
S'BCA'
p1680
sg9
S'149'
p1681
sg11
S'chandraan51@yahoo.com'
p1682
sg29
S'SOZHIYA VELLALA'
p1683
sa(dp1684
S'descCluster'
p1685
(lp1686
g56
asS'jobCluster'
p1687
(lp1688
g724
ag486
asg27
g71
sg78
g250
sg9
g185
sg11
S'sbas2004@yahoo.com'
p1689
sg13
S'SWE CTS'
p1690
sS'casteCluster'
p1691
(lp1692
S'agamudayar'
p1693
asg25
S' 0422-2445202'
p1694
sg49
g907
sg5
S'seeks BE/ME boys from any subcaste'
p1695
sg29
S'AGAMUDAYAR'
p1696
sa(dp1697
S'descCluster'
p1698
(lp1699
g35
asS'baseCluster'
p1700
(lp1701
g211
asS'jobCluster'
p1702
(lp1703
g486
asg60
g1584
sg27
g28
sg7
g40
sg9
g583
sg125
g167
sg13
g490
sg145
S'Paramasivam 139A Gandi Salai Chingleput2 9444914769'
p1704
sS'casteCluster'
p1705
(lp1706
g695
asg15
g205
sS'astroCluster'
p1707
(lp1708
g176
asg25
S'2 9444914769'
p1709
sg49
g152
sg29
g1353
sa(dp1710
S'jobCluster'
p1711
(lp1712
S'lectr'
p1713
asg60
g1584
sg27
g320
sg9
g808
sg125
S'Punarpoosam'
p1714
sg13
S'Lectr'
p1715
sS'casteCluster'
p1716
(lp1717
S'kallar'
p1718
asg46
S'MSc MPhil'
p1719
sS'astroCluster'
p1720
(lp1721
g519
asg25
S' 9486332005'
p1722
sg5
S'Seeks Equaly Qualified Groom'
p1723
sg29
S'HINDU KALLAR'
p1724
sa(dp1725
S'descCluster'
p1726
(lp1727
g35
ag560
asS'jobCluster'
p1728
(lp1729
g874
asS'incomeCluster'
p1730
(lp1731
S'25000'
p1732
asg27
g337
sg9
g10
sg125
S'Mirugashisham Rishabam'
p1733
sg13
g876
sS'casteCluster'
p1734
(lp1735
S'vanniar'
p1736
asg46
S'Ph.d'
p1737
sg92
S'25000'
p1738
sS'astroCluster'
p1739
(lp1740
S'mirugashisham rishabam'
p1741
asg25
S' 9865432105, 9791551443'
p1742
sg49
S'slim fair'
p1743
sg29
S'VANNIAR'
p1744
sa(dp1745
S'jobCluster'
p1746
(lp1747
g486
asS'incomeCluster'
p1748
(lp1749
S'30000pm '
p1750
asg5
g426
sg27
g142
sg13
g490
sg15
g16
sS'casteCluster'
p1751
(lp1752
g1667
asg92
S'30000pm '
p1753
sS'baseCluster'
p1754
(lp1755
g24
asg25
S'044-28144850'
p1756
sg78
g496
sg29
g1670
sa(dp1757
S'jobCluster'
p1758
(lp1759
g333
asS'incomeCluster'
p1760
(lp1761
S'20000pm'
p1762
asg27
g142
sg9
g642
sg125
g445
sg13
g830
sS'casteCluster'
p1763
(lp1764
g1693
asg46
g798
sg92
S'20000pm'
p1765
sS'astroCluster'
p1766
(lp1767
g451
asg25
S' 0422-4397233, 9994347010'
p1768
sg5
S'seeks BE/MCA/MBA empld groom'
p1769
sg29
g1696
sa(dp1770
S'baseCluster'
p1771
(lp1772
g24
asS'jobCluster'
p1773
(lp1774
g486
asg60
g1584
sg27
g142
sg9
g364
sg125
S'Uthiram'
p1775
sg13
g490
sg145
S'Box No.HB-1601 THE HINDU Chennai-600002.'
p1776
sS'casteCluster'
p1777
(lp1778
g130
asg15
g16
sS'astroCluster'
p1779
(lp1780
S'uthiram'
p1781
asg78
g649
sg5
S'seeks Professional Groom.'
p1782
sg29
g135
sa(dp1783
S'descCluster'
p1784
(lp1785
g35
ag560
asS'jobCluster'
p1786
(lp1787
g38
asg60
g541
sg27
g88
sg9
g241
sg13
g42
sg15
g1193
sS'casteCluster'
p1788
(lp1789
g1736
asS'baseCluster'
p1790
(lp1791
g211
asg25
S' 09894769265'
p1792
sg49
S'fair slim'
p1793
sg5
S'Engineer/Doctor groom in US. Girl is now in US. Caste no bar'
p1794
sg29
S'TAMIL HINDU Vanniar'
p1795
sa(dp1796
S'jobCluster'
p1797
(lp1798
g59
asg60
g1584
sg27
g179
sg7
g40
sg9
g72
sg13
g62
sS'casteCluster'
p1799
(lp1800
g224
asg46
g1386
sg25
S' 9444870915'
p1801
sg5
S'employed Groom any professional'
p1802
sg29
g1257
sa(dp1803
S'descCluster'
p1804
(lp1805
g35
asg60
g1584
sg27
g71
sg9
g642
sg145
S'Plot '
p1806
sS'casteCluster'
p1807
(lp1808
g695
asg25
S'-66 988418884,9444687454'
p1809
sg49
g267
sg78
g177
sg29
g891
sa(dp1810
S'descCluster'
p1811
(lp1812
g56
asg49
g907
sS'jobCluster'
p1813
(lp1814
g141
asg60
g1584
sg5
S'seeks good looking PG/Engg. graduate bridegroom from same caste'
p1815
sg9
g550
sg11
S'kspsivam7446@gmail.com'
p1816
sg13
g144
sS'casteCluster'
p1817
(lp1818
g224
asg46
g101
sg78
g649
sg25
S' 9444734646'
p1819
sg27
g273
sg29
g1230
sa(dp1820
S'descCluster'
p1821
(lp1822
g35
ag593
asS'jobCluster'
p1823
(lp1824
g59
asg27
g88
sg9
g383
sg13
g62
sg145
S'Box No.The Hindu,HB-1623,Chennai-600002. Ph'
p1825
sS'casteCluster'
p1826
(lp1827
g1693
asg46
g898
sg15
g16
sS'baseCluster'
p1828
(lp1829
g24
asg25
S'04312531689, 9003575407'
p1830
sg49
g1142
sg5
S'seeks well employed Professional from decent family.'
p1831
sg29
g1696
sa(dp1832
g27
g179
sg78
g857
sg9
g456
sg11
S'renub.blr@gmail.com'
p1833
sS'casteCluster'
p1834
(lp1835
g632
asg25
S' 080-26890066'
p1836
sg5
S'BE/PG well Empd groom'
p1837
sg29
S'SOZHIA VELLALAR'
p1838
sa(dp1839
S'descCluster'
p1840
(lp1841
g35
asg60
g1584
sg27
g179
sg9
g203
sg125
S'Visagam'
p1842
sS'casteCluster'
p1843
(lp1844
g224
asg46
g798
sS'astroCluster'
p1845
(lp1846
S'visagam'
p1847
asg25
S' 9688712008'
p1848
sg49
g152
sg5
S'Seeks suitable Groom.'
p1849
sg29
g1230
sa(dp1850
S'jobCluster'
p1851
(lp1852
g874
asg60
S'hailing from Dindigul'
p1853
sg27
g307
sg9
g739
sg13
g876
sg145
S'Box No.ND-47, THE HINDU, INS bldg, Rafi Marg, New Delhi-1.'
p1854
sS'casteCluster'
p1855
(lp1856
g1736
asg46
g813
sg15
g366
sS'baseCluster'
p1857
(lp1858
g161
asg78
g801
sg29
g1744
sa(dp1859
S'baseCluster'
p1860
(lp1861
S'mumbai'
p1862
asS'jobCluster'
p1863
(lp1864
g486
asS'incomeCluster'
p1865
(lp1866
S'3.56 lac p/a'
p1867
asg27
g179
sg9
g642
sg125
g1714
sg13
g490
sg15
S'Mumbai'
p1868
sS'casteCluster'
p1869
(lp1870
g224
asg46
g1386
sg92
S'3.56 Lac P/A'
p1871
sS'astroCluster'
p1872
(lp1873
g519
asg25
S' 9442572214'
p1874
sg29
g1230
sa(dp1875
S'descCluster'
p1876
(lp1877
g34
asS'baseCluster'
p1878
(lp1879
S'hyderabad'
p1880
asS'incomeCluster'
p1881
(lp1882
S'30kpm'
p1883
asg49
g212
sg5
S'seeks suitable qlfd boy decent family.'
p1884
sg9
g72
sg125
S'Punarposam'
p1885
sg11
S'vijaysadras@gmail.com'
p1886
sg145
S'Box No.HY-101 THE HINDU Hyderabad-500016.'
p1887
sS'casteCluster'
p1888
(lp1889
g75
asg15
S'Hyderabad'
p1890
sg92
S'30kpm'
p1891
sS'astroCluster'
p1892
(lp1893
S'punarposam'
p1894
asg78
g116
sg25
S'04027966100 '
p1895
sg27
g142
sg29
S'TV MUDALIAR'
p1896
sa(dp1897
S'jobCluster'
p1898
(lp1899
g141
ag486
asg60
g1584
sg27
g179
sg9
g1279
sg125
S'Swathi '
p1900
sg13
S'Sr. SWE, MNC'
p1901
sg145
S'Box No'
p1902
sS'casteCluster'
p1903
(lp1904
S'hindu maruthuvar'
p1905
asS'astroCluster'
p1906
(lp1907
S'swathi '
p1908
asg78
g1577
sg5
S'seeks employed groom in the same community.'
p1909
sg29
S'HINDU MARUTHUVAR'
p1910
sa(dp1911
S'descCluster'
p1912
(lp1913
g35
asS'jobCluster'
p1914
(lp1915
g38
asg27
g220
sg9
g185
sg13
g42
sS'casteCluster'
p1916
(lp1917
g1385
asg46
g854
sg25
S' 9840029469, 9677117638'
p1918
sg49
g152
sg5
S'seeks Class I Officers/ Doctors'
p1919
sg29
g1392
sa(dp1920
S'descCluster'
p1921
(lp1922
g35
asg27
g179
sg9
g383
sS'casteCluster'
p1923
(lp1924
g1196
asg25
S' 044-24745349, 9445326094'
p1925
sg49
g152
sg78
g116
sg29
g1201
sa(dp1926
S'descCluster'
p1927
(lp1928
g158
asS'jobCluster'
p1929
(lp1930
g486
asg27
g28
sg9
g364
sg125
S'Uttaram'
p1931
sg11
S'sashikumar_2001@yahoo.com'
p1932
sg13
g1495
sS'casteCluster'
p1933
(lp1934
S'mudaliyar'
p1935
asS'astroCluster'
p1936
(lp1937
S'uttaram'
p1938
asg25
S' 080-41656698, 09341916061'
p1939
sg49
g162
sg78
g229
sg29
S'MUDALIYAR'
p1940
sa(dp1941
S'descCluster'
p1942
(lp1943
g35
ag56
asg288
g289
sg27
g179
sg9
g185
sg145
S'Box No.KR42100, THE HINDU, Chennai-600002.'
p1944
sS'casteCluster'
p1945
(lp1946
S'devar'
p1947
asg78
g649
sg49
S'Good Looking Fair,Broadminded had Problem Health Wise Now Alright'
p1948
sg29
S'DEVAR'
p1949
sa(dp1950
g60
S'Affluent'
p1951
sg27
g71
sg9
g364
sg11
S'srnathan83@gmail.com'
p1952
sS'casteCluster'
p1953
(lp1954
S'parkavakula nathaman'
p1955
asg46
g112
sg25
S' 98410 95765'
p1956
sg78
g649
sg29
S'PARKAVAKULA NATHAMAN'
p1957
sa(dp1958
S'jobCluster'
p1959
(lp1960
g766
asg60
S'Keralite'
p1961
sg5
S'seeks well qualified Chennai based groom.'
p1962
sg9
g336
sg11
S'trtabi@gmail.com'
p1963
sg13
g809
sg15
g16
sS'baseCluster'
p1964
(lp1965
g24
asg46
S'MSc, PhD'
p1966
sg25
S' 9444213048'
p1967
sg27
g320
sa(dp1968
S'jobCluster'
p1969
(lp1970
g333
asS'incomeCluster'
p1971
(lp1972
g1732
asg60
g541
sg27
g337
sg9
g185
sg13
g830
sg145
S'Govindachari '
p1973
sS'casteCluster'
p1974
(lp1975
g130
asg46
S'M.Sc., PGDCDM'
p1976
sg15
g814
sg92
g1738
sS'baseCluster'
p1977
(lp1978
g817
asg25
S'080-28564330'
p1979
sg5
S'PG employed from same caste, Tamil, Telugu, Kannada'
p1980
sg29
S'TAMIL VISWAKARMA'
p1981
sa(dp1982
g27
g337
sg78
g649
sg9
g336
sg125
S'Ayilyam-4'
p1983
sS'casteCluster'
p1984
(lp1985
S'aiyar'
p1986
asS'astroCluster'
p1987
(lp1988
g1562
asg25
S' 044-28445111, 9840854004'
p1989
sg5
S'seeks well settled Prof.'
p1990
sg29
S'AIYAR'
p1991
sa(dp1992
S'baseCluster'
p1993
(lp1994
g24
asS'incomeCluster'
p1995
(lp1996
S'50k pm'
p1997
asg27
g320
sg125
S'Pooram'
p1998
sg145
S'Box No.HB-1651, THE HINDU, Chennai-600002'
p1999
sS'casteCluster'
p2000
(lp2001
g1693
asg46
g225
sg15
g16
sg92
S'50K PM'
p2002
sS'astroCluster'
p2003
(lp2004
S'pooram'
p2005
asg5
S'seeks PG'
p2006
sg29
g1696
sa(dp2007
S'descCluster'
p2008
(lp2009
g1505
asg27
g320
sg125
g512
sS'casteCluster'
p2010
(lp2011
g1196
asg46
g190
sS'astroCluster'
p2012
(lp2013
g519
asg25
S' 04374-243880'
p2014
sg49
g1513
sg5
S'Professionally Qualified Groom Saiva Pillai / Mudhaliar Veg Only'
p2015
sg29
g1343
sa(dp2016
S'jobCluster'
p2017
(lp2018
g486
ag687
asg60
g1451
sg27
g142
sg7
g40
sg9
g383
sg13
S'SWE TCS'
p2019
sg145
S'Box No. CB-354, THE HINDU, Coimbatore-641 018.'
p2020
sS'casteCluster'
p2021
(lp2022
g224
asg15
g814
sS'baseCluster'
p2023
(lp2024
g817
asg78
g649
sg29
g1501
sa(dp2025
S'descCluster'
p2026
(lp2027
g35
asS'jobCluster'
p2028
(lp2029
g874
asS'incomeCluster'
p2030
(lp2031
S'16000 pm'
p2032
asg5
g1229
sg9
S'148'
p2033
sg27
g179
sg13
g876
sS'casteCluster'
p2034
(lp2035
g1521
ag224
asg92
S'16000 pm'
p2036
sg78
g464
sg49
g152
sg25
S' 9865002001'
p2037
sg29
S'VALLUVAN SC'
p2038
sa(dp2039
S'descCluster'
p2040
(lp2041
S'wheat complexion'
p2042
asS'baseCluster'
p2043
(lp2044
g817
asg60
g1584
sg5
S'Groom (Salaried Person) from good family background Tamil/ Kannada'
p2045
sg9
g203
sg125
S'ROHINI'
p2046
sg27
g220
sg145
S'Box No. BA- 184, THE HINDU, Bangalore-560001.'
p2047
sS'casteCluster'
p2048
(lp2049
g75
asg46
g112
sg15
g814
sS'astroCluster'
p2050
(lp2051
g371
asg78
g116
sg49
S'wheat complexion'
p2052
sg25
S'080-26686434 '
p2053
sg29
g1564
sa(dp2054
S'baseCluster'
p2055
(lp2056
g24
asS'jobCluster'
p2057
(lp2058
g59
asg27
g97
sg9
g185
sg125
S'POORAM'
p2059
sg13
g62
sg145
S'Box No.HB-1653, THE HINDU, Chennai-600002.'
p2060
sS'casteCluster'
p2061
(lp2062
S'vanniyar'
p2063
asg46
S'LLB'
p2064
sg15
g16
sS'astroCluster'
p2065
(lp2066
g2005
asg78
g464
sg5
S'seeks qualified employed.'
p2067
sg29
S'VANNIYAR'
p2068
sa(dp2069
S'descCluster'
p2070
(lp2071
g35
asS'baseCluster'
p2072
(lp2073
g24
asg27
g320
sg9
g185
sg125
g1775
sg145
S'Box No.HB-1660 THE HINDU Chennai-600002'
p2074
sS'casteCluster'
p2075
(lp2076
g75
asg15
g16
sS'astroCluster'
p2077
(lp2078
g1781
asg29
g1564
sg49
g267
sa(dp2079
S'jobCluster'
p2080
(lp2081
S'symbiosis'
p2082
asg60
g1570
sg5
S'BE MBA MS'
p2083
sg9
g642
sg125
g445
sg27
g179
sg13
S'Symbiosis'
p2084
sg15
S'Pune'
p2085
sS'baseCluster'
p2086
(lp2087
S'pune'
p2088
asg46
g112
sS'astroCluster'
p2089
(lp2090
g451
asg78
g649
sg25
S' 9840314846'
p2091
sa(dp2092
S'descCluster'
p2093
(lp2094
g35
asg27
g71
sg15
g570
sS'casteCluster'
p2095
(lp2096
g695
asS'baseCluster'
p2097
(lp2098
g24
asg25
S'- 0-984092533'
p2099
sg29
S'NADAR GRAMINI'
p2100
sg49
g267
sa(dp2101
S'baseCluster'
p2102
(lp2103
g817
asS'jobCluster'
p2104
(lp2105
g486
ag687
asg27
g220
sg9
g203
sg125
S'Bharani'
p2106
sg13
S'SSWE(TCS)'
p2107
sg15
g814
sS'casteCluster'
p2108
(lp2109
g130
asS'astroCluster'
p2110
(lp2111
S'bharani'
p2112
asg25
S' 09449820834 , 08026682125'
p2113
sg78
g649
sg29
g1981
sa(dp2114
S'incomeCluster'
p2115
(lp2116
S'15000'
p2117
asg27
g71
sS'casteCluster'
p2118
(lp2119
S'adidravida'
p2120
asg46
g112
sg92
S'15000'
p2121
sg25
S' 09449813541'
p2122
sg29
S'ADIDRAVIDA'
p2123
sa(dp2124
S'descCluster'
p2125
(lp2126
S'attractv'
p2127
asS'jobCluster'
p2128
(lp2129
g486
asS'incomeCluster'
p2130
(lp2131
g1732
asg60
g1584
sg27
g51
sg145
S'Box No.HB-1662 THE HINDU Chennai-600002'
p2132
sg13
g490
sg15
g16
sS'casteCluster'
p2133
(lp2134
g224
asg46
g225
sg92
g1738
sS'baseCluster'
p2135
(lp2136
g24
asg49
S'attractv'
p2137
sg5
S'ny Prof Groom Caste NoBar'
p2138
sg29
g1230
sa(dp2139
S'jobCluster'
p2140
(lp2141
g960
asS'incomeCluster'
p2142
(lp2143
S'30 kpm'
p2144
asg27
g179
sg9
g203
sg13
g964
sg15
g1067
sS'casteCluster'
p2145
(lp2146
g1935
asg92
S'30 kpm'
p2147
sS'baseCluster'
p2148
(lp2149
g1072
asg25
S' 044-28150775,6 9381858244 ,0422-6547744 ,080-23343743'
p2150
sg78
g649
sg29
g1940
sa(dp2151
S'jobCluster'
p2152
(lp2153
g38
asg60
g1584
sg27
g71
sg13
g42
sg145
S'Box No HB-1663 THE HINDU Chennai-600002'
p2154
sS'casteCluster'
p2155
(lp2156
S'a.d'
p2157
asg78
g177
sg5
S'PG/UG Doctor'
p2158
sg29
g40
sa(dp2159
S'jobCluster'
p2160
(lp2161
g874
asg27
g97
sg9
g661
sg13
g876
sS'casteCluster'
p2162
(lp2163
S'agamudiar'
p2164
asg46
g898
sg25
S' 9842053760'
p2165
sg29
S'AGAMUDIAR'
p2166
sa(dp2167
S'descCluster'
p2168
(lp2169
g35
ag560
ag593
asg60
g1584
sg27
g97
sg9
g364
sg125
g1775
sg145
S'Box No. MA-252, THE HINDU, Madurai-625020.'
p2170
sS'casteCluster'
p2171
(lp2172
g695
asg46
S'MA, MPhil'
p2173
sS'astroCluster'
p2174
(lp2175
g1781
asg49
S'fair slim goodlooking '
p2176
sg5
S'seeks suitable educated groom.'
p2177
sg29
g1353
sa(dp2178
S'descCluster'
p2179
(lp2180
g35
asg5
S'seeks suitable Bridegroom.'
p2181
sg9
g336
sg125
g512
sg27
g123
sS'casteCluster'
p2182
(lp2183
g1521
asg46
g112
sS'astroCluster'
p2184
(lp2185
g519
asg25
S' 09597268162'
p2186
sg49
g267
sg78
g464
sg29
S'VALLUVAN'
p2187
sa(dp2188
g27
g28
sg9
g72
sg125
S'Aswini'
p2189
sS'casteCluster'
p2190
(lp2191
g75
asg46
g1597
sS'astroCluster'
p2192
(lp2193
S'aswini'
p2194
asg25
S' 09884594259'
p2195
sg29
g1564
sa(dp2196
S'jobCluster'
p2197
(lp2198
S'special educator'
p2199
asg27
g220
sg9
g185
sg125
g1381
sg13
S'Special Educator'
p2200
sS'casteCluster'
p2201
(lp2202
g75
asg46
g898
sS'astroCluster'
p2203
(lp2204
g1389
asg25
S' 09840120601,044-28150738'
p2205
sg5
S'Sub sect No Bar'
p2206
sg29
g1564
sa(dp2207
S'descCluster'
p2208
(lp2209
g1505
asS'baseCluster'
p2210
(lp2211
S'uk'
p2212
asS'jobCluster'
p2213
(lp2214
S'nursing'
p2215
asg5
S'below 37.Vegetarians preferred'
p2216
sg9
g10
sg125
S'ASHWINI'
p2217
sg11
S'mahu_08@yahoo.co.in'
p2218
sg13
S'Nursing'
p2219
sg145
S'Box No.WW56887, THE HINDU, Chennai-600002.'
p2220
sS'casteCluster'
p2221
(lp2222
g75
asg15
S'UK'
p2223
sS'astroCluster'
p2224
(lp2225
S'ashwini'
p2226
asg78
g857
sg49
g1513
sg27
g97
sg29
S'SAIVAMUDALIAR'
p2227
sa(dp2228
S'descCluster'
p2229
(lp2230
g593
asS'jobCluster'
p2231
(lp2232
g486
asS'incomeCluster'
p2233
(lp2234
g727
asg60
g1584
sg27
g938
sg13
S'SWE in Oracle India'
p2235
sg145
S'Box No.1666, THE HINDU, Chennai-600002.'
p2236
sS'casteCluster'
p2237
(lp2238
g695
asg92
g732
sg78
g953
sg49
g1622
sg29
g1353
sa(dp2239
S'descCluster'
p2240
(lp2241
g158
asS'jobCluster'
p2242
(lp2243
g184
asg5
S'seeks engineering groom same caste age below 27 yrs'
p2244
sg9
g203
sg125
g1370
sg27
g938
sg13
g186
sS'casteCluster'
p2245
(lp2246
S'vanniyakula kshatriya'
p2247
asS'astroCluster'
p2248
(lp2249
g1377
asg25
S'97911-66204, 044-24801634'
p2250
sg49
g1060
sg78
g250
sg29
S'VANNIYAKULA KSHATRIYA'
p2251
sa(dp2252
g27
g88
sg78
g343
sg9
g72
sg125
g1264
sS'casteCluster'
p2253
(lp2254
g632
asS'astroCluster'
p2255
(lp2256
g1272
asg25
S' 0-9789827269'
p2257
sg5
S'seeks Profly Qlfd Groom,Age 31-35'
p2258
sg29
S'KONGU VELLALA Gounder'
p2259
sa(dp2260
S'descCluster'
p2261
(lp2262
g35
ag560
ag1505
asS'jobCluster'
p2263
(lp2264
g1636
asg5
g1674
sg9
g456
sg11
S'kanagamrl@gmail.com'
p2265
sg13
g1639
sg145
S'Box No.ZM61602, THE HINDU, Chennai-600002.'
p2266
sS'casteCluster'
p2267
(lp2268
g75
asg49
S'Fair/Slim, NonVeg '
p2269
sg27
g337
sg29
g1564
sa(dp2270
S'jobCluster'
p2271
(lp2272
g486
asS'incomeCluster'
p2273
(lp2274
g1750
asg60
g1584
sg288
g288
sg27
g220
sg9
g185
sg13
g490
sg15
g16
sS'casteCluster'
p2275
(lp2276
g1385
asg92
g1753
sS'baseCluster'
p2277
(lp2278
g24
asg25
S' 0-9444144973'
p2279
sg78
g857
sg29
g1392
sa(dp2280
S'jobCluster'
p2281
(lp2282
g766
asg288
g289
sg27
g97
sg9
g336
sg13
g809
sg15
g1067
sS'casteCluster'
p2283
(lp2284
g1304
asS'baseCluster'
p2285
(lp2286
g1072
asg25
S'9884362065,044-22316051'
p2287
sg5
S'same Caste Boy'
p2288
sg29
g1310
sa(dp2289
S'baseCluster'
p2290
(lp2291
g24
asg27
g28
sg9
g203
sg125
S'Anusham'
p2292
sg15
g16
sS'casteCluster'
p2293
(lp2294
g1304
asS'astroCluster'
p2295
(lp2296
S'anusham'
p2297
asg25
S' 09884362065,044-22316051'
p2298
sg29
g1310
sa(dp2299
S'jobCluster'
p2300
(lp2301
g1347
asS'incomeCluster'
p2302
(lp2303
S'22000/-'
p2304
asg5
S'seeks Prof.Qualified/PG Groom below 36 employed in Chennai'
p2305
sg9
g72
sg11
S'kavi_adam_88@rocketmail.com'
p2306
sg13
S'Govt'
p2307
sg145
S'Box No.ZM61611, THE HINDU, Chennai-600002. Ct'
p2308
sS'casteCluster'
p2309
(lp2310
g1196
asg46
g225
sg15
g16
sg92
S'22000/-'
p2311
sS'baseCluster'
p2312
(lp2313
g24
asg25
S'09176445009, 044-22672069'
p2314
sg27
g51
sg29
g1201
sa(dp2315
S'descCluster'
p2316
(lp2317
g35
asg27
g273
sg9
g583
sg125
g1650
sS'casteCluster'
p2318
(lp2319
g1935
asg46
g225
sS'astroCluster'
p2320
(lp2321
g1657
asg25
S' 09840725330'
p2322
sg49
g267
sg5
S'seeks Qlfd Empd boy from Good Family.'
p2323
sg29
S'SENGUNTHA MUDALIYAR'
p2324
sa(dp2325
S'jobCluster'
p2326
(lp2327
g38
asg5
S'Seeks Doctor Groom from Same Caste.'
p2328
sg9
g72
sg125
g290
sg27
g320
sg13
g42
sS'casteCluster'
p2329
(lp2330
g224
asS'astroCluster'
p2331
(lp2332
g297
asg25
S'0-9444269672'
p2333
sg78
g177
sg29
g1257
sa(dp2334
S'descCluster'
p2335
(lp2336
g158
asS'baseCluster'
p2337
(lp2338
g24
asg27
g97
sg9
g72
sg125
g167
sg15
g16
sS'casteCluster'
p2339
(lp2340
g224
asg46
S'M.Sc (Genetics) PGD.Bioinfo'
p2341
sS'astroCluster'
p2342
(lp2343
g176
asg25
S' 09962807769, 044-43581001'
p2344
sg49
g1060
sg29
g1230
sa(dp2345
S'baseCluster'
p2346
(lp2347
g24
asS'jobCluster'
p2348
(lp2349
g141
ag59
asg5
S'seeks Professionally Well Placed groom Pillai/ Mudaliar'
p2350
sg9
g550
sg125
S'UTHIRAM'
p2351
sg27
g320
sg13
S'employed in MNC'
p2352
sg15
g16
sS'casteCluster'
p2353
(lp2354
g1196
asg46
g112
sS'astroCluster'
p2355
(lp2356
g1781
asg78
g464
sg25
S' 044-22253535,(0)9444105817'
p2357
sg29
S'PILLAI NV'
p2358
sa(dp2359
g60
g1584
sg27
g123
sg9
g10
sg125
g1556
sS'casteCluster'
p2360
(lp2361
g632
asg46
g112
sS'astroCluster'
p2362
(lp2363
g1562
asg25
S' 09884178306'
p2364
sg78
g116
sg29
S'VELLALA'
p2365
sa(dp2366
S'descCluster'
p2367
(lp2368
g35
ag593
asS'jobCluster'
p2369
(lp2370
S'computer engg'
p2371
asS'incomeCluster'
p2372
(lp2373
S'$6000/pm'
p2374
asg5
S'Seeks BE/MS/Ph.D Working @ USA with H1B or Green Card,Caste Equal'
p2375
sg9
g185
sg27
g220
sg13
S'Computer Engg'
p2376
sg15
g205
sS'casteCluster'
p2377
(lp2378
S'vanniyakulakshatriya'
p2379
asg46
S'MS(USA)'
p2380
sg92
S'$6000/pm'
p2381
sS'baseCluster'
p2382
(lp2383
g211
asg78
g649
sg49
S'Own House @ USA, Fair Goodlooking'
p2384
sg25
S' 044-28475949,09841044168'
p2385
sg29
S'VANNIYAKULAKSHATRIYA'
p2386
sa(dp2387
S'jobCluster'
p2388
(lp2389
g766
asg5
S'Same Caste'
p2390
sg7
g40
sg9
g203
sg125
g2189
sg13
g809
sg145
S'Box No.PP66821, THE HINDU, Chennai-600002.'
p2391
sS'casteCluster'
p2392
(lp2393
g1209
asg46
g225
sS'astroCluster'
p2394
(lp2395
g2194
asg29
S'YADAVA'
p2396
sa(dp2397
S'baseCluster'
p2398
(lp2399
g1072
asS'jobCluster'
p2400
(lp2401
S'asst prof'
p2402
asS'incomeCluster'
p2403
(lp2404
S'30,000pm'
p2405
asg27
g320
sg9
g642
sg125
g1998
sg13
S'Asst prof'
p2406
sg15
g1067
sS'casteCluster'
p2407
(lp2408
g224
asg46
g798
sg92
S'30,000pm'
p2409
sS'astroCluster'
p2410
(lp2411
g2005
asg25
S' 9787931546'
p2412
sg11
S'shobi0880@yahoo.com'
p2413
sg29
g1257
sa(dp2414
S'incomeCluster'
p2415
(lp2416
S'11000/- pm'
p2417
asg27
g51
sg9
g583
sg145
S'Box No.GF106022, THE HINDU, Chennai-600002.'
p2418
sS'casteCluster'
p2419
(lp2420
g224
asg46
g112
sg15
g16
sg92
S'11000/- pm'
p2421
sS'baseCluster'
p2422
(lp2423
g24
asg25
S'044-26505460'
p2424
sg5
S'Seeks Graduate Groom Same Cumnity.'
p2425
sg29
g1230
sa(dp2426
S'jobCluster'
p2427
(lp2428
g38
asg27
g142
sg13
g42
sg145
S'Box No. CB-359, THE HINDU, Coimbatore-641018.'
p2429
sS'casteCluster'
p2430
(lp2431
g632
asg5
S'Doctor/ BE, MS/ MDS/ MS. Caste no bar'
p2432
sg29
S'Vellalar'
p2433
sa(dp2434
S'descCluster'
p2435
(lp2436
g35
asS'jobCluster'
p2437
(lp2438
g1369
asg27
g142
sg9
g383
sg125
g167
sg13
g1371
sS'casteCluster'
p2439
(lp2440
g632
asg46
g225
sS'astroCluster'
p2441
(lp2442
g176
asg25
S' 97904 17063 '
p2443
sg49
g152
sg5
S'seeks professional bridegroom Pillai ok.'
p2444
sg29
g2365
sa(dp2445
S'baseCluster'
p2446
(lp2447
g24
asS'jobCluster'
p2448
(lp2449
g486
asS'incomeCluster'
p2450
(lp2451
S'40kpm'
p2452
asg5
S'seeks Prof Qlfd Groom.'
p2453
sg9
g241
sg125
g1301
sg27
g273
sg13
g490
sg15
g16
sS'casteCluster'
p2454
(lp2455
S'madurai gounder'
p2456
asg92
S'40kpm'
p2457
sS'astroCluster'
p2458
(lp2459
g1308
asg78
g649
sg25
S' 044-45565181'
p2460
sg29
S'MADURAI GOUNDER'
p2461
sa(dp2462
S'jobCluster'
p2463
(lp2464
g1347
asg27
g320
sg13
g1465
sg145
S'Box No. CB-360, THE HINDU, Coimbatore-641018. 99766 60060.'
p2465
sS'casteCluster'
p2466
(lp2467
g1304
asg20
S'Kongu Vellala Gounder'
p2468
sg25
S' 99766 60060'
p2469
sg5
S'seeks suitable groom from Vania Chettiar family send BHP to Box No.'
p2470
sg29
S'Chettiar'
p2471
sa(dp2472
S'baseCluster'
p2473
(lp2474
g24
asS'jobCluster'
p2475
(lp2476
g141
asS'incomeCluster'
p2477
(lp2478
S'2.9lacs/pa'
p2479
asg27
g123
sg9
g661
sg125
S'Poorattadhi'
p2480
sg13
g144
sg145
S'Box No.HA37381, THE HINDU, Chennai-600002.'
p2481
sS'casteCluster'
p2482
(lp2483
g1196
asg15
g16
sg92
S'2.9Lacs/PA'
p2484
sS'astroCluster'
p2485
(lp2486
S'poorattadhi'
p2487
asg78
g649
sg5
S'Same Caste Professionals Preferably Post Graduates'
p2488
sg29
S'Tanjore Saiva Pillai'
p2489
sa(dp2490
S'descCluster'
p2491
(lp2492
g35
ag560
asg60
S'Tamil Veg'
p2493
sg5
S'Unmarried Guy 33-38 Cln Habits Well Qlfd Settld Caste Horoscope no bar Ind/Abroad Early Marriage Pref'
p2494
sg9
g567
sg11
S'anbumatri@gmail.com'
p2495
sS'casteCluster'
p2496
(lp2497
g1196
asg46
S'M.Com,MBA'
p2498
sg25
S' 09444837355,044-42617167 '
p2499
sg49
g561
sg27
g97
sg29
g1201
sa(dp2500
S'jobCluster'
p2501
(lp2502
g486
asg288
g502
sg5
S'Married (Issueless) Unmarried Engineering Professional Groom 29-32years'
p2503
sg9
g185
sg11
S'chennai.v64@gmail.com'
p2504
sg13
g490
sg15
g570
sS'casteCluster'
p2505
(lp2506
g1196
asg46
g1523
sS'baseCluster'
p2507
(lp2508
g24
asg78
g649
sg25
S' 09094696058'
p2509
sg27
g179
sg29
S'Pillai'
p2510
sa(dp2511
g27
g97
sg78
g649
sg9
g642
sg125
g1528
sS'casteCluster'
p2512
(lp2513
g632
asS'astroCluster'
p2514
(lp2515
g1534
asg25
S' 9940372953, 9444272902 '
p2516
sg11
S'rajiah_u@yahoo.com'
p2517
sg29
g1190
sa(dp2518
S'descCluster'
p2519
(lp2520
g593
asg5
S'Architect/Designer/Equal qualification grooms from educated family, same caste'
p2521
sg9
g203
sg125
g1528
sg27
g123
sS'casteCluster'
p2522
(lp2523
g695
asS'astroCluster'
p2524
(lp2525
g1534
asg25
S' 9442258270'
p2526
sg49
g1622
sg78
S'B.Arch[PGDPD]'
p2527
sg29
g1353
sa(dp2528
S'descCluster'
p2529
(lp2530
g35
asS'baseCluster'
p2531
(lp2532
g24
asS'jobCluster'
p2533
(lp2534
S'l&t'
p2535
asS'incomeCluster'
p2536
(lp2537
g1732
asg27
g320
sg9
g583
sg125
g1775
sg13
S'L&T'
p2538
sg145
S'Box No.ZM61613, THE HINDU, Chennai-600002.'
p2539
sS'casteCluster'
p2540
(lp2541
g19
ag75
asg46
g1386
sg15
g16
sg92
g1738
sS'astroCluster'
p2542
(lp2543
g1781
asg25
S'044-27462851, 0-9791060372'
p2544
sg49
g267
sg5
S'seeks Groom ME/BE/ MBA/MS from Same Caste, Chennai-Vellore, North Arcot-Kanchipuram'
p2545
sg29
S'ARCOT MUDALIAR'
p2546
sa(dp2547
g5
S'seeks PG/Graduate, Empld Boy upto 35 years. Caste nobar'
p2548
sg7
S'ARUNTHADHIYAR'
p2549
sg9
g383
sg11
S'nsuruliraj@yahoo.co.in'
p2550
sg15
S'Sharjah'
p2551
sS'baseCluster'
p2552
(lp2553
S'sharjah'
p2554
asg46
g112
sg20
S'Yadava'
p2555
sg25
S'044-22237577, 9003156870'
p2556
sg27
g88
sa(dp2557
S'descCluster'
p2558
(lp2559
g158
asS'baseCluster'
p2560
(lp2561
g24
asS'incomeCluster'
p2562
(lp2563
g1762
asg27
g142
sg9
g616
sg125
g1714
sg145
S'Box No.ZM61615, THE HINDU, Chennai-600002.'
p2564
sS'casteCluster'
p2565
(lp2566
g1196
ag632
asg46
g798
sg15
g16
sg92
g1765
sS'astroCluster'
p2567
(lp2568
g519
asg49
g1060
sg5
S'seeks suitable empd Groom below 33 from Arcot Mudaliar/Thuluva,Sozhiya Vellalar or Other Subsects'
p2569
sg29
S'VELLALA PILLAI'
p2570
sa(dp2571
S'descCluster'
p2572
(lp2573
g34
asg5
S'seeks Any Profl.'
p2574
sg9
g567
sg27
g71
sS'casteCluster'
p2575
(lp2576
g75
asg46
g101
sg25
S' 044-28152246'
p2577
sg49
S'Beautiful'
p2578
sg78
g177
sg29
g1564
sa(dp2579
S'jobCluster'
p2580
(lp2581
g486
ag687
asS'incomeCluster'
p2582
(lp2583
S'18k'
p2584
asg27
g511
sg9
g203
sg13
g2019
sS'casteCluster'
p2585
(lp2586
g1736
asg92
S'18K'
p2587
sg78
g1577
sg25
S' 044-28153328, 0413-4205338'
p2588
sg29
g1744
sa(dp2589
S'jobCluster'
p2590
(lp2591
g687
asS'incomeCluster'
p2592
(lp2593
g1607
asg27
g511
sg9
g661
sg13
g1585
sS'casteCluster'
p2594
(lp2595
g2120
asg92
S'20K'
p2596
sg78
g250
sg25
S' 0-9940622289, 044-65385547'
p2597
sg29
S'ADIDRAVIDAR'
p2598
sa(dp2599
S'descCluster'
p2600
(lp2601
g35
asS'jobCluster'
p2602
(lp2603
g1012
ag486
asS'incomeCluster'
p2604
(lp2605
S'25k'
p2606
asg60
S"Doctor's"
p2607
sg27
g273
sg9
g642
sg13
S'SWE INFOSYS'
p2608
sS'casteCluster'
p2609
(lp2610
g1196
asg92
S'25K'
p2611
sg25
S' 044-65341088'
p2612
sg49
g267
sg78
g1577
sg29
g1343
sa(dp2613
S'descCluster'
p2614
(lp2615
S'affluent'
p2616
asS'jobCluster'
p2617
(lp2618
g1012
ag486
asS'incomeCluster'
p2619
(lp2620
g2606
asg60
g1951
sg27
g273
sg9
g185
sg13
g2608
sS'casteCluster'
p2621
(lp2622
g75
asg92
g2611
sg25
g2577
sg49
g1951
sg78
g1577
sg29
g1564
sa(dp2623
S'jobCluster'
p2624
(lp2625
g999
asS'incomeCluster'
p2626
(lp2627
S'30000/-'
p2628
asg5
S'seeks Professionally Qlfd Groom from decent family.'
p2629
sg9
g203
sg125
S'Mirugaserisham'
p2630
sg27
g28
sg13
S'HCL'
p2631
sS'casteCluster'
p2632
(lp2633
S'vanniyakula kshtriya'
p2634
asg46
g112
sg92
S'30000/-'
p2635
sS'astroCluster'
p2636
(lp2637
S'mirugaserisham'
p2638
asg78
g649
sg25
S' 044-23741805'
p2639
sg29
S'VANNIYAKULA KSHTRIYA'
p2640
sa(dp2641
S'descCluster'
p2642
(lp2643
g35
asg60
g1513
sg27
g28
sg9
g739
sg15
g16
sS'casteCluster'
p2644
(lp2645
g632
asg46
g225
sS'baseCluster'
p2646
(lp2647
g24
asg25
S' 9444558729'
p2648
sg49
g267
sg11
S'knirma@gmail.com'
p2649
sg29
g2365
sa(dp2650
S'jobCluster'
p2651
(lp2652
g59
asg5
S'seeks well employed.'
p2653
sg9
S'140'
p2654
sg11
S'rvdmani@yahoo.com'
p2655
sg13
g62
sg15
g1067
sS'casteCluster'
p2656
(lp2657
g632
asg46
g101
sS'baseCluster'
p2658
(lp2659
g1072
asg25
S' 94437 93015'
p2660
sg27
g320
sg29
g2259
sa(dp2661
S'jobCluster'
p2662
(lp2663
g874
asg27
g71
sg13
g876
sg145
S'Mrs.Malliga,Chennai-9444002000,Mrs.Bindhu.Bang alore'
p2664
sS'casteCluster'
p2665
(lp2666
g224
asg46
S'M.A, B.ed'
p2667
sg15
g16
sS'baseCluster'
p2668
(lp2669
g24
asg25
S'-9444002000,-9986654313'
p2670
sg5
S'Seeks Groom.'
p2671
sg29
g1230
sa(dp2672
S'jobCluster'
p2673
(lp2674
g874
asS'incomeCluster'
p2675
(lp2676
S'14,000pm'
p2677
asg27
g273
sg13
g876
sg15
g16
sS'casteCluster'
p2678
(lp2679
g224
asg92
S'14,000pm'
p2680
sS'baseCluster'
p2681
(lp2682
g24
asg25
S'-9790744424,-9019997446'
p2683
sg29
g1230
sa(dp2684
S'descCluster'
p2685
(lp2686
g35
asS'jobCluster'
p2687
(lp2688
g486
asS'incomeCluster'
p2689
(lp2690
S'25,000pm'
p2691
asg27
g273
sg13
g490
sg15
g814
sS'casteCluster'
p2692
(lp2693
g1935
asg92
S'25,000pm'
p2694
sS'baseCluster'
p2695
(lp2696
g817
asg25
g2670
sg49
g267
sg78
g1577
sg29
g1940
sa(dp2697
S'descCluster'
p2698
(lp2699
g35
asS'jobCluster'
p2700
(lp2701
g486
asS'incomeCluster'
p2702
(lp2703
g2691
asg60
S'Royal'
p2704
sg5
g2671
sg27
g273
sg13
g490
sg15
g814
sS'casteCluster'
p2705
(lp2706
S'vanniyakula shathriyar'
p2707
asg92
g2694
sS'baseCluster'
p2708
(lp2709
g817
asg78
g1577
sg49
g267
sg25
g2683
sg29
S'VANNIYAKULA SHATHRIYAR'
p2710
sa(dp2711
S'descCluster'
p2712
(lp2713
g35
asg60
S'TELUGU'
p2714
sg27
g179
sg145
S'Box No.HA37392, THE HINDU, Chennai-600002.'
p2715
sg15
g16
sS'casteCluster'
p2716
(lp2717
g130
asg46
g225
sS'baseCluster'
p2718
(lp2719
g24
asg49
g267
sg9
g185
sg5
S'Seeks Professional Qualified Groom From Same Caste.'
p2720
sg29
g135
sa(dp2721
S'baseCluster'
p2722
(lp2723
g24
asS'jobCluster'
p2724
(lp2725
g766
asg5
S'seeks professional groom.'
p2726
sg9
g72
sg125
S'Chitirai-Kanni'
p2727
sg11
S'jaiviji27@gmail.com'
p2728
sg13
g771
sg145
S'Box No.ZM61612, THE HINDU, Chennai-600002.'
p2729
sS'casteCluster'
p2730
(lp2731
g632
asg46
g1123
sg15
g16
sS'astroCluster'
p2732
(lp2733
S'chitirai-kanni'
p2734
asg25
S' 0-9940310081, 0-9884204767, 0-9790872767'
p2735
sg27
g320
sg29
g1190
sa(dp2736
S'descCluster'
p2737
(lp2738
g35
asS'jobCluster'
p2739
(lp2740
S'incometax dept'
p2741
asg5
S'seeks Empd suitable Groom.'
p2742
sg9
g661
sg125
S'Mirugasheerisham'
p2743
sg11
S'senthilvelan_ss@yahoo.com'
p2744
sg13
S'IncomeTax Dept'
p2745
sS'casteCluster'
p2746
(lp2747
g224
asg46
g633
sS'astroCluster'
p2748
(lp2749
S'mirugasheerisham'
p2750
asg25
S' 0-9840677648'
p2751
sg49
g267
sg27
g142
sg29
g1257
sa(dp2752
S'descCluster'
p2753
(lp2754
g35
asg5
S'seeks Nadar Boys.'
p2755
sg9
g185
sg27
g28
sg15
g2223
sS'casteCluster'
p2756
(lp2757
g695
asg46
g190
sS'baseCluster'
p2758
(lp2759
g2212
asg49
g267
sg11
S'smartmarriages@gmail.com'
p2760
sg29
g954
sa(dp2761
S'jobCluster'
p2762
(lp2763
g59
asg5
S'seeks BE/ME groom from same community'
p2764
sg7
g40
sg9
g185
sg27
g71
sg13
g62
sg15
g814
sS'casteCluster'
p2765
(lp2766
g1209
asg46
g112
sS'baseCluster'
p2767
(lp2768
g817
asg78
g649
sg25
S'09741361956'
p2769
sg29
g1214
sa(dp2770
S'descCluster'
p2771
(lp2772
g593
asS'jobCluster'
p2773
(lp2774
g486
asS'incomeCluster'
p2775
(lp2776
S'6.5l/pa'
p2777
asg5
g452
sg7
g40
sg9
g72
sg125
g512
sg27
g179
sg13
g490
sS'casteCluster'
p2778
(lp2779
g224
asg92
S'6.5L/pa'
p2780
sS'astroCluster'
p2781
(lp2782
g519
asg78
g496
sg49
g1622
sg25
S' 044-26510836, 09444954729'
p2783
sg29
g1501
sa(dp2784
g27
g142
sg78
g649
sg9
g203
sg125
g512
sS'casteCluster'
p2785
(lp2786
g75
asS'astroCluster'
p2787
(lp2788
g519
asg25
S'044-24758144, 9840905493'
p2789
sg5
S'seeks groom BE/ BE with MBA, SWE/ Bank Exe/ MNC empld, Mudaliar/ Subcaste no bar'
p2790
sg29
g80
sa(dp2791
S'baseCluster'
p2792
(lp2793
g24
asg27
g71
sg9
g364
sg125
g365
sg15
g16
sS'casteCluster'
p2794
(lp2795
S'senaithalaivar'
p2796
asg46
g633
sS'astroCluster'
p2797
(lp2798
g371
asg25
S' 044-24451091, 9791073818'
p2799
sg5
S'seeks PG groom below 31 well emplyd'
p2800
sg29
S'SENAITHALAIVAR'
p2801
sa(dp2802
S'descCluster'
p2803
(lp2804
g35
asS'jobCluster'
p2805
(lp2806
g141
asg27
g179
sg9
g739
sg13
g144
sg145
S'Box No.CC25167, THE HINDU, Chennai-600002.'
p2807
sS'casteCluster'
p2808
(lp2809
g75
asg46
g225
sg15
g16
sS'baseCluster'
p2810
(lp2811
g24
asg49
g267
sg5
S'Seeks Suitable Educated Groom.'
p2812
sg29
g1564
sa(dp2813
S'descCluster'
p2814
(lp2815
g56
ag158
asg60
S'Upper Middle Class'
p2816
sg5
S'Seeks BE, PG Edu. Clean Habit groom'
p2817
sg125
g1556
sg27
g71
sS'casteCluster'
p2818
(lp2819
g695
asg46
g798
sS'astroCluster'
p2820
(lp2821
g1562
asg25
S' 9884685052'
p2822
sg49
S'Wheatish Good looking homely girl'
p2823
sg78
g649
sg29
g1353
sa(dp2824
S'descCluster'
p2825
(lp2826
g1505
asg27
g337
sg78
g801
sg9
g642
sS'casteCluster'
p2827
(lp2828
g1196
asg25
S' 09003247097, 09791609298'
p2829
sg49
g1513
sg5
S'Seeks Veg,Excuse Above 40&II Marriage'
p2830
sg29
g1343
sa(dp2831
S'descCluster'
p2832
(lp2833
g35
ag56
asS'jobCluster'
p2834
(lp2835
g105
asg27
g273
sg9
g185
sg13
S'Working'
p2836
sS'casteCluster'
p2837
(lp2838
g19
asg46
S'Master Degree'
p2839
sg25
S' 09789863969'
p2840
sg49
g1172
sg29
S'Intercaste'
p2841
sa(dp2842
S'descCluster'
p2843
(lp2844
g35
asS'jobCluster'
p2845
(lp2846
g486
ag687
asS'incomeCluster'
p2847
(lp2848
g1762
asg5
S'CASTE no bar'
p2849
sg9
g456
sg27
g123
sg13
g2019
sS'casteCluster'
p2850
(lp2851
g75
asg92
g1765
sg78
g496
sg49
g152
sg25
S' 044-26203030, 0424-4272030'
p2852
sg29
g1564
sa(dp2853
S'descCluster'
p2854
(lp2855
g35
asS'jobCluster'
p2856
(lp2857
g960
asS'incomeCluster'
p2858
(lp2859
g2606
asg27
g123
sg9
g203
sg13
g964
sS'casteCluster'
p2860
(lp2861
g1196
asg92
g2611
sg25
S'0431-2762777, 044-42805757'
p2862
sg49
g152
sg78
g496
sg29
g1201
sa(dp2863
S'jobCluster'
p2864
(lp2865
g999
ag486
asg60
S'afluent'
p2866
sg27
g273
sg9
g203
sg13
S'SWE HCL'
p2867
sS'casteCluster'
p2868
(lp2869
g1304
asg25
S' 9380332267,0422-2244696'
p2870
sg78
S'BE(ECE)'
p2871
sg29
g1310
sa(dp2872
S'descCluster'
p2873
(lp2874
g56
asg27
g179
sg7
S'doctor'
p2875
sg9
g10
sg145
S'Box No.KR42115, THE HINDU, Chennai-600002.'
p2876
sS'casteCluster'
p2877
(lp2878
g1521
asg15
g16
sS'baseCluster'
p2879
(lp2880
g24
asg78
g1577
sg49
g907
sg5
S'qualified Govt/MNC employed groom from decent family'
p2881
sg29
g2187
sa(dp2882
S'descCluster'
p2883
(lp2884
S'with 4yr child'
p2885
asS'baseCluster'
p2886
(lp2887
g24
asg27
g411
sg9
g72
sg145
S'Box No.KR42119, THE HINDU, Chennai-600002.'
p2888
sg1454
S'Widow'
p2889
sg46
S'Msc'
p2890
sg15
g16
sS'casteCluster'
p2891
(lp2892
g632
asg49
S'with 4yr child'
p2893
sg5
S'well settled divorcee/widower'
p2894
sg29
g1243
sa(dp2895
S'descCluster'
p2896
(lp2897
g35
asS'jobCluster'
p2898
(lp2899
g4
asg60
g1584
sg27
g71
sg9
g336
sg13
S'Bank'
p2900
sg145
S'Box No. HB-1679, THE HINDU, Chennai-600002.'
p2901
sS'casteCluster'
p2902
(lp2903
g632
asg46
g112
sg15
g16
sS'baseCluster'
p2904
(lp2905
g24
asg49
g152
sg5
S'same Caste (Sub-sect no bar), preferably working in Chennai'
p2906
sg29
S'KONGU Vellala Gounde'
p2907
sa(dp2908
S'descCluster'
p2909
(lp2910
g35
asS'incomeCluster'
p2911
(lp2912
S'rs.14lac pa'
p2913
asg5
S'IAS/IPS/Civil service/Engr/Dr groom'
p2914
sg9
g642
sg27
g320
sg15
g814
sS'casteCluster'
p2915
(lp2916
S'vanniakula kshathriya'
p2917
asg46
g112
sg92
S'Rs.14Lac PA'
p2918
sS'baseCluster'
p2919
(lp2920
g817
asg78
g1577
sg49
g152
sg25
S' 9443888588, 9345051008'
p2921
sg29
S'VANNIAKULA KSHATHRIYA'
p2922
sa(dp2923
S'descCluster'
p2924
(lp2925
g35
asS'incomeCluster'
p2926
(lp2927
g1732
asg27
g273
sS'casteCluster'
p2928
(lp2929
g2120
asg92
g1738
sg25
S' 044 24347949, 09281322921'
p2930
sg49
g152
sg78
g1577
sg29
g2598
sa(dp2931
S'descCluster'
p2932
(lp2933
S'born & educated chennai, pr of uk citizen, traditional yet modern, cute'
p2934
asS'jobCluster'
p2935
(lp2936
g59
asS'incomeCluster'
p2937
(lp2938
S'1.5 lakh'
p2939
asg60
g541
sg5
S'seeks Hindu Tamil boy, 26-29, UK employed or willing to work in UK'
p2940
sg20
S'Mudaliyar'
p2941
sg7
g2471
sg9
g203
sg11
S'rskuk@yahoo.co.uk'
p2942
sg13
g62
sg15
g2223
sS'casteCluster'
p2943
(lp2944
g19
asg92
S'1.5 Lakh'
p2945
sS'baseCluster'
p2946
(lp2947
g2212
asg49
S'born & educated Chennai, PR of UK Citizen, traditional yet modern, cute'
p2948
sg27
g71
sg29
g2841
sa(dp2949
S'descCluster'
p2950
(lp2951
g35
asS'incomeCluster'
p2952
(lp2953
g1732
asg27
g179
sS'casteCluster'
p2954
(lp2955
g2120
asg92
g1738
sg25
S' 044-24347949, 09281322921'
p2956
sg49
g267
sg78
g649
sg29
g2598
sa(dp2957
S'jobCluster'
p2958
(lp2959
S'c.a'
p2960
asg60
S'KERALA'
p2961
sg5
S'seeks qualified groom.'
p2962
sg9
g456
sg125
g1998
sg11
S'nrv20032001@yahoo.co.in'
p2963
sg13
S'C.A'
p2964
sS'casteCluster'
p2965
(lp2966
S'iyer'
p2967
asS'astroCluster'
p2968
(lp2969
g2005
asg25
S' 033-24428032, 09830996861'
p2970
sg27
g28
sg29
S'IYER'
p2971
sa(dp2972
S'descCluster'
p2973
(lp2974
g34
asg5
S'handsome Prof qlfd well placed USA'
p2975
sg9
g185
sg11
S'ravi150459@gmail.com'
p2976
sg15
g205
sS'casteCluster'
p2977
(lp2978
g2967
asg46
g898
sS'baseCluster'
p2979
(lp2980
g211
asg25
S' 9444901729'
p2981
sg49
g212
sg27
g123
sg29
S'IYER VADAMA'
p2982
sa(dp2983
S'descCluster'
p2984
(lp2985
g35
asS'jobCluster'
p2986
(lp2987
g59
asg49
g152
sg288
g288
sg5
S'seeks suitable Brahmin groom in US.'
p2988
sg7
g40
sg9
g550
sg11
S'sriprasad_s@rediffmail.com'
p2989
sg13
g62
sg15
g1193
sS'casteCluster'
p2990
(lp2991
S'vadakalai athreya'
p2992
asS'baseCluster'
p2993
(lp2994
g211
asg78
g649
sg25
S'09487222630 '
p2995
sg27
g320
sg29
S'VADAKALAI ATHREYA'
p2996
sa(dp2997
S'baseCluster'
p2998
(lp2999
g817
asS'jobCluster'
p3000
(lp3001
g141
asg27
g179
sg9
g10
sg125
S'Chithirai'
p3002
sg13
g144
sg145
S'Box No.: CB-340, THE HINDU, Coimbatore-641018'
p3003
sS'casteCluster'
p3004
(lp3005
S'brahacharanam bharadwaja'
p3006
asg46
g798
sg15
g814
sS'astroCluster'
p3007
(lp3008
S'chithirai'
p3009
asg25
S' 0422 2233016, 09790838602 '
p3010
sg5
S'seeks professionally qualified groom below 31'
p3011
sg29
S'BRAHACHARANAM BHARADWAJA'
p3012
sa(dp3013
S'baseCluster'
p3014
(lp3015
g1862
asS'jobCluster'
p3016
(lp3017
S'dentist'
p3018
asg5
S'Seeks well qualified groom from good family with clean habits.'
p3019
sg9
g241
sg125
g219
sg11
S'vanaja_p@hotmail.com'
p3020
sg13
S'Dentist'
p3021
sg15
g1868
sS'casteCluster'
p3022
(lp3023
g2967
asS'astroCluster'
p3024
(lp3025
g228
asg25
S' 022-26114236'
p3026
sg27
g71
sg29
g2982
sa(dp3027
S'descCluster'
p3028
(lp3029
S'clean habits'
p3030
asS'baseCluster'
p3031
(lp3032
g817
asg288
g502
sg5
S'seeks alliance from professionals upto 43 clean habits from cultured family without issues'
p3033
sg9
g185
sg125
g2106
sg11
S'reach_mevs@yahoo.co.in'
p3034
sg145
S'Box No. BA-174, THE HINDU, Bangalore-560001'
p3035
sS'casteCluster'
p3036
(lp3037
S'vadama kaushikam'
p3038
asg15
g814
sS'astroCluster'
p3039
(lp3040
g2112
asg49
S'clean habits'
p3041
sg27
S'38'
p3042
sg29
S'vadama Kaushikam'
p3043
sa(dp3044
S'descCluster'
p3045
(lp3046
g35
ag560
asS'baseCluster'
p3047
(lp3048
g817
asS'jobCluster'
p3049
(lp3050
g141
ag59
asg49
g1793
sg5
S'seeks boy with Masters/MBA below 29 years.'
p3051
sg9
g642
sg125
g1998
sg11
S'devibalki1995@rediffmail.com'
p3052
sg13
S'employed MNC'
p3053
sg15
g814
sS'casteCluster'
p3054
(lp3055
g2967
asg46
g112
sS'astroCluster'
p3056
(lp3057
g2005
asg78
g250
sg25
S' 9845017112'
p3058
sg27
g71
sg29
g2971
sa(dp3059
S'jobCluster'
p3060
(lp3061
g1369
asg5
S'upto 38.Stars Swati Visakham Anusham Ketai Moolam Thiruvonam Avitam Chatayam Do not respond'
p3062
sg9
g241
sg125
S'Hastam'
p3063
sg11
S'paramak@rediffmail.com'
p3064
sg13
g1371
sS'casteCluster'
p3065
(lp3066
g2967
asg20
g2971
sS'astroCluster'
p3067
(lp3068
S'hastam'
p3069
asg78
g1577
sg25
S' 022-25634749'
p3070
sg27
g51
sg29
g2971
sa(dp3071
S'baseCluster'
p3072
(lp3073
g1880
asS'jobCluster'
p3074
(lp3075
g486
asg5
S'seeks Well Qualified Employed Groom with Clean Habits Contact Tel No.'
p3076
sg9
S'166'
p3077
sg125
g1556
sg11
S'skiyer1952@yahoo.co.in'
p3078
sg13
g490
sg15
g1890
sS'casteCluster'
p3079
(lp3080
g2967
asS'astroCluster'
p3081
(lp3082
g1562
asg78
g649
sg25
S'01242368005 '
p3083
sg27
g28
sg29
g2982
sa(dp3084
S'descCluster'
p3085
(lp3086
g1505
aS'good-looking'
p3087
asS'jobCluster'
p3088
(lp3089
g59
asg60
g541
sg5
S'seeks modern broad-minded internationally raised well-educated South Indian Hindu groom preferably employed in East Coast USA'
p3090
sg7
S'diplomat NRI'
p3091
sg9
g550
sg11
S'reachuma@hotmail.com'
p3092
sg13
g62
sg15
g205
sS'casteCluster'
p3093
(lp3094
g2967
asg46
S'PhD'
p3095
sg20
g2971
sS'baseCluster'
p3096
(lp3097
g211
asg49
S'vegetarian good-looking'
p3098
sg27
g179
sg29
g2971
sa(dp3099
S'descCluster'
p3100
(lp3101
g35
ag560
asS'baseCluster'
p3102
(lp3103
g237
asg5
S'26-32 Blore boy'
p3104
sg9
g185
sg125
S'Sevvai'
p3105
sg11
S'viju113@gmail.com'
p3106
sg15
g246
sS'casteCluster'
p3107
(lp3108
S'vadama bwajam sadayam'
p3109
asS'astroCluster'
p3110
(lp3111
S'sevvai'
p3112
asg25
S' 080-25543788'
p3113
sg49
g1743
sg27
g71
sg29
S'VADAMA BWAJAM Sadayam'
p3114
sa(dp3115
S'descCluster'
p3116
(lp3117
g34
asS'jobCluster'
p3118
(lp3119
g184
asg27
g28
sg9
S'178'
p3120
sg13
g186
sS'casteCluster'
p3121
(lp3122
g2967
asg25
S' 09848197131'
p3123
sg49
g212
sg5
S' Handsome boy born 77-81 above 178 BE with MBA or MS well settled India or abroad '
p3124
sg29
S'Iyer Vadama'
p3125
sa(dp3126
S'jobCluster'
p3127
(lp3128
g1089
asg5
S'seeks well qlfd groom wkg in US/UK.'
p3129
sg9
g526
sg11
S'raj_lali@yahoo.com'
p3130
sg13
S'Analyst'
p3131
sg15
g1193
sS'casteCluster'
p3132
(lp3133
g2967
asg46
g190
sS'baseCluster'
p3134
(lp3135
g211
asg25
S' 011-26132833'
p3136
sg27
g28
sg29
g2982
sa(dp3137
g5
S'LIFE COMPANION'
p3138
sg27
S'55'
p3139
sg9
g185
sS'casteCluster'
p3140
(lp3141
g2967
asg11
S'rmiyer2009@gmail.com'
p3142
sg29
S'Iyer'
p3143
sa(dp3144
S'descCluster'
p3145
(lp3146
g3087
asS'jobCluster'
p3147
(lp3148
g2960
asg5
S'seeks well qlfd Profnl 33 or less willing to relocate to Sydney'
p3149
sg11
S'subra46@gmail.com'
p3150
sg13
g2964
sg15
S'Sydney'
p3151
sS'casteCluster'
p3152
(lp3153
g2967
asS'baseCluster'
p3154
(lp3155
S'sydney'
p3156
asg25
S' 044-28170040'
p3157
sg49
S'good-looking'
p3158
sg27
g220
sg29
g2971
sa(dp3159
S'descCluster'
p3160
(lp3161
S'nz citizen'
p3162
asS'jobCluster'
p3163
(lp3164
g486
asg49
S'NZ Citizen'
p3165
sg5
S'Grooms settled in US, UK, Canada, Australia preferred'
p3166
sg9
g661
sg11
S'rsnd09@gmail.com'
p3167
sg13
g1495
sg15
S'Australia'
p3168
sS'casteCluster'
p3169
(lp3170
g2967
asg20
g2971
sS'baseCluster'
p3171
(lp3172
g211
asg78
g79
sg25
S' 9626506502'
p3173
sg27
g179
sg29
g2971
sa(dp3174
S'descCluster'
p3175
(lp3176
g35
asS'baseCluster'
p3177
(lp3178
g211
asg5
S'well Qualified ,Well Placed 26-30 Iyengar Boy'
p3179
sg9
g642
sg125
S'Kettai'
p3180
sg27
g71
sg15
g205
sS'casteCluster'
p3181
(lp3182
S'iyengar'
p3183
asg46
S'Master s INCIVY League USA,Finishing Dec2009'
p3184
sS'astroCluster'
p3185
(lp3186
S'kettai'
p3187
asg78
g1577
sg49
g152
sg11
S'srisai57@gmail.com'
p3188
sg29
S'IYENGAR'
p3189
sa(dp3190
S'descCluster'
p3191
(lp3192
g35
ag560
asS'jobCluster'
p3193
(lp3194
g59
asg27
g320
sg9
g739
sg125
g512
sg11
S'bdeepmail@rediff.com'
p3195
sg13
S'unemployed'
p3196
sS'casteCluster'
p3197
(lp3198
S'vg kashyaba'
p3199
asS'astroCluster'
p3200
(lp3201
g519
asg25
S'9940489708'
p3202
sg49
g1793
sg78
g649
sg29
S'VG KASHYABA'
p3203
sa(dp3204
S'jobCluster'
p3205
(lp3206
g258
asg288
g288
sg27
g320
sg7
g40
sg9
g383
sg13
S'IBM'
p3207
sS'casteCluster'
p3208
(lp3209
g3183
asg46
g225
sg25
S' 09244395207'
p3210
sg5
S'invited from well qualified IT employed Brahmins'
p3211
sg29
g3189
sa(dp3212
S'descCluster'
p3213
(lp3214
g593
asS'baseCluster'
p3215
(lp3216
g2212
asg27
g273
sg125
g3180
sg145
S'Box No.HB-1652, THE HINDU, Chennai-600002'
p3217
sS'casteCluster'
p3218
(lp3219
g2967
asg15
g2223
sS'astroCluster'
p3220
(lp3221
g3187
asg78
g649
sg49
g1622
sg5
S'seeks highly qualified well settled goodlooking groom send BHP Box No.'
p3222
sg29
g2982
sa(dp3223
S'jobCluster'
p3224
(lp3225
g1347
asS'incomeCluster'
p3226
(lp3227
g1762
asg27
S'46'
p3228
sg125
S'ASWINI'
p3229
sg13
g2307
sS'casteCluster'
p3230
(lp3231
g3183
asg92
S'20000PM'
p3232
sS'astroCluster'
p3233
(lp3234
g2194
asg25
S' 044-22433264'
p3235
sg5
S'unmarrried Iyengar groom above 46'
p3236
sg29
g3189
sa(dp3237
S'descCluster'
p3238
(lp3239
S'h1b'
p3240
asS'baseCluster'
p3241
(lp3242
g211
asg60
g541
sg27
g220
sg9
g661
sg125
g3180
sg15
g205
sS'casteCluster'
p3243
(lp3244
g2967
asg46
g225
sg20
g2971
sS'astroCluster'
p3245
(lp3246
g3187
asg25
S' 0422-2432545, 9442607679'
p3247
sg49
S'H1B'
p3248
sg5
S'USA employed boy'
p3249
sg29
g2971
sa(dp3250
S'baseCluster'
p3251
(lp3252
g211
asS'jobCluster'
p3253
(lp3254
g105
asg288
g289
sg5
S'seeks Prof Qlfd Brahmin Boy working in US.'
p3255
sg11
S'kvgeeta29@hotmail.com'
p3256
sg125
g1775
sg13
g107
sg15
g1193
sS'casteCluster'
p3257
(lp3258
g2967
asg20
g2971
sS'astroCluster'
p3259
(lp3260
g1781
asg78
g649
sg25
S' 001510387724'
p3261
sg27
g88
sg29
g2971
sa(dp3262
S'descCluster'
p3263
(lp3264
g34
asS'jobCluster'
p3265
(lp3266
g333
asg60
S'Kannada'
p3267
sg5
S'brahmin boys below 31 well settld only'
p3268
sg9
g1279
sg27
S'82'
p3269
sg13
g830
sg15
g814
sS'casteCluster'
p3270
(lp3271
g3183
asg46
g101
sS'baseCluster'
p3272
(lp3273
g817
asg78
g649
sg49
g212
sg11
S'purva.chitta@gmail.com'
p3274
sg29
g3189
sa(dp3275
S'descCluster'
p3276
(lp3277
g35
ag56
asS'baseCluster'
p3278
(lp3279
g24
asS'jobCluster'
p3280
(lp3281
g486
asg27
g179
sg9
g567
sg125
S'Uthirattadhi'
p3282
sg13
g490
sg145
S'Box No.WW56886, THE HINDU, Chennai-600002.'
p3283
sS'casteCluster'
p3284
(lp3285
g2967
asg15
g16
sS'astroCluster'
p3286
(lp3287
S'uthirattadhi'
p3288
asg49
g1188
sg29
g3125
sa(dp3289
g27
g123
sg11
S'kalyanam1953@yahoo.com'
p3290
sS'casteCluster'
p3291
(lp3292
g2967
asg46
g813
sg25
S' 044-23770704'
p3293
sg9
g185
sg5
S'Vadama/Brahacharanam Professionally Qualified Well Placed Groom within India below 28 yrs'
p3294
sg29
g2982
sa(dp3295
S'jobCluster'
p3296
(lp3297
g105
asg5
S'seeks Post Graduate groom well employed, UK/US based preferred'
p3298
sg9
g364
sg125
g290
sg27
g142
sg13
S'working in London'
p3299
sg145
S'Box No. BA-187, THE HINDU, Bangalore-560 001.'
p3300
sS'casteCluster'
p3301
(lp3302
S'vadamal, kousika'
p3303
asg46
S'MMS BITS Pilani'
p3304
sS'astroCluster'
p3305
(lp3306
g297
asg11
S'bsmanian2004@rediffmail.com'
p3307
sg29
S'VADAMAL, KOUSIKA'
p3308
sa(dp3309
S'baseCluster'
p3310
(lp3311
g24
asS'jobCluster'
p3312
(lp3313
S'journalist'
p3314
asg27
g179
sg9
S'175'
p3315
sg125
S'Krithigai'
p3316
sg13
S'Journalist'
p3317
sg15
g16
sS'casteCluster'
p3318
(lp3319
g2967
asg46
S'M.A.'
p3320
sS'astroCluster'
p3321
(lp3322
S'krithigai'
p3323
asg25
S' 09840867499'
p3324
sg11
S'drdhar.sridhar@gmail.com'
p3325
sg29
g2971
sa(dp3326
S'baseCluster'
p3327
(lp3328
g327
asS'jobCluster'
p3329
(lp3330
S'top london firm'
p3331
asg5
S' seeks Well Placed,Educated Groom 25-28yrs also Working Overseas'
p3332
sg11
S'murali@amalhk.com'
p3333
sg125
g3180
sg13
S'top London Firm'
p3334
sg15
g321
sS'casteCluster'
p3335
(lp3336
g3183
asS'astroCluster'
p3337
(lp3338
g3187
asg27
g273
sg29
g3189
sa(dp3339
S'descCluster'
p3340
(lp3341
g35
asg288
g289
sg27
S'39'
p3342
sg9
g72
sg145
S'Box No.HA37383, THE HINDU, Chennai-600002.'
p3343
sS'casteCluster'
p3344
(lp3345
S'vadama koundinya'
p3346
asg46
S'Mcom'
p3347
sg15
g16
sS'baseCluster'
p3348
(lp3349
g24
asg49
S'Fair Looks Young'
p3350
sg5
S'Seeks Well Stld Groom Clean Habits Unmarried/Innocent Divorcee without Issues'
p3351
sg29
S'VADAMA KOUNDINYA'
p3352
sa(dp3353
g27
g3342
sg9
g642
sg15
g366
sS'casteCluster'
p3354
(lp3355
g2967
asg46
S'MPhil'
p3356
sS'baseCluster'
p3357
(lp3358
g161
asg25
S' 011-26030883'
p3359
sg5
S'any Brahmin Bachelor well qlfd well placed upto 46 yrs Delhi based'
p3360
sg29
g2982
sa(dp3361
S'baseCluster'
p3362
(lp3363
g161
asS'jobCluster'
p3364
(lp3365
g141
asS'incomeCluster'
p3366
(lp3367
S'5 lacs pa'
p3368
asg27
g320
sg9
g185
sg125
S'Ashwini'
p3369
sg13
g144
sg15
g366
sS'casteCluster'
p3370
(lp3371
g2967
asg92
S'5 Lacs PA'
p3372
sS'astroCluster'
p3373
(lp3374
g2226
asg25
S'01202484810, 09818125936'
p3375
sg5
S'seeks Prof Qlf & Well empld groom upto 33 yrs'
p3376
sg29
g2971
sa(dp3377
S'descCluster'
p3378
(lp3379
g35
asS'jobCluster'
p3380
(lp3381
g1108
asg27
g71
sg9
g661
sg13
S'Nurse'
p3382
sS'casteCluster'
p3383
(lp3384
g1718
asg29
S'Kallar'
p3385
sg11
g1114
sg49
g152
sa(dp3386
S'descCluster'
p3387
(lp3388
g35
asS'baseCluster'
p3389
(lp3390
g1862
asS'jobCluster'
p3391
(lp3392
g333
asg27
g97
sg9
g72
sg125
g167
sg13
g830
sg15
g1868
sS'casteCluster'
p3393
(lp3394
g3183
asS'astroCluster'
p3395
(lp3396
g176
asg25
S'044-23722084, 09841052376, 022-28913474'
p3397
sg49
g267
sg78
g250
sg29
g3189
sa(dp3398
S'descCluster'
p3399
(lp3400
g1505
asS'jobCluster'
p3401
(lp3402
g486
asg60
g1584
sg27
g88
sg9
g383
sg13
S'SW Engineer'
p3403
sg145
S'Box No.HA37391, THE HINDU, Chennai-600002.'
p3404
sS'casteCluster'
p3405
(lp3406
g130
asg46
g225
sg15
g1193
sS'baseCluster'
p3407
(lp3408
g211
asg49
g1513
sg29
g135
sa(dp3409
g27
g71
sg9
g456
sg125
g1556
sg11
S'nalini_nryn@yahoo.com'
p3410
sS'casteCluster'
p3411
(lp3412
g2967
asg20
g2971
sS'astroCluster'
p3413
(lp3414
g1562
asg5
S'seeks well Qlfd Boy settled abroad'
p3415
sg29
g2971
sa(dp3416
S'baseCluster'
p3417
(lp3418
g817
asS'jobCluster'
p3419
(lp3420
g486
asg27
g123
sg9
g456
sg125
S'Haritha'
p3421
sg13
g490
sg145
S'Box No.DM32236, THE HINDU, Chennai-600002.'
p3422
sS'casteCluster'
p3423
(lp3424
g2967
asg15
g814
sS'astroCluster'
p3425
(lp3426
S'haritha'
p3427
asg5
S'seeks well qualified clean habits groom age 25 to 29'
p3428
sg29
g2971
sa(dp3429
S'incomeCluster'
p3430
(lp3431
S'10000/pm'
p3432
asg288
g288
sg27
S'42'
p3433
sg9
g583
sg125
g3316
sS'casteCluster'
p3434
(lp3435
g2967
asg92
S'10000/pm'
p3436
sS'astroCluster'
p3437
(lp3438
g3323
asg25
S' 9445245746'
p3439
sg11
S'guru_1966@yahoo.co.in'
p3440
sg29
g2982
sa(dp3441
S'descCluster'
p3442
(lp3443
g35
asS'jobCluster'
p3444
(lp3445
g1089
asg27
g71
sg7
S'Deputy Collector'
p3446
sg9
g72
sg13
S'Programme Analyst'
p3447
sg15
g16
sS'casteCluster'
p3448
(lp3449
g2967
asg46
g190
sg20
S'BDO'
p3450
sS'baseCluster'
p3451
(lp3452
g24
asg25
S'9443626197, 9345010381'
p3453
sg49
g152
sg29
g2971
sa(dp3454
g27
g273
sg78
g854
sg9
g642
sS'casteCluster'
p3455
(lp3456
g2967
asg46
S'MDS'
p3457
sg25
S' 044-26194470,9994123965'
p3458
sg5
S'seeks qlfd MBBS/MDS 25-29'
p3459
sg29
g2982
sa(dp3460
S'descCluster'
p3461
(lp3462
g560
ag56
asS'baseCluster'
p3463
(lp3464
g211
asg49
S'Slim Good Looking Well Mannered '
p3465
sg5
S'seeks Well Qualified Clean Habits Employed in USA.'
p3466
sg9
g185
sg125
g1714
sg11
S'svram53@gmail.com'
p3467
sg15
g205
sS'casteCluster'
p3468
(lp3469
g2967
asg46
g1523
sS'astroCluster'
p3470
(lp3471
g519
asg78
g649
sg25
S' 044-23661960'
p3472
sg27
g28
sg29
g2971
sa(dp3473
S'jobCluster'
p3474
(lp3475
g141
asS'incomeCluster'
p3476
(lp3477
S'rs.9lpa'
p3478
asg288
g289
sg27
g51
sg13
g144
sg15
g16
sS'casteCluster'
p3479
(lp3480
g2967
asg92
S'Rs.9Lpa'
p3481
sS'baseCluster'
p3482
(lp3483
g24
asg25
S'044-24360058'
p3484
sg11
S'gnanaramu@yahoo.co.i'
p3485
sg29
g2971
sa(dp3486
S'descCluster'
p3487
(lp3488
g35
asS'jobCluster'
p3489
(lp3490
g2960
asg60
g1584
sg288
g288
sg5
S'professionals upto 42 clean habits from cultured fmly without issue'
p3491
sg9
g739
sg11
S'krishna_nataraj@yahoo.com'
p3492
sg13
g2964
sg145
S'Box No. HB-1680 THE HINDU Chennai-600002'
p3493
sS'casteCluster'
p3494
(lp3495
g2967
asg46
S'PGDCA'
p3496
sg15
g16
sS'baseCluster'
p3497
(lp3498
g24
asg49
S"very fair b'ful"
p3499
sg27
g307
sg29
g3125
sa(dp3500
S'baseCluster'
p3501
(lp3502
g211
asg27
g71
sg9
g526
sg125
g1370
sg15
g1193
sS'casteCluster'
p3503
(lp3504
g2967
asg46
g190
sg20
g2971
sS'astroCluster'
p3505
(lp3506
g1377
asg78
g649
sg11
S'jiravi1951@gmail.com'
p3507
sg29
g2971
sa(dp3508
S'jobCluster'
p3509
(lp3510
g59
asg288
g288
sg27
g51
sg9
g185
sg13
g62
sg145
S'Box No.KR42120, THE HINDU, Chennai-600002.'
p3511
sS'casteCluster'
p3512
(lp3513
g2967
asg46
S'M.com'
p3514
sg15
g16
sS'baseCluster'
p3515
(lp3516
g24
asg5
S'seeks qualified & well educated employed divorcee with out issues bridegroom'
p3517
sg29
g2982
sa(dp3518
S'jobCluster'
p3519
(lp3520
S'finance professional'
p3521
asg27
g97
sg13
S'finance professional'
p3522
sg15
g1193
sS'casteCluster'
p3523
(lp3524
g2967
asS'baseCluster'
p3525
(lp3526
g211
asg11
S'ssmarch76@gmail.com'
p3527
sg29
g3143
sa(dp3528
S'descCluster'
p3529
(lp3530
g35
asS'jobCluster'
p3531
(lp3532
g4
asg60
g2714
sg27
g71
sg13
g2900
sS'casteCluster'
p3533
(lp3534
g130
asg46
g112
sg25
S'9150232497'
p3535
sg49
g152
sg78
S'BBA'
p3536
sg29
g135
sa(dp3537
S'jobCluster'
p3538
(lp3539
g3018
asg27
g273
sg9
g642
sg125
g1714
sg13
g3021
sS'casteCluster'
p3540
(lp3541
S'manai telugu chetty'
p3542
asg46
g3457
sS'astroCluster'
p3543
(lp3544
g519
asg25
S' 044-24355670, 09884236555'
p3545
sg5
S'seeks professional.'
p3546
sg29
S'MANAI Telugu Chetty'
p3547
sa(dp3548
S'descCluster'
p3549
(lp3550
g35
asg27
g273
sg9
g456
sg125
g445
sS'casteCluster'
p3551
(lp3552
g1627
asg46
S'M.A. M.Ed.'
p3553
sS'astroCluster'
p3554
(lp3555
g451
asg25
S' 0413-2205581,9486414859'
p3556
sg49
g267
sg5
S'Seeks Employed Groom Gavara / Balija P.G / M.E./ P.hd.'
p3557
sg29
g1630
sa(dp3558
g27
g3042
sg125
g457
sS'casteCluster'
p3559
(lp3560
g1627
asS'astroCluster'
p3561
(lp3562
g463
asg25
S' 09442202609, 044-26478346'
p3563
sg5
S'all Naidu accpeted'
p3564
sg29
g1630
sa(dp3565
S'baseCluster'
p3566
(lp3567
g24
asg27
g273
sg9
g241
sg125
g445
sg11
S'rpsmrr@gmail.com'
p3568
sg145
S'Box No.HB-1563,The Hindu,Chennai-600002. Call 09444416352'
p3569
sS'casteCluster'
p3570
(lp3571
g1627
asg46
S'MSc (BITS Pilani) PhD'
p3572
sg15
g16
sS'astroCluster'
p3573
(lp3574
g451
asg78
g649
sg25
S' 09444416352'
p3575
sg29
g1630
sa(dp3576
S'descCluster'
p3577
(lp3578
g35
asS'baseCluster'
p3579
(lp3580
g24
asS'jobCluster'
p3581
(lp3582
g184
asg5
S'seeks good Professional.'
p3583
sg9
g203
sg125
g445
sg27
g273
sg13
g186
sg145
S'Box No.HB-1600 THE HINDU Chennai-600002. Ph'
p3584
sS'casteCluster'
p3585
(lp3586
g1627
asg46
g898
sg15
g16
sS'astroCluster'
p3587
(lp3588
g451
asg78
S'BA'
p3589
sg49
g152
sg25
S' 044-64542143'
p3590
sg29
g1630
sa(dp3591
S'descCluster'
p3592
(lp3593
g35
asS'baseCluster'
p3594
(lp3595
g24
asS'jobCluster'
p3596
(lp3597
g1012
asg5
S'Groom of traditions and values'
p3598
sg9
g456
sg125
g457
sg27
g123
sg13
S'Infosys'
p3599
sg15
g16
sS'casteCluster'
p3600
(lp3601
S'gavara'
p3602
asS'astroCluster'
p3603
(lp3604
g463
asg78
g3589
sg49
g152
sg25
S' 098949-90710'
p3605
sg29
S'GAVARA BALIJA'
p3606
sa(dp3607
S'baseCluster'
p3608
(lp3609
S'mysore'
p3610
asS'jobCluster'
p3611
(lp3612
g333
asS'incomeCluster'
p3613
(lp3614
S'6 lakhs/annum'
p3615
asg5
S'qualified groom'
p3616
sg9
g567
sg125
g2046
sg27
g142
sg13
g830
sg15
S'Mysore'
p3617
sS'casteCluster'
p3618
(lp3619
g3602
asg92
S'6 lakhs/annum'
p3620
sS'astroCluster'
p3621
(lp3622
g371
asg78
g649
sg25
S' 0422-2529991'
p3623
sg29
S'GAVARA'
p3624
sa(dp3625
S'descCluster'
p3626
(lp3627
g3240
asg5
S'groom decent family professionally well settled India/abroad'
p3628
sg9
g72
sg27
g71
sg15
g205
sS'casteCluster'
p3629
(lp3630
g3602
asS'baseCluster'
p3631
(lp3632
g211
asg25
S' 09843014268, 0423 2231578'
p3633
sg49
g3248
sg78
g496
sg29
g3624
sa(dp3634
S'descCluster'
p3635
(lp3636
g35
asS'jobCluster'
p3637
(lp3638
g1347
asg27
g220
sg9
g203
sg125
g512
sg13
g2307
sS'casteCluster'
p3639
(lp3640
g3602
asg46
g1386
sS'astroCluster'
p3641
(lp3642
g519
asg25
S' (0)94434-622'
p3643
sg49
g152
sg5
S'seeks groom above 30 yrs. Sub caste no bar'
p3644
sg29
g3624
sa(dp3645
g5
S'seeks Prof Qfd Emp groom'
p3646
sg9
g364
sg125
g365
sg27
g273
sS'casteCluster'
p3647
(lp3648
g3602
asg46
S'M.B.A'
p3649
sS'astroCluster'
p3650
(lp3651
g371
asg25
S' 04563-261176, 0-9486963225, 0-9597569366'
p3652
sg78
S'B.S.'
p3653
sg29
g3624
sa(dp3654
S'descCluster'
p3655
(lp3656
g35
asS'jobCluster'
p3657
(lp3658
g1347
asg27
g220
sg13
S'Assistant Surgeon in Govt'
p3659
sS'casteCluster'
p3660
(lp3661
S'rajakambalam'
p3662
asg25
S'044-22420019, 9841418308'
p3663
sg49
g267
sg5
S'seeks Doctor/Engineer Groom. Any Naidu acceptable'
p3664
sg29
S'RAJAKAMBALAM'
p3665
sa(dp3666
S'descCluster'
p3667
(lp3668
g35
asg60
S'Rich Educated'
p3669
sg27
g179
sg9
g642
sS'casteCluster'
p3670
(lp3671
g1627
asg46
S'M.Arch'
p3672
sg25
S' 09346873771'
p3673
sg49
g267
sg5
S'seeks Good Looking PG Engineering Rich Family.'
p3674
sg29
g1630
sa(dp3675
S'descCluster'
p3676
(lp3677
g35
asS'jobCluster'
p3678
(lp3679
g766
asg27
g337
sg13
g809
sS'casteCluster'
p3680
(lp3681
g1627
asg46
S'MCA MPhil'
p3682
sg25
S' 9840241555'
p3683
sg49
g267
sg5
S'seeks suitable groom MCA BE Decent Family'
p3684
sg29
g1630
sa(dp3685
g27
g71
sg9
g739
sg125
S'Mirugaseerisham Midhunam'
p3686
sS'casteCluster'
p3687
(lp3688
S'kammavar'
p3689
asg46
S'MSc N&D MPhil F&N'
p3690
sS'astroCluster'
p3691
(lp3692
S'mirugaseerisham midhunam'
p3693
asg25
S' 9841401297'
p3694
sg5
S'seeks well educated employed groom'
p3695
sg29
S'KAMMAVAR'
p3696
sa(dp3697
S'descCluster'
p3698
(lp3699
g158
asS'baseCluster'
p3700
(lp3701
g817
asS'jobCluster'
p3702
(lp3703
g1012
ag486
asg27
g142
sg9
g550
sg125
g1998
sg13
S'SWE Infosys'
p3704
sg145
S'Box No.BA-182, THE HINDU, Bangalore-560001.'
p3705
sS'casteCluster'
p3706
(lp3707
g1627
asg46
S'MA'
p3708
sg15
g814
sS'astroCluster'
p3709
(lp3710
g2005
asg78
g3589
sg49
g162
sg5
S'Caste no bar'
p3711
sg29
g1630
sa(dp3712
g60
(dp3713
g3669
(lp3714
I294
asg1451
(lp3715
I108
aI155
asg1312
(lp3716
I96
asg913
(lp3717
I62
asg1649
(lp3718
I124
asg444
(lp3719
I27
asg1065
(lp3720
I75
asg2866
(lp3721
I228
asg510
(lp3722
I32
asg2961
(lp3723
I236
asg2704
(lp3724
I213
asg1147
(lp3725
I82
asg1853
(lp3726
I141
asg1513
(lp3727
I208
asg8
(lp3728
I2
asg2493
(lp3729
I195
asg2607
(lp3730
I205
asg1221
(lp3731
I89
asg1584
(lp3732
I118
aI123
aI126
aI128
aI129
aI133
aI135
aI136
aI137
aI140
aI144
aI157
aI164
aI166
aI168
aI173
aI177
aI185
aI231
aI270
aI278
asg1951
(lp3733
I149
aI206
asg565
(lp3734
I36
asg827
(lp3735
I54
asg581
(lp3736
I37
asg165
(lp3737
I9
asg1129
(lp3738
I80
asg641
(lp3739
I42
asg1961
(lp3740
I150
asg541
(lp3741
I34
aI35
aI44
aI46
aI55
aI88
aI101
aI109
aI134
aI151
aI234
aI245
aI257
asg334
(lp3742
I19
asg3267
(lp3743
I259
asg937
(lp3744
I64
aI65
aI72
aI73
aI104
asg2816
(lp3745
I223
asg318
(lp3746
I18
asg100
(lp3747
I5
asg287
(lp3748
I16
asg1570
(lp3749
I117
aI160
asg87
(lp3750
I4
asg2714
(lp3751
I214
aI282
assg9
(dp3752
g124
(lp3753
I7
asg10
(lp3754
I0
aI9
aI130
aI172
aI185
aI229
aI239
asg383
(lp3755
I22
aI34
aI47
aI138
aI146
aI155
aI191
aI200
aI254
aI270
asg336
(lp3756
I19
aI27
aI107
aI150
aI152
aI169
aI178
aI231
asg72
(lp3757
I3
aI4
aI8
aI16
aI17
aI88
aI100
aI135
aI143
aI170
aI175
aI180
aI182
aI183
aI215
aI219
aI230
aI265
aI269
aI274
aI290
asg808
(lp3758
I53
aI59
aI60
aI129
asg364
(lp3759
I21
aI50
aI90
aI112
aI113
aI133
aI147
aI149
aI168
aI221
aI262
aI292
asg583
(lp3760
I37
aI38
aI44
aI58
aI128
aI181
aI189
aI199
aI273
asg661
(lp3761
I43
aI52
aI167
aI194
aI204
aI216
aI251
aI257
aI268
asg739
(lp3762
I48
aI74
aI123
aI141
aI208
aI222
aI253
aI278
aI296
asg2033
(lp3763
I156
asg1681
(lp3764
I126
asg1047
(lp3765
I73
asg241
(lp3766
I13
aI23
aI121
aI134
aI192
aI240
aI243
aI286
asg3120
(lp3767
I247
asg567
(lp3768
I36
aI39
aI46
aI55
aI195
aI202
aI260
aI289
asg185
(lp3769
I10
aI25
aI26
aI51
aI56
aI63
aI81
aI85
aI86
aI116
aI118
aI127
aI145
aI148
aI151
aI158
aI159
aI171
aI177
aI186
aI196
aI206
aI214
aI217
aI218
aI225
aI237
aI241
aI246
aI249
aI261
aI267
aI276
aI280
asg3077
(lp3770
I244
asg550
(lp3771
I35
aI76
aI98
aI124
aI137
aI184
aI238
aI245
aI297
asg526
(lp3772
I33
aI57
aI248
aI279
asg1279
(lp3773
I93
aI144
aI259
asg1066
(lp3774
I75
asg616
(lp3775
I40
aI201
asg2654
(lp3776
I209
asg203
(lp3777
I11
aI12
aI30
aI32
aI41
aI54
aI79
aI80
aI91
aI94
aI96
aI99
aI114
aI119
aI120
aI140
aI157
aI162
aI165
aI174
aI179
aI187
aI198
aI203
aI207
aI220
aI227
aI228
aI234
aI287
aI291
asg3315
(lp3778
I263
asg642
(lp3779
I42
aI49
aI77
aI78
aI101
aI132
aI136
aI142
aI160
aI188
aI197
aI205
aI224
aI232
aI242
aI252
aI266
aI275
aI283
aI294
asg456
(lp3780
I28
aI29
aI84
aI92
aI110
aI139
aI176
aI226
aI236
aI271
aI272
aI284
aI288
assg17
(dp3781
g2456
(lp3782
I192
asg3662
(lp3783
I293
asg3602
(lp3784
I288
aI289
aI290
aI291
aI292
asg1385
(lp3785
I102
aI120
aI145
aI177
asg2063
(lp3786
I158
asg3346
(lp3787
I265
asg172
(lp3788
I9
aI13
aI16
aI18
aI21
aI27
aI28
aI29
aI31
asg2707
(lp3789
I213
asg1521
(lp3790
I113
aI156
aI169
aI229
asg1736
(lp3791
I130
aI134
aI141
aI203
asg3542
(lp3792
I283
asg2917
(lp3793
I232
asg695
(lp3794
I45
aI49
aI50
aI55
aI59
aI61
aI64
aI65
aI66
aI67
aI68
aI69
aI70
aI71
aI72
aI73
aI79
aI81
aI82
aI99
aI103
aI104
aI105
aI106
aI128
aI136
aI161
aI168
aI173
aI198
aI217
aI223
asg75
(lp3795
I3
aI116
aI119
aI121
aI143
aI157
aI159
aI170
aI171
aI172
aI176
aI199
aI202
aI206
aI220
aI222
aI226
asg111
(lp3796
I6
asg1627
(lp3797
I122
aI284
aI285
aI286
aI287
aI294
aI295
aI297
asg1196
(lp3798
I87
aI98
aI107
aI146
aI154
aI180
aI184
aI194
aI195
aI196
aI201
aI205
aI224
aI227
asg2796
(lp3799
I221
asg2379
(lp3800
I186
asg632
(lp3801
I41
aI46
aI58
aI77
aI86
aI90
aI97
aI112
aI126
aI139
aI175
aI185
aI190
aI191
aI197
aI201
aI208
aI209
aI215
aI230
aI231
asg19
(lp3802
I0
aI2
aI41
aI43
aI46
aI51
aI52
aI53
aI54
aI56
aI58
aI93
aI199
aI225
aI234
asg3006
(lp3803
I239
asg2967
(lp3804
I236
aI237
aI240
aI242
aI243
aI244
aI245
aI247
aI248
aI249
aI250
aI251
aI255
aI257
aI258
aI260
aI261
aI263
aI266
aI267
aI271
aI272
aI273
aI274
aI275
aI276
aI277
aI278
aI279
aI280
aI281
asg3199
(lp3805
I253
asg2157
(lp3806
I166
asg2164
(lp3807
I167
asg530
(lp3808
I33
aI34
aI35
aI36
aI37
aI38
asg91
(lp3809
I4
aI42
aI44
aI47
aI48
aI50
aI55
aI57
aI62
aI63
aI75
aI80
aI83
aI84
aI85
aI96
asg1947
(lp3810
I148
asg45
(lp3811
I1
aI15
aI19
aI22
asg130
(lp3812
I7
aI8
aI94
aI133
aI151
aI162
aI214
aI270
aI282
asg1112
(lp3813
I78
asg1693
(lp3814
I127
aI132
aI138
aI153
asg1955
(lp3815
I149
asg1209
(lp3816
I88
aI101
aI187
aI218
asg3038
(lp3817
I241
asg1458
(lp3818
I108
asg1482
(lp3819
I110
asg696
(lp3820
I45
aI48
aI49
aI57
aI60
aI61
aI63
aI64
aI67
aI68
aI69
aI70
aI74
aI77
aI79
asg608
(lp3821
I39
asg1718
(lp3822
I129
aI268
asg3183
(lp3823
I252
aI254
aI256
aI259
aI264
aI269
asg2247
(lp3824
I174
asg3303
(lp3825
I262
asg208
(lp3826
I11
aI26
asg2634
(lp3827
I207
asg2120
(lp3828
I163
aI204
aI233
aI235
asg293
(lp3829
I16
aI17
aI20
aI23
aI24
aI25
aI30
asg1304
(lp3830
I95
aI178
aI179
aI193
aI228
asg189
(lp3831
I10
asg1986
(lp3832
I152
asg1531
(lp3833
I114
asg2992
(lp3834
I238
asg3109
(lp3835
I246
asg224
(lp3836
I12
aI89
aI91
aI92
aI100
aI109
aI111
aI115
aI117
aI118
aI124
aI135
aI137
aI140
aI142
aI155
aI156
aI164
aI182
aI183
aI188
aI189
aI210
aI211
aI216
aI219
asg1905
(lp3837
I144
asg3689
(lp3838
I296
asg1667
(lp3839
I125
aI131
asg516
(lp3840
I32
asg1935
(lp3841
I147
aI165
aI181
aI212
assg131
(dp3842
g2750
(lp3843
I216
asg176
(lp3844
I9
aI20
aI128
aI183
aI191
aI269
asg1938
(lp3845
I147
asg1213
(lp3846
I88
asg249
(lp3847
I13
asg3187
(lp3848
I252
aI255
aI257
aI264
asg1908
(lp3849
I144
asg1389
(lp3850
I102
aI117
aI171
asg1534
(lp3851
I114
aI197
aI198
asg3288
(lp3852
I260
asg2112
(lp3853
I162
aI241
asg371
(lp3854
I21
aI157
aI221
aI289
aI292
asg2194
(lp3855
I170
aI187
aI256
asg1657
(lp3856
I124
aI181
asg463
(lp3857
I28
aI285
aI288
asg3009
(lp3858
I239
asg2487
(lp3859
I194
asg2638
(lp3860
I207
asg2005
(lp3861
I153
aI158
aI188
aI236
aI242
aI297
asg1781
(lp3862
I133
aI159
aI168
aI184
aI199
aI258
asg495
(lp3863
I30
asg297
(lp3864
I16
aI25
aI182
aI262
asg3112
(lp3865
I246
asg1377
(lp3866
I101
aI174
aI279
asg1847
(lp3867
I140
asg479
(lp3868
I29
asg3693
(lp3869
I296
asg228
(lp3870
I12
aI111
aI240
asg451
(lp3871
I27
aI90
aI132
aI160
aI284
aI286
aI287
asg519
(lp3872
I32
aI86
aI118
aI129
aI142
aI154
aI169
aI201
aI219
aI220
aI253
aI276
aI283
aI291
asg3323
(lp3873
I263
aI273
asg1562
(lp3874
I116
aI152
aI185
aI223
aI244
aI271
asg2297
(lp3875
I179
asg2226
(lp3876
I172
aI267
asg3427
(lp3877
I272
asg315
(lp3878
I17
asg1894
(lp3879
I143
asg1272
(lp3880
I92
aI98
aI121
aI175
asg2734
(lp3881
I215
asg1308
(lp3882
I95
aI192
asg418
(lp3883
I24
asg133
(lp3884
I7
asg3069
(lp3885
I243
asg1741
(lp3886
I130
asg392
(lp3887
I22
assg2
(dp3888
g201
(lp3889
I11
asg960
(lp3890
I66
aI112
aI165
aI227
asg2215
(lp3891
I172
asg1441
(lp3892
I107
asg2402
(lp3893
I188
asg184
(lp3894
I10
aI23
aI75
aI77
aI83
aI174
aI247
aI287
asg1220
(lp3895
I89
asg306
(lp3896
I17
asg333
(lp3897
I19
aI54
aI132
aI151
aI259
aI269
aI289
asg862
(lp3898
I57
asg1012
(lp3899
I70
aI117
aI205
aI206
aI288
aI297
asg141
(lp3900
I8
aI13
aI25
aI26
aI31
aI35
aI51
aI95
aI126
aI137
aI144
aI184
aI194
aI222
aI239
aI242
aI267
aI277
asg2371
(lp3901
I186
asg105
(lp3902
I6
aI24
aI44
aI225
aI258
aI262
asg38
(lp3903
I1
aI9
aI15
aI48
aI93
aI134
aI145
aI166
aI182
aI190
asg1263
(lp3904
I92
asg1335
(lp3905
I98
asg1089
(lp3906
I77
aI248
aI274
asg2082
(lp3907
I160
asg122
(lp3908
I7
asg564
(lp3909
I36
asg59
(lp3910
I2
aI21
aI135
aI138
aI158
aI184
aI209
aI218
aI234
aI238
aI242
aI245
aI253
aI280
asg1108
(lp3911
I78
aI268
asg999
(lp3912
I69
aI103
aI207
aI228
asg766
(lp3913
I50
aI53
aI74
aI79
aI82
aI90
aI100
aI102
aI113
aI150
aI178
aI187
aI215
aI295
asg3331
(lp3914
I264
asg2741
(lp3915
I216
asg1636
(lp3916
I123
aI124
aI176
asg2960
(lp3917
I236
aI250
aI278
asg687
(lp3918
I45
aI104
aI118
aI120
aI155
aI162
aI203
aI204
aI226
asg2535
(lp3919
I199
asg3018
(lp3920
I240
aI283
asg3521
(lp3921
I281
asg1369
(lp3922
I101
aI191
aI243
asg471
(lp3923
I29
asg1347
(lp3924
I99
aI109
aI180
aI193
aI256
aI291
aI293
asg874
(lp3925
I58
aI86
aI130
aI141
aI156
aI167
aI210
aI211
asg4
(lp3926
I0
aI12
aI43
aI231
aI282
asg2199
(lp3927
I171
asg603
(lp3928
I39
asg1078
(lp3929
I76
asg380
(lp3930
I22
asg258
(lp3931
I14
aI91
aI254
asg724
(lp3932
I47
aI71
aI127
asg1713
(lp3933
I129
asg486
(lp3934
I30
aI33
aI45
aI46
aI49
aI55
aI65
aI67
aI68
aI69
aI70
aI71
aI73
aI80
aI91
aI94
aI103
aI104
aI106
aI111
aI125
aI127
aI128
aI131
aI133
aI142
aI144
aI147
aI155
aI162
aI164
aI173
aI177
aI192
aI196
aI203
aI205
aI206
aI212
aI213
aI219
aI226
aI228
aI244
aI251
aI260
aI270
aI272
aI297
asg627
(lp3935
I41
asg3314
(lp3936
I263
asg540
(lp3937
I34
asg351
(lp3938
I20
assg285
(dp3939
g286
(lp3940
I16
assg5
(dp3941
g525
(lp3942
I33
asg426
(lp3943
I25
aI131
asg3076
(lp3944
I244
asg94
(lp3945
I4
asg1342
(lp3946
I98
asg3211
(lp3947
I254
asg1794
(lp3948
I134
asg869
(lp3949
I57
asg3428
(lp3950
I272
asg1837
(lp3951
I139
asg67
(lp3952
I2
asg2375
(lp3953
I186
asg2726
(lp3954
I215
asg1849
(lp3955
I140
asg3351
(lp3956
I265
asg1165
(lp3957
I83
asg465
(lp3958
I28
asg1446
(lp3959
I107
asg2962
(lp3960
I236
asg914
(lp3961
I62
asg3104
(lp3962
I246
asg2432
(lp3963
I190
asg2849
(lp3964
I226
asg2453
(lp3965
I192
asg1229
(lp3966
I89
aI156
asg3674
(lp3967
I294
asg202
(lp3968
I11
asg3019
(lp3969
I240
asg734
(lp3970
I47
asg1980
(lp3971
I151
asg668
(lp3972
I43
asg1125
(lp3973
I79
asg3033
(lp3974
I241
asg2742
(lp3975
I216
asg1802
(lp3976
I135
asg651
(lp3977
I42
asg908
(lp3978
I61
asg1723
(lp3979
I129
asg218
(lp3980
I12
asg2545
(lp3981
I199
asg2244
(lp3982
I174
asg3062
(lp3983
I243
asg1909
(lp3984
I144
asg1552
(lp3985
I115
asg299
(lp3986
I16
asg802
(lp3987
I52
asg566
(lp3988
I36
asg582
(lp3989
I37
asg3491
(lp3990
I278
asg828
(lp3991
I54
asg2569
(lp3992
I201
asg2158
(lp3993
I166
asg1695
(lp3994
I127
asg2906
(lp3995
I231
asg599
(lp3996
I38
asg2350
(lp3997
I184
asg3616
(lp3998
I289
asg2488
(lp3999
I194
asg1600
(lp4000
I119
asg3628
(lp4001
I290
asg153
(lp4002
I8
asg1536
(lp4003
I114
asg335
(lp4004
I19
asg759
(lp4005
I49
asg194
(lp4006
I10
asg3051
(lp4007
I242
asg520
(lp4008
I32
asg3124
(lp4009
I247
asg2390
(lp4010
I187
asg3149
(lp4011
I250
asg2067
(lp4012
I158
asg1318
(lp4013
I96
asg3376
(lp4014
I267
asg926
(lp4015
I63
asg259
(lp4016
I14
asg3644
(lp4017
I291
asg1919
(lp4018
I145
asg3129
(lp4019
I248
asg3695
(lp4020
I296
asg1074
(lp4021
I75
asg2548
(lp4022
I200
asg407
(lp4023
I23
asg166
(lp4024
I9
asg3332
(lp4025
I264
asg2503
(lp4026
I196
asg3268
(lp4027
I259
asg3583
(lp4028
I287
asg452
(lp4029
I27
aI88
aI219
asg2006
(lp4030
I153
asg1578
(lp4031
I117
asg1135
(lp4032
I80
asg506
(lp4033
I31
asg277
(lp4034
I15
asg717
(lp4035
I46
asg1242
(lp4036
I90
asg2755
(lp4037
I217
asg1674
(lp4038
I126
aI176
asg106
(lp4039
I6
asg2574
(lp4040
I202
asg1514
(lp4041
I112
asg2328
(lp4042
I182
asg3664
(lp4043
I293
asg2177
(lp4044
I168
asg1079
(lp4045
I76
asg440
(lp4046
I26
asg3179
(lp4047
I252
asg1637
(lp4048
I123
asg2045
(lp4049
I157
asg1884
(lp4050
I143
asg2015
(lp4051
I154
asg240
(lp4052
I13
asg3564
(lp4053
I285
asg39
(lp4054
I1
asg3360
(lp4055
I266
asg738
(lp4056
I48
asg2138
(lp4057
I164
asg1831
(lp4058
I138
asg3646
(lp4059
I292
asg2305
(lp4060
I180
asg2494
(lp4061
I195
asg3459
(lp4062
I275
asg1183
(lp4063
I86
asg3249
(lp4064
I257
asg2444
(lp4065
I191
asg3415
(lp4066
I271
asg2629
(lp4067
I207
asg1100
(lp4068
I77
asg3546
(lp4069
I283
asg2881
(lp4070
I229
asg1330
(lp4071
I97
asg778
(lp4072
I50
asg3557
(lp4073
I284
asg1249
(lp4074
I91
asg3090
(lp4075
I245
asg1962
(lp4076
I150
asg1153
(lp4077
I82
asg1284
(lp4078
I93
asg899
(lp4079
I60
asg2720
(lp4080
I214
asg1617
(lp4081
I121
asg2764
(lp4082
I218
asg1990
(lp4083
I152
asg3138
(lp4084
I249
asg2817
(lp4085
I223
asg1192
(lp4086
I87
asg1523
(lp4087
I113
asg3711
(lp4088
I297
asg381
(lp4089
I22
asg1494
(lp4090
I111
asg2521
(lp4091
I198
asg858
(lp4092
I56
asg1452
(lp4093
I108
asg3294
(lp4094
I261
asg2181
(lp4095
I169
asg2083
(lp4096
I160
asg2425
(lp4097
I189
asg3166
(lp4098
I251
asg1815
(lp4099
I137
asg691
(lp4100
I45
asg3517
(lp4101
I280
asg2671
(lp4102
I210
aI213
asg2830
(lp4103
I224
asg1782
(lp4104
I133
asg3466
(lp4105
I276
asg620
(lp4106
I40
asg2288
(lp4107
I178
asg3255
(lp4108
I258
asg1143
(lp4109
I81
asg1391
(lp4110
I102
asg2206
(lp4111
I171
asg2258
(lp4112
I175
asg2790
(lp4113
I220
asg373
(lp4114
I21
asg1289
(lp4115
I94
asg875
(lp4116
I58
asg3298
(lp4117
I262
asg2975
(lp4118
I237
asg2988
(lp4119
I238
asg2894
(lp4120
I230
asg1352
(lp4121
I99
asg3236
(lp4122
I256
asg673
(lp4123
I44
asg2216
(lp4124
I172
asg2323
(lp4125
I181
asg611
(lp4126
I39
asg3684
(lp4127
I295
asg487
(lp4128
I30
asg2800
(lp4129
I221
asg6
(lp4130
I0
asg3011
(lp4131
I239
asg319
(lp4132
I18
asg99
(lp4133
I5
asg1485
(lp4134
I110
asg1769
(lp4135
I132
asg3222
(lp4136
I255
asg1473
(lp4137
I109
asg3598
(lp4138
I288
asg542
(lp4139
I34
asg2653
(lp4140
I209
asg2914
(lp4141
I232
asg2470
(lp4142
I193
asg1061
(lp4143
I74
asg1629
(lp4144
I122
asg2940
(lp4145
I234
asg2812
(lp4146
I222
assg7
(dp4147
g40
(lp4148
I1
aI2
aI17
aI27
aI43
aI45
aI55
aI61
aI73
aI79
aI101
aI128
aI135
aI155
aI187
aI218
aI219
aI238
aI254
asg382
(lp4149
I22
asg8
(lp4150
I0
asg2875
(lp4151
I229
asg143
(lp4152
I8
aI42
asg3091
(lp4153
I245
asg3446
(lp4154
I274
asg2471
(lp4155
I234
asg260
(lp4156
I14
asg2549
(lp4157
I200
assg46
(dp4158
g3347
(lp4159
I265
asg3356
(lp4160
I266
asg3708
(lp4161
I297
asg324
(lp4162
I18
asg3672
(lp4163
I294
asg402
(lp4164
I23
asg47
(lp4165
I1
asg1210
(lp4166
I88
asg1326
(lp4167
I97
asg813
(lp4168
I53
aI58
aI123
aI141
aI261
asg2341
(lp4169
I183
asg2890
(lp4170
I230
asg3553
(lp4171
I284
asg665
(lp4172
I43
asg1238
(lp4173
I90
asg2498
(lp4174
I195
asg112
(lp4175
I6
aI11
aI13
aI21
aI25
aI29
aI37
aI40
aI62
aI63
aI75
aI77
aI82
aI98
aI103
aI114
aI115
aI120
aI122
aI149
aI157
aI160
aI163
aI169
aI184
aI185
aI189
aI200
aI207
aI218
aI231
aI232
aI242
aI282
asg646
(lp4176
I42
asg756
(lp4177
I49
asg415
(lp4178
I24
asg101
(lp4179
I5
aI8
aI31
aI54
aI137
aI202
aI209
aI259
asg2064
(lp4180
I158
asg898
(lp4181
I60
aI124
aI138
aI167
aI171
aI237
aI287
asg1559
(lp4182
I116
asg3304
(lp4183
I262
asg1386
(lp4184
I102
aI110
aI113
aI135
aI142
aI199
aI291
asg2839
(lp4185
I225
asg2173
(lp4186
I168
asg173
(lp4187
I9
asg3572
(lp4188
I286
asg3184
(lp4189
I252
asg2667
(lp4190
I210
asg1737
(lp4191
I130
asg790
(lp4192
I51
asg854
(lp4193
I56
aI145
asg1976
(lp4194
I151
asg1719
(lp4195
I129
asg3496
(lp4196
I278
asg3095
(lp4197
I245
asg633
(lp4198
I41
aI216
aI221
asg3682
(lp4199
I295
asg1123
(lp4200
I79
aI215
asg1597
(lp4201
I119
aI170
asg743
(lp4202
I48
asg3320
(lp4203
I263
asg2380
(lp4204
I186
asg3649
(lp4205
I292
asg225
(lp4206
I12
aI14
aI35
aI80
aI94
aI99
aI101
aI153
aI164
aI180
aI181
aI187
aI191
aI208
aI214
aI222
aI254
aI257
aI270
asg3514
(lp4207
I280
asg774
(lp4208
I50
asg1966
(lp4209
I150
asg190
(lp4210
I10
aI32
aI46
aI87
aI154
aI217
aI248
aI274
aI279
asg3690
(lp4211
I296
asg798
(lp4212
I52
aI74
aI86
aI112
aI132
aI140
aI188
aI201
aI223
aI239
asg3457
(lp4213
I275
aI283
asg597
(lp4214
I38
asg1523
(lp4215
I196
aI276
assg92
(dp4216
g1414
(lp4217
I104
asg294
(lp4218
I16
asg3620
(lp4219
I289
asg967
(lp4220
I66
aI73
asg1668
(lp4221
I125
asg732
(lp4222
I47
aI173
asg1020
(lp4223
I70
asg1305
(lp4224
I95
asg992
(lp4225
I68
asg2121
(lp4226
I163
asg1034
(lp4227
I71
asg3481
(lp4228
I277
asg1548
(lp4229
I115
asg2680
(lp4230
I211
asg1871
(lp4231
I142
asg980
(lp4232
I67
asg843
(lp4233
I55
asg1006
(lp4234
I69
asg791
(lp4235
I51
asg1891
(lp4236
I143
asg697
(lp4237
I45
asg1327
(lp4238
I97
asg930
(lp4239
I63
aI117
asg2918
(lp4240
I232
asg2381
(lp4241
I186
asg2596
(lp4242
I204
asg2036
(lp4243
I156
asg1738
(lp4244
I130
aI151
aI164
aI199
aI233
aI235
asg93
(lp4245
I4
asg2587
(lp4246
I203
asg2945
(lp4247
I234
asg713
(lp4248
I46
asg1483
(lp4249
I110
asg2484
(lp4250
I194
asg1610
(lp4251
I120
asg2002
(lp4252
I153
asg2311
(lp4253
I180
asg757
(lp4254
I49
aI65
aI103
asg2694
(lp4255
I212
aI213
asg2457
(lp4256
I192
asg2635
(lp4257
I207
asg2611
(lp4258
I205
aI206
aI227
asg3232
(lp4259
I256
asg2421
(lp4260
I189
asg1097
(lp4261
I77
asg2409
(lp4262
I188
asg833
(lp4263
I54
asg2780
(lp4264
I219
asg1765
(lp4265
I132
aI201
aI226
asg3436
(lp4266
I273
asg1753
(lp4267
I131
aI177
asg775
(lp4268
I50
asg3372
(lp4269
I267
asg2147
(lp4270
I165
asg666
(lp4271
I43
asg1433
(lp4272
I106
assg25
(dp4273
g3683
(lp4274
I295
asg2364
(lp4275
I185
asg1979
(lp4276
I151
asg1819
(lp4277
I137
asg1059
(lp4278
I74
asg3058
(lp4279
I242
asg733
(lp4280
I47
asg2588
(lp4281
I203
asg2822
(lp4282
I223
asg575
(lp4283
I36
asg2516
(lp4284
I197
asg1390
(lp4285
I102
asg3026
(lp4286
I240
asg2150
(lp4287
I165
asg2995
(lp4288
I238
asg758
(lp4289
I49
asg2385
(lp4290
I186
asg3439
(lp4291
I273
asg431
(lp4292
I25
asg1628
(lp4293
I122
asg3235
(lp4294
I256
asg2981
(lp4295
I237
asg1199
(lp4296
I87
asg1830
(lp4297
I138
asg1563
(lp4298
I116
asg1640
(lp4299
I123
asg1918
(lp4300
I145
asg76
(lp4301
I3
aI4
aI85
asg1756
(lp4302
I131
asg2921
(lp4303
I232
asg3643
(lp4304
I291
asg2499
(lp4305
I195
asg2840
(lp4306
I225
asg3633
(lp4307
I290
asg1273
(lp4308
I92
asg2053
(lp4309
I157
asg2122
(lp4310
I163
asg2852
(lp4311
I226
asg1848
(lp4312
I140
asg1535
(lp4313
I114
asg981
(lp4314
I67
aI68
aI69
aI70
aI71
aI73
aI103
aI105
aI106
asg2556
(lp4315
I200
asg1459
(lp4316
I108
asg3123
(lp4317
I247
asg3458
(lp4318
I275
asg546
(lp4319
I34
asg1341
(lp4320
I98
asg3247
(lp4321
I257
asg3359
(lp4322
I266
asg2344
(lp4323
I183
asg2799
(lp4324
I221
asg2783
(lp4325
I219
asg1925
(lp4326
I146
asg480
(lp4327
I29
asg2683
(lp4328
I211
aI213
asg3694
(lp4329
I296
asg2670
(lp4330
I210
aI212
asg3545
(lp4331
I283
asg1484
(lp4332
I110
asg26
(lp4333
I0
asg1124
(lp4334
I79
asg2648
(lp4335
I208
asg2751
(lp4336
I216
asg3113
(lp4337
I246
asg2544
(lp4338
I199
asg2460
(lp4339
I192
asg933
(lp4340
I63
asg1613
(lp4341
I120
asg3083
(lp4342
I244
asg921
(lp4343
I62
asg1141
(lp4344
I81
asg2660
(lp4345
I209
asg2195
(lp4346
I170
asg3202
(lp4347
I253
asg1658
(lp4348
I124
asg3210
(lp4349
I254
asg3010
(lp4350
I239
asg1623
(lp4351
I121
asg1500
(lp4352
I111
asg3136
(lp4353
I248
asg1083
(lp4354
I76
asg3070
(lp4355
I243
asg1722
(lp4356
I129
asg3590
(lp4357
I287
asg2509
(lp4358
I196
asg2424
(lp4359
I189
asg1171
(lp4360
I84
asg3375
(lp4361
I267
asg2597
(lp4362
I204
asg589
(lp4363
I37
asg419
(lp4364
I24
asg117
(lp4365
I6
asg3293
(lp4366
I261
asg701
(lp4367
I45
asg1967
(lp4368
I150
asg2205
(lp4369
I171
asg2298
(lp4370
I179
asg1294
(lp4371
I94
asg3472
(lp4372
I276
asg681
(lp4373
I44
asg497
(lp4374
I30
asg941
(lp4375
I64
aI65
aI66
aI72
aI104
asg344
(lp4376
I19
asg879
(lp4377
I58
asg65
(lp4378
I2
asg298
(lp4379
I16
asg1768
(lp4380
I132
asg394
(lp4381
I22
asg1742
(lp4382
I130
asg2577
(lp4383
I202
aI206
asg358
(lp4384
I20
asg251
(lp4385
I13
asg3173
(lp4386
I251
asg1669
(lp4387
I125
asg1445
(lp4388
I107
asg2113
(lp4389
I162
asg2789
(lp4390
I220
asg3605
(lp4391
I288
asg3397
(lp4392
I269
asg776
(lp4393
I50
asg2165
(lp4394
I167
asg230
(lp4395
I12
asg3535
(lp4396
I282
asg505
(lp4397
I31
asg1522
(lp4398
I113
asg906
(lp4399
I61
asg746
(lp4400
I48
asg2862
(lp4401
I227
asg48
(lp4402
I1
asg2930
(lp4403
I233
asg1874
(lp4404
I142
asg3623
(lp4405
I289
asg2769
(lp4406
I218
asg868
(lp4407
I57
asg533
(lp4408
I33
asg2956
(lp4409
I235
asg134
(lp4410
I7
asg2639
(lp4411
I207
asg2279
(lp4412
I177
asg846
(lp4413
I55
asg3157
(lp4414
I250
asg1073
(lp4415
I75
asg1694
(lp4416
I127
asg2443
(lp4417
I191
asg2099
(lp4418
I161
asg1309
(lp4419
I95
asg1512
(lp4420
I112
asg889
(lp4421
I59
asg1134
(lp4422
I80
asg1809
(lp4423
I136
asg2014
(lp4424
I154
asg1472
(lp4425
I109
asg1189
(lp4426
I86
asg1836
(lp4427
I139
asg3575
(lp4428
I286
asg2412
(lp4429
I188
asg1792
(lp4430
I134
asg1709
(lp4431
I128
asg1801
(lp4432
I135
asg555
(lp4433
I35
asg2870
(lp4434
I228
asg2333
(lp4435
I182
asg1351
(lp4436
I99
asg3453
(lp4437
I274
asg328
(lp4438
I18
asg2250
(lp4439
I174
asg2186
(lp4440
I169
asg193
(lp4441
I10
asg178
(lp4442
I9
asg406
(lp4443
I23
asg2257
(lp4444
I175
asg2287
(lp4445
I178
asg792
(lp4446
I51
asg3663
(lp4447
I293
asg3556
(lp4448
I284
asg2314
(lp4449
I180
asg2469
(lp4450
I193
asg3652
(lp4451
I292
asg1227
(lp4452
I89
asg2970
(lp4453
I236
asg3324
(lp4454
I263
asg1989
(lp4455
I152
asg2612
(lp4456
I205
asg266
(lp4457
I14
asg3563
(lp4458
I285
asg3673
(lp4459
I294
asg3484
(lp4460
I277
asg2735
(lp4461
I215
asg1241
(lp4462
I90
asg2357
(lp4463
I184
asg3261
(lp4464
I258
asg372
(lp4465
I21
asg2037
(lp4466
I156
asg2091
(lp4467
I160
asg1939
(lp4468
I147
asg2526
(lp4469
I198
asg1956
(lp4470
I149
asg2829
(lp4471
I224
asg276
(lp4472
I15
asg98
(lp4473
I5
asg151
(lp4474
I8
asg667
(lp4475
I43
asg1895
(lp4476
I143
asg2322
(lp4477
I181
assg11
(dp4478
g1682
(lp4479
I126
asg2649
(lp4480
I208
asg3527
(lp4481
I281
asg213
(lp4482
I11
asg2306
(lp4483
I180
asg3440
(lp4484
I273
asg3106
(lp4485
I246
asg3167
(lp4486
I251
asg674
(lp4487
I44
asg2655
(lp4488
I209
asg584
(lp4489
I37
asg3467
(lp4490
I276
asg2517
(lp4491
I197
asg3274
(lp4492
I259
asg3195
(lp4493
I253
asg2760
(lp4494
I217
asg3078
(lp4495
I244
asg489
(lp4496
I30
asg2942
(lp4497
I234
asg3188
(lp4498
I252
asg1886
(lp4499
I143
asg1932
(lp4500
I147
asg3410
(lp4501
I271
asg1453
(lp4502
I108
asg420
(lp4503
I24
asg895
(lp4504
I60
asg1265
(lp4505
I92
asg3130
(lp4506
I248
asg3290
(lp4507
I261
asg2989
(lp4508
I238
asg3256
(lp4509
I258
asg1689
(lp4510
I127
asg927
(lp4511
I63
asg12
(lp4512
I0
asg1963
(lp4513
I150
asg1114
(lp4514
I78
aI268
asg2413
(lp4515
I188
asg3034
(lp4516
I241
asg3568
(lp4517
I286
asg41
(lp4518
I1
asg829
(lp4519
I54
asg3020
(lp4520
I240
asg3064
(lp4521
I243
asg2550
(lp4522
I200
asg568
(lp4523
I36
asg3333
(lp4524
I264
asg604
(lp4525
I39
asg2744
(lp4526
I216
asg2728
(lp4527
I215
asg1250
(lp4528
I91
asg2504
(lp4529
I196
asg890
(lp4530
I59
asg329
(lp4531
I18
asg3142
(lp4532
I249
asg3150
(lp4533
I250
asg2265
(lp4534
I176
asg740
(lp4535
I48
asg1833
(lp4536
I139
asg1300
(lp4537
I95
asg1816
(lp4538
I137
asg1638
(lp4539
I123
asg3307
(lp4540
I262
asg3507
(lp4541
I279
asg1200
(lp4542
I87
asg2976
(lp4543
I237
asg2963
(lp4544
I236
asg3092
(lp4545
I245
asg261
(lp4546
I14
asg3485
(lp4547
I277
asg3325
(lp4548
I263
asg168
(lp4549
I9
asg2495
(lp4550
I195
asg527
(lp4551
I33
asg1952
(lp4552
I149
asg3492
(lp4553
I278
asg2218
(lp4554
I172
asg3052
(lp4555
I242
assg84
(dp4556
g284
(lp4557
I16
asg1867
(lp4558
I142
asg3478
(lp4559
I277
asg1322
(lp4560
I97
asg727
(lp4561
I47
aI173
asg2939
(lp4562
I234
asg1015
(lp4563
I70
asg925
(lp4564
I63
aI95
aI117
asg989
(lp4565
I68
asg2117
(lp4566
I163
asg1030
(lp4567
I71
asg1607
(lp4568
I120
aI204
asg769
(lp4569
I50
asg1544
(lp4570
I115
asg2677
(lp4571
I211
asg976
(lp4572
I67
asg840
(lp4573
I55
asg1002
(lp4574
I69
asg690
(lp4575
I45
aI51
asg1664
(lp4576
I125
asg3368
(lp4577
I267
asg963
(lp4578
I66
aI73
asg2479
(lp4579
I194
asg2913
(lp4580
I232
asg86
(lp4581
I4
asg2374
(lp4582
I186
asg1997
(lp4583
I153
asg2691
(lp4584
I212
aI213
asg660
(lp4585
I43
asg1411
(lp4586
I104
asg2606
(lp4587
I205
aI206
aI227
asg1479
(lp4588
I110
asg1732
(lp4589
I130
aI151
aI164
aI199
aI233
aI235
asg708
(lp4590
I46
asg2777
(lp4591
I219
asg2032
(lp4592
I156
asg3615
(lp4593
I289
asg2304
(lp4594
I180
asg753
(lp4595
I49
aI65
aI103
asg2452
(lp4596
I192
asg2628
(lp4597
I207
asg826
(lp4598
I54
asg2584
(lp4599
I203
asg1092
(lp4600
I77
asg2405
(lp4601
I188
asg1883
(lp4602
I143
asg2417
(lp4603
I189
asg1762
(lp4604
I132
aI201
aI226
aI256
asg3432
(lp4605
I273
asg1750
(lp4606
I131
aI177
asg2144
(lp4607
I165
asg1428
(lp4608
I106
assg125
(dp4609
g512
(lp4610
I32
aI86
aI118
aI154
aI169
aI219
aI220
aI253
aI291
asg1983
(lp4611
I152
asg457
(lp4612
I28
aI285
aI288
asg2046
(lp4613
I157
aI289
asg2189
(lp4614
I170
aI187
asg3002
(lp4615
I239
asg2630
(lp4616
I207
asg1998
(lp4617
I153
aI188
aI236
aI242
aI297
asg1775
(lp4618
I133
aI159
aI168
aI199
aI258
asg488
(lp4619
I30
asg1650
(lp4620
I124
aI181
asg126
(lp4621
I7
asg308
(lp4622
I17
asg1931
(lp4623
I147
asg365
(lp4624
I21
aI221
aI292
asg445
(lp4625
I27
aI90
aI132
aI160
aI284
aI286
aI287
asg2727
(lp4626
I215
asg3316
(lp4627
I263
aI273
asg2059
(lp4628
I158
asg1556
(lp4629
I116
aI185
aI223
aI244
aI271
asg1370
(lp4630
I101
aI174
aI279
asg2292
(lp4631
I179
asg1714
(lp4632
I129
aI142
aI201
aI276
aI283
asg1842
(lp4633
I140
asg3421
(lp4634
I272
asg3105
(lp4635
I246
asg1885
(lp4636
I143
asg3686
(lp4637
I296
asg1264
(lp4638
I92
aI98
aI121
aI175
asg472
(lp4639
I29
asg242
(lp4640
I13
asg1301
(lp4641
I95
aI192
asg412
(lp4642
I24
asg2351
(lp4643
I184
asg3369
(lp4644
I267
asg167
(lp4645
I9
aI20
aI128
aI183
aI191
aI269
asg3063
(lp4646
I243
asg1528
(lp4647
I114
aI197
aI198
asg384
(lp4648
I22
asg219
(lp4649
I12
aI111
aI240
asg3229
(lp4650
I256
asg2743
(lp4651
I216
asg1900
(lp4652
I144
asg2106
(lp4653
I162
aI241
asg1205
(lp4654
I88
asg3180
(lp4655
I252
aI255
aI257
aI264
asg1381
(lp4656
I102
aI117
aI171
asg2217
(lp4657
I172
asg1733
(lp4658
I130
asg3282
(lp4659
I260
asg2480
(lp4660
I194
asg290
(lp4661
I16
aI25
aI182
aI262
assg13
(dp4662
g692
(lp4663
I45
aI104
asg2836
(lp4664
I225
asg42
(lp4665
I1
aI9
aI15
aI48
aI93
aI134
aI145
aI166
aI182
aI190
asg1251
(lp4666
I91
asg1266
(lp4667
I92
asg1465
(lp4668
I109
aI193
asg1222
(lp4669
I89
asg863
(lp4670
I57
asg2107
(lp4671
I162
asg2084
(lp4672
I160
asg1348
(lp4673
I99
asg543
(lp4674
I34
asg2352
(lp4675
I184
asg809
(lp4676
I53
aI74
aI79
aI82
aI90
aI100
aI113
aI150
aI178
aI187
aI295
asg2867
(lp4677
I228
asg107
(lp4678
I6
aI24
aI44
aI258
asg728
(lp4679
I47
asg3021
(lp4680
I240
aI283
asg2608
(lp4681
I205
aI206
asg2406
(lp4682
I188
asg62
(lp4683
I2
aI21
aI135
aI138
aI158
aI209
aI218
aI234
aI238
aI245
aI280
asg1690
(lp4684
I127
asg3131
(lp4685
I248
asg964
(lp4686
I66
aI112
aI165
aI227
asg385
(lp4687
I22
asg3196
(lp4688
I253
asg473
(lp4689
I29
asg262
(lp4690
I14
asg14
(lp4691
I0
asg3053
(lp4692
I242
asg1031
(lp4693
I71
asg2200
(lp4694
I171
asg771
(lp4695
I50
aI215
asg2219
(lp4696
I172
asg1495
(lp4697
I111
aI147
aI251
asg977
(lp4698
I67
asg3403
(lp4699
I270
asg1003
(lp4700
I69
aI103
asg3447
(lp4701
I274
asg2964
(lp4702
I236
aI250
aI278
asg3599
(lp4703
I288
asg1442
(lp4704
I107
asg3207
(lp4705
I254
asg605
(lp4706
I39
asg1639
(lp4707
I123
aI176
asg490
(lp4708
I30
aI33
aI46
aI49
aI55
aI65
aI68
aI80
aI94
aI125
aI128
aI131
aI133
aI142
aI164
aI177
aI192
aI196
aI212
aI213
aI219
aI244
aI260
aI272
asg628
(lp4709
I41
asg221
(lp4710
I12
asg2538
(lp4711
I199
asg1371
(lp4712
I101
aI191
aI243
asg569
(lp4713
I36
asg3659
(lp4714
I293
asg3382
(lp4715
I268
asg204
(lp4716
I11
asg1080
(lp4717
I76
asg2376
(lp4718
I186
asg1016
(lp4719
I70
asg2745
(lp4720
I216
asg1429
(lp4721
I106
asg1336
(lp4722
I98
asg1585
(lp4723
I118
aI120
aI204
asg662
(lp4724
I43
asg1093
(lp4725
I77
asg398
(lp4726
I23
asg127
(lp4727
I7
asg1571
(lp4728
I117
asg2307
(lp4729
I180
aI256
aI291
asg1109
(lp4730
I78
asg144
(lp4731
I8
aI13
aI25
aI26
aI31
aI35
aI51
aI95
aI126
aI137
aI194
aI222
aI239
aI267
aI277
asg876
(lp4732
I58
aI86
aI130
aI141
aI156
aI167
aI210
aI211
asg2900
(lp4733
I231
aI282
asg1382
(lp4734
I102
asg1651
(lp4735
I124
asg1715
(lp4736
I129
asg186
(lp4737
I10
aI75
aI83
aI174
aI247
aI287
asg309
(lp4738
I17
asg1901
(lp4739
I144
asg3317
(lp4740
I263
asg2019
(lp4741
I155
aI203
aI226
asg3704
(lp4742
I297
asg2631
(lp4743
I207
asg3334
(lp4744
I264
asg338
(lp4745
I19
asg1048
(lp4746
I73
asg830
(lp4747
I54
aI132
aI151
aI259
aI269
aI289
asg3522
(lp4748
I281
asg2235
(lp4749
I173
asg352
(lp4750
I20
asg3299
(lp4751
I262
assg15
(dp4752
g108
(lp4753
I6
asg570
(lp4754
I36
aI161
aI196
asg3151
(lp4755
I250
asg205
(lp4756
I11
aI39
aI42
aI48
aI57
aI89
aI97
aI128
aI186
aI237
aI245
aI252
aI257
aI276
aI290
asg1868
(lp4757
I142
aI240
aI269
asg675
(lp4758
I44
asg2085
(lp4759
I160
asg16
(lp4760
I0
aI8
aI10
aI14
aI16
aI17
aI19
aI25
aI26
aI27
aI28
aI32
aI33
aI35
aI37
aI40
aI41
aI45
aI52
aI56
aI59
aI62
aI63
aI70
aI76
aI77
aI80
aI82
aI88
aI91
aI93
aI96
aI101
aI106
aI112
aI115
aI118
aI119
aI124
aI126
aI131
aI133
aI138
aI150
aI153
aI158
aI159
aI164
aI177
aI179
aI180
aI183
aI184
aI189
aI192
aI194
aI199
aI201
aI208
aI210
aI211
aI214
aI215
aI221
aI222
aI229
aI230
aI231
aI260
aI263
aI265
aI274
aI277
aI278
aI280
aI286
aI287
aI288
asg2551
(lp4761
I200
asg712
(lp4762
I46
asg169
(lp4763
I9
asg1890
(lp4764
I143
aI244
asg474
(lp4765
I29
aI30
asg1466
(lp4766
I109
asg353
(lp4767
I20
asg3168
(lp4768
I251
asg366
(lp4769
I21
aI141
aI266
aI267
asg1193
(lp4770
I87
aI134
aI238
aI248
aI258
aI270
aI279
aI281
asg321
(lp4771
I18
aI264
asg389
(lp4772
I22
asg2223
(lp4773
I172
aI217
aI234
aI255
asg3617
(lp4774
I289
asg399
(lp4775
I23
asg814
(lp4776
I53
aI55
aI92
aI120
aI151
aI155
aI157
aI162
aI212
aI213
aI218
aI232
aI239
aI241
aI242
aI259
aI272
aI297
asg1360
(lp4777
I100
asg246
(lp4778
I13
aI246
asg1067
(lp4779
I75
aI94
aI111
aI165
aI178
aI188
aI209
assg49
(dp4780
g212
(lp4781
I11
aI40
aI143
aI237
aI247
aI259
asg942
(lp4782
I64
asg1188
(lp4783
I86
aI260
asg650
(lp4784
I42
asg2384
(lp4785
I186
asg2893
(lp4786
I230
asg952
(lp4787
I65
aI66
asg834
(lp4788
I54
asg1403
(lp4789
I103
asg2823
(lp4790
I223
asg700
(lp4791
I45
aI72
asg3465
(lp4792
I276
asg3098
(lp4793
I245
asg1948
(lp4794
I148
asg66
(lp4795
I2
asg1115
(lp4796
I78
asg1142
(lp4797
I81
aI90
aI124
aI138
asg907
(lp4798
I61
aI127
aI137
aI229
asg1228
(lp4799
I89
asg152
(lp4800
I8
aI13
aI34
aI47
aI56
aI59
aI67
aI77
aI91
aI110
aI111
aI114
aI123
aI128
aI140
aI145
aI146
aI156
aI191
aI226
aI227
aI231
aI232
aI233
aI238
aI252
aI268
aI274
aI282
aI287
aI288
aI291
asg1060
(lp4801
I74
aI79
aI174
aI183
aI201
asg3165
(lp4802
I251
asg50
(lp4803
I1
asg1164
(lp4804
I83
asg1172
(lp4805
I84
aI85
aI225
asg77
(lp4806
I3
aI4
aI93
aI104
asg1793
(lp4807
I134
aI242
aI253
asg636
(lp4808
I41
asg1551
(lp4809
I115
asg1460
(lp4810
I108
asg3248
(lp4811
I257
aI290
asg3499
(lp4812
I278
asg920
(lp4813
I62
asg1622
(lp4814
I121
aI173
aI198
aI219
aI255
asg162
(lp4815
I9
aI107
aI147
aI297
asg561
(lp4816
I36
aI43
aI195
asg993
(lp4817
I68
aI69
aI70
aI71
aI73
aI105
aI106
asg777
(lp4818
I50
asg3350
(lp4819
I265
asg1951
(lp4820
I206
asg3158
(lp4821
I250
asg1743
(lp4822
I130
aI246
asg2176
(lp4823
I168
asg598
(lp4824
I38
asg818
(lp4825
I53
asg2578
(lp4826
I202
asg793
(lp4827
I51
asg267
(lp4828
I14
aI15
aI60
aI116
aI136
aI159
aI161
aI169
aI181
aI199
aI205
aI208
aI212
aI213
aI214
aI216
aI217
aI222
aI235
aI269
aI284
aI293
aI294
aI295
asg1513
(lp4829
I112
aI119
aI154
aI172
aI224
aI270
asg580
(lp4830
I37
asg2052
(lp4831
I157
asg2137
(lp4832
I164
asg2269
(lp4833
I176
asg3041
(lp4834
I241
asg2948
(lp4835
I234
assg32
(dp4836
g34
(lp4837
I1
aI11
aI40
aI89
aI143
aI202
aI237
aI247
aI259
asg3162
(lp4838
I251
asg593
(lp4839
I38
aI65
aI66
aI68
aI69
aI70
aI71
aI73
aI81
aI90
aI103
aI105
aI106
aI121
aI124
aI138
aI168
aI173
aI186
aI198
aI219
aI255
asg35
(lp4840
I1
aI2
aI8
aI13
aI14
aI15
aI34
aI36
aI37
aI42
aI43
aI45
aI47
aI53
aI56
aI59
aI60
aI64
aI65
aI66
aI67
aI68
aI69
aI70
aI71
aI72
aI73
aI77
aI81
aI84
aI85
aI86
aI89
aI90
aI91
aI103
aI105
aI106
aI110
aI111
aI114
aI116
aI123
aI124
aI128
aI130
aI134
aI136
aI138
aI140
aI145
aI146
aI148
aI156
aI159
aI161
aI168
aI169
aI176
aI181
aI186
aI191
aI195
aI199
aI205
aI208
aI212
aI213
aI214
aI216
aI217
aI222
aI225
aI226
aI227
aI231
aI232
aI233
aI235
aI238
aI242
aI246
aI252
aI253
aI260
aI265
aI268
aI269
aI274
aI278
aI282
aI284
aI287
aI288
aI291
aI293
aI294
aI295
asg158
(lp4841
I9
aI74
aI79
aI107
aI147
aI174
aI183
aI201
aI223
aI297
asg2885
(lp4842
I230
asg763
(lp4843
I50
asg560
(lp4844
I36
aI37
aI38
aI43
aI54
aI130
aI134
aI168
aI176
aI195
aI242
aI246
aI253
aI276
asg1157
(lp4845
I83
asg3087
(lp4846
I245
aI250
asg1105
(lp4847
I78
asg2616
(lp4848
I206
asg912
(lp4849
I62
asg783
(lp4850
I51
asg2042
(lp4851
I157
asg2127
(lp4852
I164
asg56
(lp4853
I2
aI3
aI4
aI45
aI61
aI64
aI72
aI84
aI85
aI86
aI93
aI104
aI127
aI137
aI148
aI223
aI225
aI229
aI260
aI276
asg1505
(lp4854
I112
aI119
aI154
aI172
aI176
aI224
aI245
aI270
asg624
(lp4855
I41
asg1541
(lp4856
I115
asg1450
(lp4857
I108
asg3240
(lp4858
I257
aI290
asg3030
(lp4859
I241
asg2934
(lp4860
I234
assg288
(dp4861
g288
(lp4862
I46
aI121
aI177
aI238
aI254
aI273
aI278
aI280
asg502
(lp4863
I31
aI122
aI196
aI241
asg1160
(lp4864
I83
asg770
(lp4865
I50
asg289
(lp4866
I16
aI17
aI40
aI52
aI101
aI148
aI178
aI258
aI265
aI277
assg27
(dp4867
g3433
(lp4868
I273
asg3342
(lp4869
I265
aI266
asg320
(lp4870
I18
aI20
aI29
aI38
aI91
aI99
aI129
aI150
aI153
aI154
aI159
aI182
aI184
aI188
aI193
aI199
aI209
aI215
aI232
aI238
aI253
aI254
aI267
asg3042
(lp4871
I241
aI285
asg3269
(lp4872
I259
asg337
(lp4873
I19
aI54
aI119
aI122
aI130
aI151
aI152
aI176
aI224
aI295
asg273
(lp4874
I15
aI26
aI30
aI37
aI45
aI56
aI84
aI86
aI98
aI114
aI121
aI137
aI181
aI192
aI205
aI206
aI211
aI212
aI213
aI225
aI228
aI233
aI255
aI264
aI275
aI283
aI284
aI286
aI287
aI292
asg71
(lp4875
I3
aI14
aI27
aI28
aI33
aI35
aI39
aI78
aI79
aI81
aI87
aI90
aI96
aI97
aI109
aI110
aI127
aI136
aI149
aI161
aI163
aI166
aI202
aI210
aI218
aI221
aI223
aI231
aI234
aI240
aI242
aI246
aI252
aI268
aI271
aI274
aI279
aI282
aI290
aI296
asg179
(lp4876
I9
aI11
aI21
aI31
aI47
aI48
aI53
aI85
aI100
aI102
aI112
aI115
aI117
aI118
aI135
aI139
aI140
aI142
aI144
aI146
aI148
aI156
aI160
aI165
aI196
aI214
aI219
aI222
aI229
aI235
aI239
aI245
aI251
aI260
aI263
aI294
asg28
(lp4877
I0
aI13
aI25
aI34
aI42
aI49
aI50
aI61
aI74
aI80
aI82
aI89
aI92
aI120
aI128
aI147
aI170
aI179
aI207
aI208
aI217
aI236
aI244
aI247
aI248
aI276
asg938
(lp4878
I64
aI68
aI70
aI73
aI103
aI104
aI106
aI173
aI174
asg511
(lp4879
I32
aI65
aI66
aI67
aI69
aI71
aI72
aI93
aI105
aI203
aI204
asg123
(lp4880
I7
aI36
aI169
aI185
aI194
aI198
aI226
aI227
aI237
aI261
aI272
aI288
asg97
(lp4881
I5
aI6
aI52
aI111
aI158
aI167
aI168
aI172
aI178
aI183
aI195
aI197
aI269
aI281
asg61
(lp4882
I2
asg88
(lp4883
I4
aI22
aI43
aI75
aI134
aI138
aI175
aI200
aI258
aI270
asg220
(lp4884
I12
aI41
aI46
aI60
aI95
aI101
aI145
aI157
aI162
aI171
aI177
aI186
aI250
aI257
aI291
aI293
asg142
(lp4885
I8
aI10
aI16
aI23
aI51
aI55
aI59
aI62
aI63
aI76
aI77
aI88
aI94
aI108
aI116
aI124
aI125
aI126
aI131
aI132
aI133
aI143
aI155
aI190
aI191
aI201
aI216
aI220
aI262
aI289
aI297
asg307
(lp4886
I17
aI141
aI278
asg411
(lp4887
I24
aI57
aI230
asg1641
(lp4888
I123
asg3228
(lp4889
I256
asg3139
(lp4890
I249
asg51
(lp4891
I1
aI40
aI44
aI58
aI83
aI107
aI113
aI164
aI180
aI189
aI243
aI277
aI280
assg145
(dp4892
g1572
(lp4893
I117
asg3705
(lp4894
I297
asg617
(lp4895
I40
asg1094
(lp4896
I77
asg2132
(lp4897
I164
asg795
(lp4898
I52
asg3511
(lp4899
I280
asg1999
(lp4900
I153
asg2715
(lp4901
I214
asg1357
(lp4902
I100
asg446
(lp4903
I27
asg2888
(lp4904
I230
asg2047
(lp4905
I157
asg1887
(lp4906
I143
asg1652
(lp4907
I124
asg3422
(lp4908
I272
asg2418
(lp4909
I189
asg2429
(lp4910
I190
asg937
(lp4911
I104
asg3569
(lp4912
I286
asg3300
(lp4913
I262
asg2807
(lp4914
I222
asg310
(lp4915
I17
asg1313
(lp4916
I96
asg3217
(lp4917
I255
asg884
(lp4918
I59
asg1704
(lp4919
I128
asg3003
(lp4920
I239
asg1430
(lp4921
I106
asg2564
(lp4922
I201
asg1594
(lp4923
I119
asg2664
(lp4924
I210
asg513
(lp4925
I32
asg1825
(lp4926
I138
asg435
(lp4927
I26
asg1017
(lp4928
I70
asg458
(lp4929
I28
asg3493
(lp4930
I278
asg2481
(lp4931
I194
asg1206
(lp4932
I88
asg1586
(lp4933
I118
asg1372
(lp4934
I101
asg1944
(lp4935
I148
asg1902
(lp4936
I144
asg3343
(lp4937
I265
asg3404
(lp4938
I270
asg2020
(lp4939
I155
asg1323
(lp4940
I97
asg1545
(lp4941
I115
asg1973
(lp4942
I151
asg2074
(lp4943
I159
asg2391
(lp4944
I187
asg2539
(lp4945
I199
asg1148
(lp4946
I82
asg1675
(lp4947
I126
asg386
(lp4948
I22
asg2060
(lp4949
I158
asg729
(lp4950
I47
asg2154
(lp4951
I166
asg2170
(lp4952
I168
asg629
(lp4953
I41
asg810
(lp4954
I53
asg2729
(lp4955
I215
asg915
(lp4956
I62
asg2901
(lp4957
I231
asg3584
(lp4958
I287
asg2220
(lp4959
I172
asg2308
(lp4960
I180
asg594
(lp4961
I38
asg1776
(lp4962
I133
asg243
(lp4963
I13
asg2465
(lp4964
I193
asg1161
(lp4965
I83
asg1400
(lp4966
I103
asg1267
(lp4967
I92
asg1854
(lp4968
I141
asg1049
(lp4969
I73
asg2876
(lp4970
I229
asg3035
(lp4971
I241
asg146
(lp4972
I8
asg851
(lp4973
I56
asg3283
(lp4974
I260
asg1806
(lp4975
I136
asg709
(lp4976
I46
asg2236
(lp4977
I173
asg643
(lp4978
I42
asg1418
(lp4979
I105
asg2266
(lp4980
I176
asg1252
(lp4981
I91
assg22
(dp4982
g1880
(lp4983
I143
aI244
asg24
(lp4984
I0
aI8
aI10
aI14
aI16
aI17
aI19
aI25
aI26
aI27
aI28
aI29
aI30
aI32
aI33
aI35
aI36
aI37
aI40
aI41
aI45
aI52
aI56
aI59
aI62
aI63
aI70
aI76
aI77
aI80
aI82
aI88
aI91
aI93
aI96
aI101
aI106
aI112
aI115
aI118
aI119
aI124
aI126
aI131
aI133
aI138
aI150
aI153
aI158
aI159
aI161
aI164
aI177
aI179
aI180
aI183
aI184
aI189
aI192
aI194
aI196
aI199
aI201
aI208
aI210
aI211
aI214
aI215
aI221
aI222
aI229
aI230
aI231
aI260
aI263
aI265
aI274
aI277
aI278
aI280
aI286
aI287
aI288
asg1471
(lp4985
I109
asg348
(lp4986
I20
asg161
(lp4987
I9
aI21
aI141
aI266
aI267
asg2088
(lp4988
I160
asg237
(lp4989
I13
aI246
asg327
(lp4990
I18
aI264
asg377
(lp4991
I22
asg817
(lp4992
I53
aI55
aI92
aI120
aI151
aI155
aI157
aI162
aI212
aI213
aI218
aI232
aI239
aI241
aI242
aI259
aI272
aI297
asg1363
(lp4993
I100
asg1072
(lp4994
I75
aI94
aI111
aI165
aI178
aI188
aI209
asg115
(lp4995
I6
asg1862
(lp4996
I142
aI240
aI269
asg680
(lp4997
I44
asg2554
(lp4998
I200
asg211
(lp4999
I11
aI39
aI42
aI48
aI57
aI87
aI89
aI97
aI128
aI134
aI186
aI237
aI238
aI245
aI248
aI251
aI252
aI257
aI258
aI270
aI276
aI279
aI281
aI290
asg2212
(lp5000
I172
aI217
aI234
aI255
asg3156
(lp5001
I250
asg3610
(lp5002
I289
asg405
(lp5003
I23
asg716
(lp5004
I46
assg20
(dp5005
g2468
(lp5006
I193
asg21
(lp5007
I0
asg95
(lp5008
I83
asg2555
(lp5009
I200
asg265
(lp5010
I14
asg3450
(lp5011
I274
asg2971
(lp5012
I243
aI245
aI251
aI257
aI258
aI271
aI279
asg2941
(lp5013
I234
assg1454
(dp5014
g1455
(lp5015
I108
asg2889
(lp5016
I230
assg78
(dp5017
g649
(lp5018
I42
aI44
aI45
aI55
aI63
aI67
aI73
aI81
aI85
aI87
aI91
aI94
aI95
aI97
aI103
aI106
aI115
aI118
aI133
aI137
aI148
aI149
aI152
aI155
aI160
aI162
aI165
aI186
aI192
aI194
aI196
aI197
aI207
aI218
aI220
aI223
aI235
aI238
aI244
aI253
aI255
aI258
aI259
aI276
aI279
aI286
aI289
asg3589
(lp5019
I287
aI288
aI297
asg968
(lp5020
I66
aI69
aI71
asg79
(lp5021
I3
aI251
asg1680
(lp5022
I126
asg3536
(lp5023
I282
asg177
(lp5024
I9
aI15
aI34
aI36
aI48
aI64
aI72
aI93
aI96
aI105
aI136
aI166
aI182
aI202
asg854
(lp5025
I275
asg801
(lp5026
I52
aI53
aI58
aI86
aI141
aI224
asg953
(lp5027
I65
aI68
aI70
aI173
asg857
(lp5028
I56
aI76
aI122
aI139
aI172
aI177
asg496
(lp5029
I30
aI37
aI131
aI219
aI226
aI227
aI290
asg229
(lp5030
I12
aI77
aI147
asg393
(lp5031
I22
asg3653
(lp5032
I292
asg2871
(lp5033
I228
asg250
(lp5034
I13
aI20
aI104
aI127
aI174
aI204
aI242
aI269
asg116
(lp5035
I6
aI25
aI84
aI111
aI120
aI121
aI143
aI146
aI157
aI185
asg2527
(lp5036
I198
asg343
(lp5037
I19
aI175
asg464
(lp5038
I28
aI40
aI62
aI92
aI156
aI158
aI169
aI184
asg1577
(lp5039
I117
aI144
aI203
aI205
aI206
aI212
aI213
aI229
aI232
aI233
aI243
aI252
assg29
(dp5040
g40
(lp5041
I166
asg718
(lp5042
I46
asg1896
(lp5043
I143
asg2227
(lp5044
I172
asg1243
(lp5045
I90
aI230
asg2640
(lp5046
I207
asg1683
(lp5047
I126
asg3624
(lp5048
I289
aI290
aI291
aI292
asg1343
(lp5049
I98
aI107
aI154
aI205
aI224
asg1744
(lp5050
I130
aI141
aI203
asg2570
(lp5051
I201
asg2187
(lp5052
I169
aI229
asg2489
(lp5053
I194
asg747
(lp5054
I48
aI63
asg1285
(lp5055
I93
asg2922
(lp5056
I232
asg2324
(lp5057
I181
asg2598
(lp5058
I204
aI233
aI235
asg1940
(lp5059
I147
aI165
aI212
asg3352
(lp5060
I265
asg652
(lp5061
I42
aI47
aI62
aI80
asg1949
(lp5062
I148
asg316
(lp5063
I17
aI20
aI23
aI24
aI25
asg1310
(lp5064
I95
aI178
aI179
aI228
asg576
(lp5065
I36
aI37
aI38
asg2100
(lp5066
I161
asg1957
(lp5067
I149
asg556
(lp5068
I35
asg30
(lp5069
I0
aI2
aI53
aI54
aI56
asg2710
(lp5070
I213
asg3547
(lp5071
I283
asg612
(lp5072
I39
asg3385
(lp5073
I268
asg1113
(lp5074
I78
asg1630
(lp5075
I122
aI284
aI285
aI286
aI287
aI294
aI295
aI297
asg847
(lp5076
I55
asg2068
(lp5077
I158
asg2546
(lp5078
I199
asg252
(lp5079
I13
aI18
aI21
aI27
aI28
asg135
(lp5080
I7
aI94
aI133
aI214
aI270
aI282
asg1537
(lp5081
I114
asg1461
(lp5082
I108
asg3012
(lp5083
I239
asg118
(lp5084
I6
asg2251
(lp5085
I174
asg3308
(lp5086
I262
asg3203
(lp5087
I253
asg2801
(lp5088
I221
asg1991
(lp5089
I152
asg154
(lp5090
I8
asg3189
(lp5091
I252
aI254
aI256
aI259
aI264
aI269
asg1201
(lp5092
I87
aI146
aI180
aI195
aI227
asg2386
(lp5093
I186
asg2396
(lp5094
I187
asg1230
(lp5095
I89
aI100
aI109
aI115
aI118
aI137
aI140
aI142
aI164
aI183
aI189
aI210
aI211
asg3696
(lp5096
I296
asg3665
(lp5097
I293
asg1795
(lp5098
I134
asg1501
(lp5099
I111
aI117
aI155
aI219
asg1257
(lp5100
I91
aI92
aI124
aI135
aI182
aI188
aI216
asg1392
(lp5101
I102
aI120
aI145
aI177
asg214
(lp5102
I11
aI26
asg1190
(lp5103
I86
aI197
aI215
asg2433
(lp5104
I190
asg779
(lp5105
I50
asg195
(lp5106
I10
asg3606
(lp5107
I288
asg3125
(lp5108
I247
aI260
aI278
asg2259
(lp5109
I175
aI209
asg2365
(lp5110
I185
aI191
aI208
asg1910
(lp5111
I144
asg1670
(lp5112
I125
aI131
asg2971
(lp5113
I236
aI242
aI243
aI245
aI250
aI251
aI257
aI258
aI263
aI267
aI271
aI272
aI274
aI276
aI277
aI279
asg880
(lp5114
I58
asg95
(lp5115
I4
aI44
aI75
aI83
aI84
aI85
aI96
asg52
(lp5116
I1
asg2123
(lp5117
I163
asg1331
(lp5118
I97
asg1214
(lp5119
I88
aI101
aI218
asg2461
(lp5120
I192
asg1981
(lp5121
I151
aI162
asg3043
(lp5122
I241
asg3114
(lp5123
I246
asg1838
(lp5124
I139
asg2996
(lp5125
I238
asg669
(lp5126
I43
aI51
aI52
asg300
(lp5127
I16
asg2841
(lp5128
I225
aI234
asg1486
(lp5129
I110
asg1564
(lp5130
I116
aI121
aI157
aI159
aI170
aI171
aI176
aI202
aI206
aI222
aI226
asg2471
(lp5131
I193
asg702
(lp5132
I45
aI49
aI61
aI64
aI67
aI68
aI69
aI70
aI79
asg900
(lp5133
I60
aI74
asg278
(lp5134
I15
aI19
aI22
asg2038
(lp5135
I156
asg498
(lp5136
I30
asg534
(lp5137
I33
aI34
asg2982
(lp5138
I237
aI240
aI244
aI248
aI255
aI261
aI266
aI273
aI275
aI280
asg1353
(lp5139
I99
aI103
aI104
aI105
aI106
aI128
aI168
aI173
aI198
aI223
asg1515
(lp5140
I112
asg1524
(lp5141
I113
asg637
(lp5142
I41
asg2907
(lp5143
I231
asg2358
(lp5144
I184
asg1724
(lp5145
I129
asg2166
(lp5146
I167
asg2510
(lp5147
I196
asg231
(lp5148
I12
asg1101
(lp5149
I77
asg180
(lp5150
I9
aI29
aI31
asg954
(lp5151
I65
aI66
aI71
aI72
aI73
aI81
aI217
asg1696
(lp5152
I127
aI132
aI138
aI153
asg1601
(lp5153
I119
asg870
(lp5154
I57
asg80
(lp5155
I3
aI220
asg521
(lp5156
I32
asg891
(lp5157
I59
aI82
aI136
asg3143
(lp5158
I249
aI281
ass(dp5159
g60
(lp5160
(g3669
I1
tp5161
a(g1451
I2
tp5162
a(g1312
I1
tp5163
a(g913
I1
tp5164
a(g1649
I1
tp5165
a(g444
I1
tp5166
a(g1065
I1
tp5167
a(g2866
I1
tp5168
a(g510
I1
tp5169
a(g2961
I1
tp5170
a(g2704
I1
tp5171
a(g1147
I1
tp5172
a(g1853
I1
tp5173
a(g1513
I1
tp5174
a(g8
I1
tp5175
a(g2493
I1
tp5176
a(g2607
I1
tp5177
a(g1221
I1
tp5178
a(g1584
I21
tp5179
a(g1951
I2
tp5180
a(g565
I1
tp5181
a(g827
I1
tp5182
a(g581
I1
tp5183
a(g165
I1
tp5184
a(g1129
I1
tp5185
a(g641
I1
tp5186
a(g1961
I1
tp5187
a(g541
I13
tp5188
a(g334
I1
tp5189
a(g3267
I1
tp5190
a(g937
I5
tp5191
a(g2816
I1
tp5192
a(g318
I1
tp5193
a(g100
I1
tp5194
a(g287
I1
tp5195
a(g1570
I2
tp5196
a(g87
I1
tp5197
a(g2714
I2
tp5198
asg9
(lp5199
(g124
I1
tp5200
a(g10
I7
tp5201
a(g383
I10
tp5202
a(g336
I8
tp5203
a(g72
I21
tp5204
a(g808
I4
tp5205
a(g364
I12
tp5206
a(g583
I9
tp5207
a(g661
I9
tp5208
a(g739
I9
tp5209
a(g2033
I1
tp5210
a(g1681
I1
tp5211
a(g1047
I1
tp5212
a(g241
I8
tp5213
a(g3120
I1
tp5214
a(g567
I8
tp5215
a(g185
I34
tp5216
a(g3077
I1
tp5217
a(g550
I9
tp5218
a(g526
I4
tp5219
a(g1279
I3
tp5220
a(g1066
I1
tp5221
a(g616
I2
tp5222
a(g2654
I1
tp5223
a(g203
I31
tp5224
a(g3315
I1
tp5225
a(g642
I20
tp5226
a(g456
I13
tp5227
asg17
(lp5228
(g2456
I1
tp5229
a(g3662
I1
tp5230
a(g3602
I5
tp5231
a(g1385
I4
tp5232
a(g2063
I1
tp5233
a(g3346
I1
tp5234
a(g172
I9
tp5235
a(g2707
I1
tp5236
a(g1521
I4
tp5237
a(g1736
I4
tp5238
a(g3542
I1
tp5239
a(g2917
I1
tp5240
a(g695
I32
tp5241
a(g75
I17
tp5242
a(g111
I1
tp5243
a(g1627
I8
tp5244
a(g1196
I14
tp5245
a(g2796
I1
tp5246
a(g2379
I1
tp5247
a(g632
I21
tp5248
a(g19
I15
tp5249
a(g3006
I1
tp5250
a(g2967
I31
tp5251
a(g3199
I1
tp5252
a(g2157
I1
tp5253
a(g2164
I1
tp5254
a(g530
I6
tp5255
a(g91
I16
tp5256
a(g1947
I1
tp5257
a(g45
I4
tp5258
a(g130
I9
tp5259
a(g1112
I1
tp5260
a(g1693
I4
tp5261
a(g1955
I1
tp5262
a(g1209
I4
tp5263
a(g3038
I1
tp5264
a(g1458
I1
tp5265
a(g1482
I1
tp5266
a(g696
I15
tp5267
a(g608
I1
tp5268
a(g1718
I2
tp5269
a(g3183
I6
tp5270
a(g2247
I1
tp5271
a(g3303
I1
tp5272
a(g208
I2
tp5273
a(g2634
I1
tp5274
a(g2120
I4
tp5275
a(g293
I7
tp5276
a(g1304
I5
tp5277
a(g189
I1
tp5278
a(g1986
I1
tp5279
a(g1531
I1
tp5280
a(g2992
I1
tp5281
a(g3109
I1
tp5282
a(g224
I26
tp5283
a(g1905
I1
tp5284
a(g3689
I1
tp5285
a(g1667
I2
tp5286
a(g516
I1
tp5287
a(g1935
I4
tp5288
asg131
(lp5289
(g2750
I1
tp5290
a(g176
I6
tp5291
a(g1938
I1
tp5292
a(g1213
I1
tp5293
a(g249
I1
tp5294
a(g3187
I4
tp5295
a(g1908
I1
tp5296
a(g1389
I3
tp5297
a(g1534
I3
tp5298
a(g3288
I1
tp5299
a(g2112
I2
tp5300
a(g371
I5
tp5301
a(g2194
I3
tp5302
a(g1657
I2
tp5303
a(g463
I3
tp5304
a(g3009
I1
tp5305
a(g2487
I1
tp5306
a(g2638
I1
tp5307
a(g2005
I6
tp5308
a(g1781
I6
tp5309
a(g495
I1
tp5310
a(g297
I4
tp5311
a(g3112
I1
tp5312
a(g1377
I3
tp5313
a(g1847
I1
tp5314
a(g479
I1
tp5315
a(g3693
I1
tp5316
a(g228
I3
tp5317
a(g451
I7
tp5318
a(g519
I14
tp5319
a(g3323
I2
tp5320
a(g1562
I6
tp5321
a(g2297
I1
tp5322
a(g2226
I2
tp5323
a(g3427
I1
tp5324
a(g315
I1
tp5325
a(g1894
I1
tp5326
a(g1272
I4
tp5327
a(g2734
I1
tp5328
a(g1308
I2
tp5329
a(g418
I1
tp5330
a(g133
I1
tp5331
a(g3069
I1
tp5332
a(g1741
I1
tp5333
a(g392
I1
tp5334
asg2
(lp5335
(g201
I1
tp5336
a(g960
I4
tp5337
a(g2215
I1
tp5338
a(g1441
I1
tp5339
a(g2402
I1
tp5340
a(g184
I8
tp5341
a(g1220
I1
tp5342
a(g306
I1
tp5343
a(g333
I7
tp5344
a(g862
I1
tp5345
a(g1012
I6
tp5346
a(g141
I18
tp5347
a(g2371
I1
tp5348
a(g105
I6
tp5349
a(g38
I10
tp5350
a(g1263
I1
tp5351
a(g1335
I1
tp5352
a(g1089
I3
tp5353
a(g2082
I1
tp5354
a(g122
I1
tp5355
a(g564
I1
tp5356
a(g59
I14
tp5357
a(g1108
I2
tp5358
a(g999
I4
tp5359
a(g766
I14
tp5360
a(g3331
I1
tp5361
a(g2741
I1
tp5362
a(g1636
I3
tp5363
a(g2960
I3
tp5364
a(g687
I9
tp5365
a(g2535
I1
tp5366
a(g3018
I2
tp5367
a(g3521
I1
tp5368
a(g1369
I3
tp5369
a(g471
I1
tp5370
a(g1347
I7
tp5371
a(g874
I8
tp5372
a(g4
I5
tp5373
a(g2199
I1
tp5374
a(g603
I1
tp5375
a(g1078
I1
tp5376
a(g380
I1
tp5377
a(g258
I3
tp5378
a(g724
I3
tp5379
a(g1713
I1
tp5380
a(g486
I49
tp5381
a(g627
I1
tp5382
a(g3314
I1
tp5383
a(g540
I1
tp5384
a(g351
I1
tp5385
asg285
(lp5386
(g286
I1
tp5387
asg5
(lp5388
(g525
I1
tp5389
a(g426
I2
tp5390
a(g3076
I1
tp5391
a(g94
I1
tp5392
a(g1342
I1
tp5393
a(g3211
I1
tp5394
a(g1794
I1
tp5395
a(g869
I1
tp5396
a(g3428
I1
tp5397
a(g1837
I1
tp5398
a(g67
I1
tp5399
a(g2375
I1
tp5400
a(g2726
I1
tp5401
a(g1849
I1
tp5402
a(g3351
I1
tp5403
a(g1165
I1
tp5404
a(g465
I1
tp5405
a(g1446
I1
tp5406
a(g2962
I1
tp5407
a(g914
I1
tp5408
a(g3104
I1
tp5409
a(g2432
I1
tp5410
a(g2849
I1
tp5411
a(g2453
I1
tp5412
a(g1229
I2
tp5413
a(g3674
I1
tp5414
a(g202
I1
tp5415
a(g3019
I1
tp5416
a(g734
I1
tp5417
a(g1980
I1
tp5418
a(g668
I1
tp5419
a(g1125
I1
tp5420
a(g3033
I1
tp5421
a(g2742
I1
tp5422
a(g1802
I1
tp5423
a(g651
I1
tp5424
a(g908
I1
tp5425
a(g1723
I1
tp5426
a(g218
I1
tp5427
a(g2545
I1
tp5428
a(g2244
I1
tp5429
a(g3062
I1
tp5430
a(g1909
I1
tp5431
a(g1552
I1
tp5432
a(g299
I1
tp5433
a(g802
I1
tp5434
a(g566
I1
tp5435
a(g582
I1
tp5436
a(g3491
I1
tp5437
a(g828
I1
tp5438
a(g2569
I1
tp5439
a(g2158
I1
tp5440
a(g1695
I1
tp5441
a(g2906
I1
tp5442
a(g599
I1
tp5443
a(g2350
I1
tp5444
a(g3616
I1
tp5445
a(g2488
I1
tp5446
a(g1600
I1
tp5447
a(g3628
I1
tp5448
a(g153
I1
tp5449
a(g1536
I1
tp5450
a(g335
I1
tp5451
a(g759
I1
tp5452
a(g194
I1
tp5453
a(g3051
I1
tp5454
a(g520
I1
tp5455
a(g3124
I1
tp5456
a(g2390
I1
tp5457
a(g3149
I1
tp5458
a(g2067
I1
tp5459
a(g1318
I1
tp5460
a(g3376
I1
tp5461
a(g926
I1
tp5462
a(g259
I1
tp5463
a(g3644
I1
tp5464
a(g1919
I1
tp5465
a(g3129
I1
tp5466
a(g3695
I1
tp5467
a(g1074
I1
tp5468
a(g2548
I1
tp5469
a(g407
I1
tp5470
a(g166
I1
tp5471
a(g3332
I1
tp5472
a(g2503
I1
tp5473
a(g3268
I1
tp5474
a(g3583
I1
tp5475
a(g452
I3
tp5476
a(g2006
I1
tp5477
a(g1578
I1
tp5478
a(g1135
I1
tp5479
a(g506
I1
tp5480
a(g277
I1
tp5481
a(g717
I1
tp5482
a(g1242
I1
tp5483
a(g2755
I1
tp5484
a(g1674
I2
tp5485
a(g106
I1
tp5486
a(g2574
I1
tp5487
a(g1514
I1
tp5488
a(g2328
I1
tp5489
a(g3664
I1
tp5490
a(g2177
I1
tp5491
a(g1079
I1
tp5492
a(g440
I1
tp5493
a(g3179
I1
tp5494
a(g1637
I1
tp5495
a(g2045
I1
tp5496
a(g1884
I1
tp5497
a(g2015
I1
tp5498
a(g240
I1
tp5499
a(g3564
I1
tp5500
a(g39
I1
tp5501
a(g3360
I1
tp5502
a(g738
I1
tp5503
a(g2138
I1
tp5504
a(g1831
I1
tp5505
a(g3646
I1
tp5506
a(g2305
I1
tp5507
a(g2494
I1
tp5508
a(g3459
I1
tp5509
a(g1183
I1
tp5510
a(g3249
I1
tp5511
a(g2444
I1
tp5512
a(g3415
I1
tp5513
a(g2629
I1
tp5514
a(g1100
I1
tp5515
a(g3546
I1
tp5516
a(g2881
I1
tp5517
a(g1330
I1
tp5518
a(g778
I1
tp5519
a(g3557
I1
tp5520
a(g1249
I1
tp5521
a(g3090
I1
tp5522
a(g1962
I1
tp5523
a(g1153
I1
tp5524
a(g1284
I1
tp5525
a(g899
I1
tp5526
a(g2720
I1
tp5527
a(g1617
I1
tp5528
a(g2764
I1
tp5529
a(g1990
I1
tp5530
a(g3138
I1
tp5531
a(g2817
I1
tp5532
a(g1192
I1
tp5533
a(g1523
I1
tp5534
a(g3711
I1
tp5535
a(g381
I1
tp5536
a(g1494
I1
tp5537
a(g2521
I1
tp5538
a(g858
I1
tp5539
a(g1452
I1
tp5540
a(g3294
I1
tp5541
a(g2181
I1
tp5542
a(g2083
I1
tp5543
a(g2425
I1
tp5544
a(g3166
I1
tp5545
a(g1815
I1
tp5546
a(g691
I1
tp5547
a(g3517
I1
tp5548
a(g2671
I2
tp5549
a(g2830
I1
tp5550
a(g1782
I1
tp5551
a(g3466
I1
tp5552
a(g620
I1
tp5553
a(g2288
I1
tp5554
a(g3255
I1
tp5555
a(g1143
I1
tp5556
a(g1391
I1
tp5557
a(g2206
I1
tp5558
a(g2258
I1
tp5559
a(g2790
I1
tp5560
a(g373
I1
tp5561
a(g1289
I1
tp5562
a(g875
I1
tp5563
a(g3298
I1
tp5564
a(g2975
I1
tp5565
a(g2988
I1
tp5566
a(g2894
I1
tp5567
a(g1352
I1
tp5568
a(g3236
I1
tp5569
a(g673
I1
tp5570
a(g2216
I1
tp5571
a(g2323
I1
tp5572
a(g611
I1
tp5573
a(g3684
I1
tp5574
a(g487
I1
tp5575
a(g2800
I1
tp5576
a(g6
I1
tp5577
a(g3011
I1
tp5578
a(g319
I1
tp5579
a(g99
I1
tp5580
a(g1485
I1
tp5581
a(g1769
I1
tp5582
a(g3222
I1
tp5583
a(g1473
I1
tp5584
a(g3598
I1
tp5585
a(g542
I1
tp5586
a(g2653
I1
tp5587
a(g2914
I1
tp5588
a(g2470
I1
tp5589
a(g1061
I1
tp5590
a(g1629
I1
tp5591
a(g2940
I1
tp5592
a(g2812
I1
tp5593
asg7
(lp5594
(g40
I19
tp5595
a(g382
I1
tp5596
a(g8
I1
tp5597
a(g2875
I1
tp5598
a(g143
I2
tp5599
a(g3091
I1
tp5600
a(g3446
I1
tp5601
a(g2471
I1
tp5602
a(g260
I1
tp5603
a(g2549
I1
tp5604
asg46
(lp5605
(g3347
I1
tp5606
a(g3356
I1
tp5607
a(g3708
I1
tp5608
a(g324
I1
tp5609
a(g3672
I1
tp5610
a(g402
I1
tp5611
a(g47
I1
tp5612
a(g1210
I1
tp5613
a(g1326
I1
tp5614
a(g813
I5
tp5615
a(g2341
I1
tp5616
a(g2890
I1
tp5617
a(g3553
I1
tp5618
a(g665
I1
tp5619
a(g1238
I1
tp5620
a(g2498
I1
tp5621
a(g112
I34
tp5622
a(g646
I1
tp5623
a(g756
I1
tp5624
a(g415
I1
tp5625
a(g101
I8
tp5626
a(g2064
I1
tp5627
a(g898
I7
tp5628
a(g1559
I1
tp5629
a(g3304
I1
tp5630
a(g1386
I7
tp5631
a(g2839
I1
tp5632
a(g2173
I1
tp5633
a(g173
I1
tp5634
a(g3572
I1
tp5635
a(g3184
I1
tp5636
a(g2667
I1
tp5637
a(g1737
I1
tp5638
a(g790
I1
tp5639
a(g854
I2
tp5640
a(g1976
I1
tp5641
a(g1719
I1
tp5642
a(g3496
I1
tp5643
a(g3095
I1
tp5644
a(g633
I3
tp5645
a(g3682
I1
tp5646
a(g1123
I2
tp5647
a(g1597
I2
tp5648
a(g743
I1
tp5649
a(g3320
I1
tp5650
a(g2380
I1
tp5651
a(g3649
I1
tp5652
a(g225
I19
tp5653
a(g3514
I1
tp5654
a(g774
I1
tp5655
a(g1966
I1
tp5656
a(g190
I9
tp5657
a(g3690
I1
tp5658
a(g798
I10
tp5659
a(g3457
I2
tp5660
a(g597
I1
tp5661
a(g1523
I2
tp5662
asg92
(lp5663
(g1414
I1
tp5664
a(g294
I1
tp5665
a(g3620
I1
tp5666
a(g967
I2
tp5667
a(g1668
I1
tp5668
a(g732
I2
tp5669
a(g1020
I1
tp5670
a(g1305
I1
tp5671
a(g992
I1
tp5672
a(g2121
I1
tp5673
a(g1034
I1
tp5674
a(g3481
I1
tp5675
a(g1548
I1
tp5676
a(g2680
I1
tp5677
a(g1871
I1
tp5678
a(g980
I1
tp5679
a(g843
I1
tp5680
a(g1006
I1
tp5681
a(g791
I1
tp5682
a(g1891
I1
tp5683
a(g697
I1
tp5684
a(g1327
I1
tp5685
a(g930
I2
tp5686
a(g2918
I1
tp5687
a(g2381
I1
tp5688
a(g2596
I1
tp5689
a(g2036
I1
tp5690
a(g1738
I6
tp5691
a(g93
I1
tp5692
a(g2587
I1
tp5693
a(g2945
I1
tp5694
a(g713
I1
tp5695
a(g1483
I1
tp5696
a(g2484
I1
tp5697
a(g1610
I1
tp5698
a(g2002
I1
tp5699
a(g2311
I1
tp5700
a(g757
I3
tp5701
a(g2694
I2
tp5702
a(g2457
I1
tp5703
a(g2635
I1
tp5704
a(g2611
I3
tp5705
a(g3232
I1
tp5706
a(g2421
I1
tp5707
a(g1097
I1
tp5708
a(g2409
I1
tp5709
a(g833
I1
tp5710
a(g2780
I1
tp5711
a(g1765
I3
tp5712
a(g3436
I1
tp5713
a(g1753
I2
tp5714
a(g775
I1
tp5715
a(g3372
I1
tp5716
a(g2147
I1
tp5717
a(g666
I1
tp5718
a(g1433
I1
tp5719
asg25
(lp5720
(g3683
I1
tp5721
a(g2364
I1
tp5722
a(g1979
I1
tp5723
a(g1819
I1
tp5724
a(g1059
I1
tp5725
a(g3058
I1
tp5726
a(g733
I1
tp5727
a(g2588
I1
tp5728
a(g2822
I1
tp5729
a(g575
I1
tp5730
a(g2516
I1
tp5731
a(g1390
I1
tp5732
a(g3026
I1
tp5733
a(g2150
I1
tp5734
a(g2995
I1
tp5735
a(g758
I1
tp5736
a(g2385
I1
tp5737
a(g3439
I1
tp5738
a(g431
I1
tp5739
a(g1628
I1
tp5740
a(g3235
I1
tp5741
a(g2981
I1
tp5742
a(g1199
I1
tp5743
a(g1830
I1
tp5744
a(g1563
I1
tp5745
a(g1640
I1
tp5746
a(g1918
I1
tp5747
a(g76
I3
tp5748
a(g1756
I1
tp5749
a(g2921
I1
tp5750
a(g3643
I1
tp5751
a(g2499
I1
tp5752
a(g2840
I1
tp5753
a(g3633
I1
tp5754
a(g1273
I1
tp5755
a(g2053
I1
tp5756
a(g2122
I1
tp5757
a(g2852
I1
tp5758
a(g1848
I1
tp5759
a(g1535
I1
tp5760
a(g981
I9
tp5761
a(g2556
I1
tp5762
a(g1459
I1
tp5763
a(g3123
I1
tp5764
a(g3458
I1
tp5765
a(g546
I1
tp5766
a(g1341
I1
tp5767
a(g3247
I1
tp5768
a(g3359
I1
tp5769
a(g2344
I1
tp5770
a(g2799
I1
tp5771
a(g2783
I1
tp5772
a(g1925
I1
tp5773
a(g480
I1
tp5774
a(g2683
I2
tp5775
a(g3694
I1
tp5776
a(g2670
I2
tp5777
a(g3545
I1
tp5778
a(g1484
I1
tp5779
a(g26
I1
tp5780
a(g1124
I1
tp5781
a(g2648
I1
tp5782
a(g2751
I1
tp5783
a(g3113
I1
tp5784
a(g2544
I1
tp5785
a(g2460
I1
tp5786
a(g933
I1
tp5787
a(g1613
I1
tp5788
a(g3083
I1
tp5789
a(g921
I1
tp5790
a(g1141
I1
tp5791
a(g2660
I1
tp5792
a(g2195
I1
tp5793
a(g3202
I1
tp5794
a(g1658
I1
tp5795
a(g3210
I1
tp5796
a(g3010
I1
tp5797
a(g1623
I1
tp5798
a(g1500
I1
tp5799
a(g3136
I1
tp5800
a(g1083
I1
tp5801
a(g3070
I1
tp5802
a(g1722
I1
tp5803
a(g3590
I1
tp5804
a(g2509
I1
tp5805
a(g2424
I1
tp5806
a(g1171
I1
tp5807
a(g3375
I1
tp5808
a(g2597
I1
tp5809
a(g589
I1
tp5810
a(g419
I1
tp5811
a(g117
I1
tp5812
a(g3293
I1
tp5813
a(g701
I1
tp5814
a(g1967
I1
tp5815
a(g2205
I1
tp5816
a(g2298
I1
tp5817
a(g1294
I1
tp5818
a(g3472
I1
tp5819
a(g681
I1
tp5820
a(g497
I1
tp5821
a(g941
I5
tp5822
a(g344
I1
tp5823
a(g879
I1
tp5824
a(g65
I1
tp5825
a(g298
I1
tp5826
a(g1768
I1
tp5827
a(g394
I1
tp5828
a(g1742
I1
tp5829
a(g2577
I2
tp5830
a(g358
I1
tp5831
a(g251
I1
tp5832
a(g3173
I1
tp5833
a(g1669
I1
tp5834
a(g1445
I1
tp5835
a(g2113
I1
tp5836
a(g2789
I1
tp5837
a(g3605
I1
tp5838
a(g3397
I1
tp5839
a(g776
I1
tp5840
a(g2165
I1
tp5841
a(g230
I1
tp5842
a(g3535
I1
tp5843
a(g505
I1
tp5844
a(g1522
I1
tp5845
a(g906
I1
tp5846
a(g746
I1
tp5847
a(g2862
I1
tp5848
a(g48
I1
tp5849
a(g2930
I1
tp5850
a(g1874
I1
tp5851
a(g3623
I1
tp5852
a(g2769
I1
tp5853
a(g868
I1
tp5854
a(g533
I1
tp5855
a(g2956
I1
tp5856
a(g134
I1
tp5857
a(g2639
I1
tp5858
a(g2279
I1
tp5859
a(g846
I1
tp5860
a(g3157
I1
tp5861
a(g1073
I1
tp5862
a(g1694
I1
tp5863
a(g2443
I1
tp5864
a(g2099
I1
tp5865
a(g1309
I1
tp5866
a(g1512
I1
tp5867
a(g889
I1
tp5868
a(g1134
I1
tp5869
a(g1809
I1
tp5870
a(g2014
I1
tp5871
a(g1472
I1
tp5872
a(g1189
I1
tp5873
a(g1836
I1
tp5874
a(g3575
I1
tp5875
a(g2412
I1
tp5876
a(g1792
I1
tp5877
a(g1709
I1
tp5878
a(g1801
I1
tp5879
a(g555
I1
tp5880
a(g2870
I1
tp5881
a(g2333
I1
tp5882
a(g1351
I1
tp5883
a(g3453
I1
tp5884
a(g328
I1
tp5885
a(g2250
I1
tp5886
a(g2186
I1
tp5887
a(g193
I1
tp5888
a(g178
I1
tp5889
a(g406
I1
tp5890
a(g2257
I1
tp5891
a(g2287
I1
tp5892
a(g792
I1
tp5893
a(g3663
I1
tp5894
a(g3556
I1
tp5895
a(g2314
I1
tp5896
a(g2469
I1
tp5897
a(g3652
I1
tp5898
a(g1227
I1
tp5899
a(g2970
I1
tp5900
a(g3324
I1
tp5901
a(g1989
I1
tp5902
a(g2612
I1
tp5903
a(g266
I1
tp5904
a(g3563
I1
tp5905
a(g3673
I1
tp5906
a(g3484
I1
tp5907
a(g2735
I1
tp5908
a(g1241
I1
tp5909
a(g2357
I1
tp5910
a(g3261
I1
tp5911
a(g372
I1
tp5912
a(g2037
I1
tp5913
a(g2091
I1
tp5914
a(g1939
I1
tp5915
a(g2526
I1
tp5916
a(g1956
I1
tp5917
a(g2829
I1
tp5918
a(g276
I1
tp5919
a(g98
I1
tp5920
a(g151
I1
tp5921
a(g667
I1
tp5922
a(g1895
I1
tp5923
a(g2322
I1
tp5924
asg11
(lp5925
(g1682
I1
tp5926
a(g2649
I1
tp5927
a(g3527
I1
tp5928
a(g213
I1
tp5929
a(g2306
I1
tp5930
a(g3440
I1
tp5931
a(g3106
I1
tp5932
a(g3167
I1
tp5933
a(g674
I1
tp5934
a(g2655
I1
tp5935
a(g584
I1
tp5936
a(g3467
I1
tp5937
a(g2517
I1
tp5938
a(g3274
I1
tp5939
a(g3195
I1
tp5940
a(g2760
I1
tp5941
a(g3078
I1
tp5942
a(g489
I1
tp5943
a(g2942
I1
tp5944
a(g3188
I1
tp5945
a(g1886
I1
tp5946
a(g1932
I1
tp5947
a(g3410
I1
tp5948
a(g1453
I1
tp5949
a(g420
I1
tp5950
a(g895
I1
tp5951
a(g1265
I1
tp5952
a(g3130
I1
tp5953
a(g3290
I1
tp5954
a(g2989
I1
tp5955
a(g3256
I1
tp5956
a(g1689
I1
tp5957
a(g927
I1
tp5958
a(g12
I1
tp5959
a(g1963
I1
tp5960
a(g1114
I2
tp5961
a(g2413
I1
tp5962
a(g3034
I1
tp5963
a(g3568
I1
tp5964
a(g41
I1
tp5965
a(g829
I1
tp5966
a(g3020
I1
tp5967
a(g3064
I1
tp5968
a(g2550
I1
tp5969
a(g568
I1
tp5970
a(g3333
I1
tp5971
a(g604
I1
tp5972
a(g2744
I1
tp5973
a(g2728
I1
tp5974
a(g1250
I1
tp5975
a(g2504
I1
tp5976
a(g890
I1
tp5977
a(g329
I1
tp5978
a(g3142
I1
tp5979
a(g3150
I1
tp5980
a(g2265
I1
tp5981
a(g740
I1
tp5982
a(g1833
I1
tp5983
a(g1300
I1
tp5984
a(g1816
I1
tp5985
a(g1638
I1
tp5986
a(g3307
I1
tp5987
a(g3507
I1
tp5988
a(g1200
I1
tp5989
a(g2976
I1
tp5990
a(g2963
I1
tp5991
a(g3092
I1
tp5992
a(g261
I1
tp5993
a(g3485
I1
tp5994
a(g3325
I1
tp5995
a(g168
I1
tp5996
a(g2495
I1
tp5997
a(g527
I1
tp5998
a(g1952
I1
tp5999
a(g3492
I1
tp6000
a(g2218
I1
tp6001
a(g3052
I1
tp6002
asg84
(lp6003
(g284
I1
tp6004
a(g1867
I1
tp6005
a(g3478
I1
tp6006
a(g1322
I1
tp6007
a(g727
I2
tp6008
a(g2939
I1
tp6009
a(g1015
I1
tp6010
a(g925
I3
tp6011
a(g989
I1
tp6012
a(g2117
I1
tp6013
a(g1030
I1
tp6014
a(g1607
I2
tp6015
a(g769
I1
tp6016
a(g1544
I1
tp6017
a(g2677
I1
tp6018
a(g976
I1
tp6019
a(g840
I1
tp6020
a(g1002
I1
tp6021
a(g690
I2
tp6022
a(g1664
I1
tp6023
a(g3368
I1
tp6024
a(g963
I2
tp6025
a(g2479
I1
tp6026
a(g2913
I1
tp6027
a(g86
I1
tp6028
a(g2374
I1
tp6029
a(g1997
I1
tp6030
a(g2691
I2
tp6031
a(g660
I1
tp6032
a(g1411
I1
tp6033
a(g2606
I3
tp6034
a(g1479
I1
tp6035
a(g1732
I6
tp6036
a(g708
I1
tp6037
a(g2777
I1
tp6038
a(g2032
I1
tp6039
a(g3615
I1
tp6040
a(g2304
I1
tp6041
a(g753
I3
tp6042
a(g2452
I1
tp6043
a(g2628
I1
tp6044
a(g826
I1
tp6045
a(g2584
I1
tp6046
a(g1092
I1
tp6047
a(g2405
I1
tp6048
a(g1883
I1
tp6049
a(g2417
I1
tp6050
a(g1762
I4
tp6051
a(g3432
I1
tp6052
a(g1750
I2
tp6053
a(g2144
I1
tp6054
a(g1428
I1
tp6055
asg125
(lp6056
(g512
I9
tp6057
a(g1983
I1
tp6058
a(g457
I3
tp6059
a(g2046
I2
tp6060
a(g2189
I2
tp6061
a(g3002
I1
tp6062
a(g2630
I1
tp6063
a(g1998
I5
tp6064
a(g1775
I5
tp6065
a(g488
I1
tp6066
a(g1650
I2
tp6067
a(g126
I1
tp6068
a(g308
I1
tp6069
a(g1931
I1
tp6070
a(g365
I3
tp6071
a(g445
I7
tp6072
a(g2727
I1
tp6073
a(g3316
I2
tp6074
a(g2059
I1
tp6075
a(g1556
I5
tp6076
a(g1370
I3
tp6077
a(g2292
I1
tp6078
a(g1714
I5
tp6079
a(g1842
I1
tp6080
a(g3421
I1
tp6081
a(g3105
I1
tp6082
a(g1885
I1
tp6083
a(g3686
I1
tp6084
a(g1264
I4
tp6085
a(g472
I1
tp6086
a(g242
I1
tp6087
a(g1301
I2
tp6088
a(g412
I1
tp6089
a(g2351
I1
tp6090
a(g3369
I1
tp6091
a(g167
I6
tp6092
a(g3063
I1
tp6093
a(g1528
I3
tp6094
a(g384
I1
tp6095
a(g219
I3
tp6096
a(g3229
I1
tp6097
a(g2743
I1
tp6098
a(g1900
I1
tp6099
a(g2106
I2
tp6100
a(g1205
I1
tp6101
a(g3180
I4
tp6102
a(g1381
I3
tp6103
a(g2217
I1
tp6104
a(g1733
I1
tp6105
a(g3282
I1
tp6106
a(g2480
I1
tp6107
a(g290
I4
tp6108
asg13
(lp6109
(g692
I2
tp6110
a(g2836
I1
tp6111
a(g42
I10
tp6112
a(g1251
I1
tp6113
a(g1266
I1
tp6114
a(g1465
I2
tp6115
a(g1222
I1
tp6116
a(g863
I1
tp6117
a(g2107
I1
tp6118
a(g2084
I1
tp6119
a(g1348
I1
tp6120
a(g543
I1
tp6121
a(g2352
I1
tp6122
a(g809
I11
tp6123
a(g2867
I1
tp6124
a(g107
I4
tp6125
a(g728
I1
tp6126
a(g3021
I2
tp6127
a(g2608
I2
tp6128
a(g2406
I1
tp6129
a(g62
I11
tp6130
a(g1690
I1
tp6131
a(g3131
I1
tp6132
a(g964
I4
tp6133
a(g385
I1
tp6134
a(g3196
I1
tp6135
a(g473
I1
tp6136
a(g262
I1
tp6137
a(g14
I1
tp6138
a(g3053
I1
tp6139
a(g1031
I1
tp6140
a(g2200
I1
tp6141
a(g771
I2
tp6142
a(g2219
I1
tp6143
a(g1495
I3
tp6144
a(g977
I1
tp6145
a(g3403
I1
tp6146
a(g1003
I2
tp6147
a(g3447
I1
tp6148
a(g2964
I3
tp6149
a(g3599
I1
tp6150
a(g1442
I1
tp6151
a(g3207
I1
tp6152
a(g605
I1
tp6153
a(g1639
I2
tp6154
a(g490
I24
tp6155
a(g628
I1
tp6156
a(g221
I1
tp6157
a(g2538
I1
tp6158
a(g1371
I3
tp6159
a(g569
I1
tp6160
a(g3659
I1
tp6161
a(g3382
I1
tp6162
a(g204
I1
tp6163
a(g1080
I1
tp6164
a(g2376
I1
tp6165
a(g1016
I1
tp6166
a(g2745
I1
tp6167
a(g1429
I1
tp6168
a(g1336
I1
tp6169
a(g1585
I3
tp6170
a(g662
I1
tp6171
a(g1093
I1
tp6172
a(g398
I1
tp6173
a(g127
I1
tp6174
a(g1571
I1
tp6175
a(g2307
I3
tp6176
a(g1109
I1
tp6177
a(g144
I15
tp6178
a(g876
I8
tp6179
a(g2900
I2
tp6180
a(g1382
I1
tp6181
a(g1651
I1
tp6182
a(g1715
I1
tp6183
a(g186
I6
tp6184
a(g309
I1
tp6185
a(g1901
I1
tp6186
a(g3317
I1
tp6187
a(g2019
I3
tp6188
a(g3704
I1
tp6189
a(g2631
I1
tp6190
a(g3334
I1
tp6191
a(g338
I1
tp6192
a(g1048
I1
tp6193
a(g830
I6
tp6194
a(g3522
I1
tp6195
a(g2235
I1
tp6196
a(g352
I1
tp6197
a(g3299
I1
tp6198
asg15
(lp6199
(g108
I1
tp6200
a(g570
I3
tp6201
a(g3151
I1
tp6202
a(g205
I15
tp6203
a(g1868
I3
tp6204
a(g675
I1
tp6205
a(g2085
I1
tp6206
a(g16
I78
tp6207
a(g2551
I1
tp6208
a(g712
I1
tp6209
a(g169
I1
tp6210
a(g1890
I2
tp6211
a(g474
I2
tp6212
a(g1466
I1
tp6213
a(g353
I1
tp6214
a(g3168
I1
tp6215
a(g366
I4
tp6216
a(g1193
I8
tp6217
a(g321
I2
tp6218
a(g389
I1
tp6219
a(g2223
I4
tp6220
a(g3617
I1
tp6221
a(g399
I1
tp6222
a(g814
I18
tp6223
a(g1360
I1
tp6224
a(g246
I2
tp6225
a(g1067
I7
tp6226
asg49
(lp6227
(g212
I6
tp6228
a(g942
I1
tp6229
a(g1188
I2
tp6230
a(g650
I1
tp6231
a(g2384
I1
tp6232
a(g2893
I1
tp6233
a(g952
I2
tp6234
a(g834
I1
tp6235
a(g1403
I1
tp6236
a(g2823
I1
tp6237
a(g700
I2
tp6238
a(g3465
I1
tp6239
a(g3098
I1
tp6240
a(g1948
I1
tp6241
a(g66
I1
tp6242
a(g1115
I1
tp6243
a(g1142
I4
tp6244
a(g907
I4
tp6245
a(g1228
I1
tp6246
a(g152
I32
tp6247
a(g1060
I5
tp6248
a(g3165
I1
tp6249
a(g50
I1
tp6250
a(g1164
I1
tp6251
a(g1172
I3
tp6252
a(g77
I4
tp6253
a(g1793
I3
tp6254
a(g636
I1
tp6255
a(g1551
I1
tp6256
a(g1460
I1
tp6257
a(g3248
I2
tp6258
a(g3499
I1
tp6259
a(g920
I1
tp6260
a(g1622
I5
tp6261
a(g162
I4
tp6262
a(g561
I3
tp6263
a(g993
I7
tp6264
a(g777
I1
tp6265
a(g3350
I1
tp6266
a(g1951
I1
tp6267
a(g3158
I1
tp6268
a(g1743
I2
tp6269
a(g2176
I1
tp6270
a(g598
I1
tp6271
a(g818
I1
tp6272
a(g2578
I1
tp6273
a(g793
I1
tp6274
a(g267
I24
tp6275
a(g1513
I6
tp6276
a(g580
I1
tp6277
a(g2052
I1
tp6278
a(g2137
I1
tp6279
a(g2269
I1
tp6280
a(g3041
I1
tp6281
a(g2948
I1
tp6282
asg32
(lp6283
(g34
I9
tp6284
a(g3162
I1
tp6285
a(g593
I22
tp6286
a(g35
I98
tp6287
a(g158
I10
tp6288
a(g2885
I1
tp6289
a(g763
I1
tp6290
a(g560
I14
tp6291
a(g1157
I1
tp6292
a(g3087
I2
tp6293
a(g1105
I1
tp6294
a(g2616
I1
tp6295
a(g912
I1
tp6296
a(g783
I1
tp6297
a(g2042
I1
tp6298
a(g2127
I1
tp6299
a(g56
I20
tp6300
a(g1505
I8
tp6301
a(g624
I1
tp6302
a(g1541
I1
tp6303
a(g1450
I1
tp6304
a(g3240
I2
tp6305
a(g3030
I1
tp6306
a(g2934
I1
tp6307
asg288
(lp6308
(g288
I8
tp6309
a(g502
I4
tp6310
a(g1160
I1
tp6311
a(g770
I1
tp6312
a(g289
I10
tp6313
asg27
(lp6314
(g3433
I1
tp6315
a(g3342
I2
tp6316
a(g320
I23
tp6317
a(g3042
I2
tp6318
a(g3269
I1
tp6319
a(g337
I10
tp6320
a(g273
I30
tp6321
a(g71
I40
tp6322
a(g179
I36
tp6323
a(g28
I26
tp6324
a(g938
I9
tp6325
a(g511
I11
tp6326
a(g123
I12
tp6327
a(g97
I14
tp6328
a(g61
I1
tp6329
a(g88
I10
tp6330
a(g220
I16
tp6331
a(g142
I31
tp6332
a(g307
I3
tp6333
a(g411
I3
tp6334
a(g1641
I1
tp6335
a(g3228
I1
tp6336
a(g3139
I1
tp6337
a(g51
I13
tp6338
asg145
(lp6339
(g1572
I1
tp6340
a(g3705
I1
tp6341
a(g617
I1
tp6342
a(g1094
I1
tp6343
a(g2132
I1
tp6344
a(g795
I1
tp6345
a(g3511
I1
tp6346
a(g1999
I1
tp6347
a(g2715
I1
tp6348
a(g1357
I1
tp6349
a(g446
I1
tp6350
a(g2888
I1
tp6351
a(g2047
I1
tp6352
a(g1887
I1
tp6353
a(g1652
I1
tp6354
a(g3422
I1
tp6355
a(g2418
I1
tp6356
a(g2429
I1
tp6357
a(g937
I1
tp6358
a(g3569
I1
tp6359
a(g3300
I1
tp6360
a(g2807
I1
tp6361
a(g310
I1
tp6362
a(g1313
I1
tp6363
a(g3217
I1
tp6364
a(g884
I1
tp6365
a(g1704
I1
tp6366
a(g3003
I1
tp6367
a(g1430
I1
tp6368
a(g2564
I1
tp6369
a(g1594
I1
tp6370
a(g2664
I1
tp6371
a(g513
I1
tp6372
a(g1825
I1
tp6373
a(g435
I1
tp6374
a(g1017
I1
tp6375
a(g458
I1
tp6376
a(g3493
I1
tp6377
a(g2481
I1
tp6378
a(g1206
I1
tp6379
a(g1586
I1
tp6380
a(g1372
I1
tp6381
a(g1944
I1
tp6382
a(g1902
I1
tp6383
a(g3343
I1
tp6384
a(g3404
I1
tp6385
a(g2020
I1
tp6386
a(g1323
I1
tp6387
a(g1545
I1
tp6388
a(g1973
I1
tp6389
a(g2074
I1
tp6390
a(g2391
I1
tp6391
a(g2539
I1
tp6392
a(g1148
I1
tp6393
a(g1675
I1
tp6394
a(g386
I1
tp6395
a(g2060
I1
tp6396
a(g729
I1
tp6397
a(g2154
I1
tp6398
a(g2170
I1
tp6399
a(g629
I1
tp6400
a(g810
I1
tp6401
a(g2729
I1
tp6402
a(g915
I1
tp6403
a(g2901
I1
tp6404
a(g3584
I1
tp6405
a(g2220
I1
tp6406
a(g2308
I1
tp6407
a(g594
I1
tp6408
a(g1776
I1
tp6409
a(g243
I1
tp6410
a(g2465
I1
tp6411
a(g1161
I1
tp6412
a(g1400
I1
tp6413
a(g1267
I1
tp6414
a(g1854
I1
tp6415
a(g1049
I1
tp6416
a(g2876
I1
tp6417
a(g3035
I1
tp6418
a(g146
I1
tp6419
a(g851
I1
tp6420
a(g3283
I1
tp6421
a(g1806
I1
tp6422
a(g709
I1
tp6423
a(g2236
I1
tp6424
a(g643
I1
tp6425
a(g1418
I1
tp6426
a(g2266
I1
tp6427
a(g1252
I1
tp6428
asg22
(lp6429
(g1880
I2
tp6430
a(g24
I83
tp6431
a(g1471
I1
tp6432
a(g348
I1
tp6433
a(g161
I5
tp6434
a(g2088
I1
tp6435
a(g237
I2
tp6436
a(g327
I2
tp6437
a(g377
I1
tp6438
a(g817
I18
tp6439
a(g1363
I1
tp6440
a(g1072
I7
tp6441
a(g115
I1
tp6442
a(g1862
I3
tp6443
a(g680
I1
tp6444
a(g2554
I1
tp6445
a(g211
I24
tp6446
a(g2212
I4
tp6447
a(g3156
I1
tp6448
a(g3610
I1
tp6449
a(g405
I1
tp6450
a(g716
I1
tp6451
asg20
(lp6452
(g2468
I1
tp6453
a(g21
I1
tp6454
a(g95
I1
tp6455
a(g2555
I1
tp6456
a(g265
I1
tp6457
a(g3450
I1
tp6458
a(g2971
I7
tp6459
a(g2941
I1
tp6460
asg1454
(lp6461
(g1455
I1
tp6462
a(g2889
I1
tp6463
asg78
(lp6464
(g649
I47
tp6465
a(g3589
I3
tp6466
a(g968
I3
tp6467
a(g79
I2
tp6468
a(g1680
I1
tp6469
a(g3536
I1
tp6470
a(g177
I14
tp6471
a(g854
I1
tp6472
a(g801
I6
tp6473
a(g953
I4
tp6474
a(g857
I6
tp6475
a(g496
I7
tp6476
a(g229
I3
tp6477
a(g393
I1
tp6478
a(g3653
I1
tp6479
a(g2871
I1
tp6480
a(g250
I8
tp6481
a(g116
I10
tp6482
a(g2527
I1
tp6483
a(g343
I2
tp6484
a(g464
I8
tp6485
a(g1577
I12
tp6486
asg29
(lp6487
(g40
I1
tp6488
a(g718
I1
tp6489
a(g1896
I1
tp6490
a(g2227
I1
tp6491
a(g1243
I2
tp6492
a(g2640
I1
tp6493
a(g1683
I1
tp6494
a(g3624
I4
tp6495
a(g1343
I5
tp6496
a(g1744
I3
tp6497
a(g2570
I1
tp6498
a(g2187
I2
tp6499
a(g2489
I1
tp6500
a(g747
I2
tp6501
a(g1285
I1
tp6502
a(g2922
I1
tp6503
a(g2324
I1
tp6504
a(g2598
I3
tp6505
a(g1940
I3
tp6506
a(g3352
I1
tp6507
a(g652
I4
tp6508
a(g1949
I1
tp6509
a(g316
I5
tp6510
a(g1310
I4
tp6511
a(g576
I3
tp6512
a(g2100
I1
tp6513
a(g1957
I1
tp6514
a(g556
I1
tp6515
a(g30
I5
tp6516
a(g2710
I1
tp6517
a(g3547
I1
tp6518
a(g612
I1
tp6519
a(g3385
I1
tp6520
a(g1113
I1
tp6521
a(g1630
I8
tp6522
a(g847
I1
tp6523
a(g2068
I1
tp6524
a(g2546
I1
tp6525
a(g252
I5
tp6526
a(g135
I6
tp6527
a(g1537
I1
tp6528
a(g1461
I1
tp6529
a(g3012
I1
tp6530
a(g118
I1
tp6531
a(g2251
I1
tp6532
a(g3308
I1
tp6533
a(g3203
I1
tp6534
a(g2801
I1
tp6535
a(g1991
I1
tp6536
a(g154
I1
tp6537
a(g3189
I6
tp6538
a(g1201
I5
tp6539
a(g2386
I1
tp6540
a(g2396
I1
tp6541
a(g1230
I13
tp6542
a(g3696
I1
tp6543
a(g3665
I1
tp6544
a(g1795
I1
tp6545
a(g1501
I4
tp6546
a(g1257
I7
tp6547
a(g1392
I4
tp6548
a(g214
I2
tp6549
a(g1190
I3
tp6550
a(g2433
I1
tp6551
a(g779
I1
tp6552
a(g195
I1
tp6553
a(g3606
I1
tp6554
a(g3125
I3
tp6555
a(g2259
I2
tp6556
a(g2365
I3
tp6557
a(g1910
I1
tp6558
a(g1670
I2
tp6559
a(g2971
I16
tp6560
a(g880
I1
tp6561
a(g95
I7
tp6562
a(g52
I1
tp6563
a(g2123
I1
tp6564
a(g1331
I1
tp6565
a(g1214
I3
tp6566
a(g2461
I1
tp6567
a(g1981
I2
tp6568
a(g3043
I1
tp6569
a(g3114
I1
tp6570
a(g1838
I1
tp6571
a(g2996
I1
tp6572
a(g669
I3
tp6573
a(g300
I1
tp6574
a(g2841
I2
tp6575
a(g1486
I1
tp6576
a(g1564
I11
tp6577
a(g2471
I1
tp6578
a(g702
I9
tp6579
a(g900
I2
tp6580
a(g278
I3
tp6581
a(g2038
I1
tp6582
a(g498
I1
tp6583
a(g534
I2
tp6584
a(g2982
I10
tp6585
a(g1353
I10
tp6586
a(g1515
I1
tp6587
a(g1524
I1
tp6588
a(g637
I1
tp6589
a(g2907
I1
tp6590
a(g2358
I1
tp6591
a(g1724
I1
tp6592
a(g2166
I1
tp6593
a(g2510
I1
tp6594
a(g231
I1
tp6595
a(g1101
I1
tp6596
a(g180
I3
tp6597
a(g954
I7
tp6598
a(g1696
I4
tp6599
a(g1601
I1
tp6600
a(g870
I1
tp6601
a(g80
I2
tp6602
a(g521
I1
tp6603
a(g891
I3
tp6604
a(g3143
I2
tp6605
astp6606
.
