((lp0
(dp1
S'jobCluster'
p2
(lp3
S'business'
p4
asS'lookingFor'
p5
S'highly educated, charming girl below 30 yrs from compatible background India / Abroad'
p6
sS'height'
p7
S'170 cms'
p8
sS'astro'
p9
S'Moolam'
p10
sS'job'
p11
S'own Investment Management business in USA'
p12
sS'contact'
p13
S'Box No.KA-109, THE HINDU, Kochi - 682 019, India'
p14
sS'casteCluster'
p15
(lp16
S'menon'
p17
asS'pg'
p18
S' MBA (top ranking US University)'
p19
sS'base'
p20
S'Kochi'
p21
sS'astroCluster'
p22
(lp23
S'moolam'
p24
asS'ug'
p25
S'BTech (NIT)'
p26
sS'age'
p27
S'34'
p28
sS'caste'
p29
S'Menon'
p30
sa(dp31
g2
(lp32
S'wipro'
p33
asg27
S'33'
p34
sg11
S'Associate VP Fin WIPRO'
p35
sg13
S'080-40968512'
p36
sg15
(lp37
S'mudaliar'
p38
asg20
S'Bangalore'
p39
sg5
S'homely girl from educated cultured Hindu family. Caste no bar'
p40
sg29
S'TV MUDALIAR'
p41
sa(dp42
g2
(lp43
S'sw'
p44
asg5
S'Beautiful Slim Fair Well Qlfd BE/M.Sc(M,P,C)/ MBBS. Ht above 162cm Age below 28yrs from decent well sett.family. Language, Caste nobar'
p45
sg7
S'182'
p46
sg27
g34
sg11
S'SWE'
p47
sg13
S'Box No.ZM61592, THE HINDU, Chennai-600002'
p48
sg15
(lp49
S'vellalar'
p50
asg18
S'MBA-Sanjose Univ.US'
p51
sg20
S'USA'
p52
sg25
S'B.Tech(CSC) IIT'
p53
sS'ph'
p54
S'9444740856'
p55
sS'email'
p56
S'priyaxavier4@gmail.com'
p57
sg29
S'RC VELLALAR'
p58
sa(dp59
g2
(lp60
S'govt'
p61
asg27
S'40'
p62
sg11
S'Central Govt'
p63
sg13
S'Box No. HB-1582, THE HINDU, Chennai-600002'
p64
sS'widower'
p65
S'Widower'
p66
sg20
S'Chennai'
p67
sg15
(lp68
S'sc'
p69
asg5
S'Caste no bar'
p70
sg29
S'Hindu SC'
p71
sa(dp72
S'descCluster'
p73
(lp74
S'fair'
p75
aS'handsome'
p76
asg2
(lp77
S'bpo'
p78
asg27
S'27'
p79
sS'father'
p80
S'Gujarathi'
p81
sg11
S'BPO'
p82
sg13
S'Box No: HB-1549 The Hindu Chennai-600002'
p83
sS'mother'
p84
S'Kannadam'
p85
sg5
S'pure vegetarian Hindu Bride caste no bar'
p86
sS'desc'
p87
S'fair handsome'
p88
sa(dp89
g2
(lp90
S'intel'
p91
asS'family'
p92
S'younger son working in California'
p93
sg5
S'mangalik girl from a decent family'
p94
sg80
S'educationists'
p95
sg7
S'167 cms'
p96
sg56
S'formail08@gmail.com'
p97
sg11
S'intel'
p98
sg13
S'Box No.ND-44, THE HINDU, INS Building, Rafi Marg, New Delhi-110001'
p99
sg15
(lp100
S'kumaoni brahmin'
p101
asg18
S'MS USA'
p102
sg20
S'U.S'
p103
sg84
g95
sg25
S'B. Tech IIT'
p104
sg54
S'91-5946-280172'
p105
sg27
S'28'
p106
sg29
S'KUMAONI BRAHMIN'
p107
sa(dp108
g73
(lp109
S'smart educated'
p110
asg2
(lp111
g4
asg27
S'31'
p112
sg11
S'Running own Business'
p113
sg13
S'Box No. BA-161, THE HINDU, Bangalore-560001'
p114
sg54
S'9632226069'
p115
sg5
S'attractive girl'
p116
sg87
S'SMART EDUCATED'
p117
sa(dp118
g2
(lp119
S'mnc'
p120
asS'incomeCluster'
p121
(lp122
S'25000'
p123
asg27
g79
sg7
S'167'
p124
sg9
S'Uthiram'
p125
sg11
S'MNC'
p126
sg13
S'Box No.CB-342, THE HINDU, Coimbatore-641018'
p127
sg15
(lp128
S'kurumba gounder'
p129
asg18
S'MBA'
p130
sg20
g39
sS'income'
p131
S'Rs 25000 pm'
p132
sg22
(lp133
S'uthiram'
p134
asg25
S'BE'
p135
sg5
S'from same community any professional Degree'
p136
sg29
S'KURUMBA GOUNDER'
p137
sa(dp138
g2
(lp139
g120
asg5
S'MADHWA/SMARTHA Bride'
p140
sg9
S'Sravana'
p141
sg27
g28
sg11
g126
sg20
S'US'
p142
sg15
(lp143
S'madhwa'
p144
asg18
S'MS (IIT)'
p145
sg22
(lp146
S'sravana'
p147
asg25
g135
sg54
S'080-26493727'
p148
sg56
S'tsr_e@yahoo.com'
p149
sg29
S'MADHWA/SMARTHA'
p150
sa(dp151
g2
(lp152
g120
asg5
S'any Brahmin with 4-6yrs diff'
p153
sg7
S'173'
p154
sg9
S'Vasista/Rohini'
p155
sg27
S'38'
p156
sg11
S'SrMgr MNC'
p157
sg20
S'Hyd'
p158
sg15
(lp159
g144
asg18
S'PG'
p160
sg22
(lp161
S'rohini'
p162
asg54
S' 040-27153090'
p163
sg56
S'mystic1@indiatimes.com'
p164
sg29
S'MADHWA'
p165
sa(dp166
g73
(lp167
g76
asg92
S'well known and affluent family of Karnataka'
p168
sg5
S'Kannada Madhwa/ Deshesta South Indian Brahmin Bride from good family background'
p169
sg7
g154
sg9
S'Koundenya Gothra, Shravana Nakshatra'
p170
sg56
S'replyblr@gmail.com'
p171
sg13
S'Box No. BA-175, THE HINDU, Bangalore-560001'
p172
sg15
(lp173
g144
asg18
g130
sg22
(lp174
S'koundenya gothra, shravana nakshatra'
p175
asg54
S'098456 25902'
p176
sg87
S'handsome'
p177
sg27
S'35'
p178
sg29
S'KANNADA MADHWA'
p179
sa(dp180
g2
(lp181
g120
asg27
S'29'
p182
sg7
S'162'
p183
sg9
S'Bharadwaja, Uthiram, Kanya'
p184
sg11
g126
sg15
(lp185
g144
asg18
S'MCA'
p186
sg22
(lp187
g134
asg54
S'9629574625'
p188
sg5
S'Good Looking Madhwa/Smartha Girl'
p189
sg29
g179
sa(dp190
g2
(lp191
S'doctor'
p192
asg5
S'born again Christian Doctor girls'
p193
sg7
S'175'
p194
sg27
g106
sg11
S'Doctor'
p195
sg20
S'Europe'
p196
sg15
(lp197
S'nadar'
p198
aS'christian'
p199
asg18
S'doing MS(GS)'
p200
sg54
S'00919443581652'
p201
sg56
S'iyyan.kutty@yahoo.com'
p202
sg29
S'Christian Nadar born again'
p203
sa(dp204
g2
(lp205
S'lecturer'
p206
asg27
g182
sg7
S'168'
p207
sg11
S'Lecturer'
p208
sg15
(lp209
g199
asg18
S'M.Sc.,M.Ed'
p210
sg54
S'09393785003'
p211
sg5
S'Pentecost, educated fair bride below 26'
p212
sg29
S'Cheramar Christian Pentecost'
p213
sa(dp214
g73
(lp215
g75
asg2
(lp216
S'manager'
p217
ag120
asg27
g106
sg7
g194
sg11
S'Manager, MNC'
p218
sg20
g39
sg15
(lp219
g199
asg18
g130
sg54
S'09739 1894617'
p220
sg87
S'Fair'
p221
sg25
S'B.E'
p222
sg29
S'CHRISTIAN'
p223
sa(dp224
g27
S'30'
p225
sg7
S'165'
p226
sg20
S'Dubai (family Visa)'
p227
sg15
(lp228
S'thiyya'
p229
asg54
S'09843690006'
p230
sg29
S'THIYYA'
p231
sa(dp232
g2
(lp233
S'free lance advertising'
p234
asg27
S'42'
p235
sg7
g226
sg9
S'Pooraadam,Shudham'
p236
sg11
S'free lance advertising'
p237
sg13
S'Box No.HB-1471,The Hindu,Chennai-600002'
p238
sg15
(lp239
g17
asg18
S'PG,LLB'
p240
sg20
S'Pune'
p241
sg22
(lp242
S'pooraadam,shudham'
p243
asg5
S'Nair/Menon'
p244
sg29
S'MENON'
p245
sa(dp246
g2
(lp247
g4
asg27
S'46'
p248
sg7
g194
sg11
S'Businessman'
p249
sg65
g66
sg18
S'M.Sc'
p250
sg15
(lp251
S'nair'
p252
asg54
S'09745602731'
p253
sg5
S'any caste/religion'
p254
sg29
S'NAIR'
p255
sa(dp256
g2
(lp257
S'ca'
p258
asg27
g34
sg7
g183
sg9
S'Rohini'
p259
sg11
S'Airtel CAMS'
p260
sg13
S'Box No:HB-1521 THE HINDU Chennai-600002'
p261
sg15
(lp262
g252
asg20
g67
sg22
(lp263
g162
asg54
S'9840039577, 9840067131'
p264
sg25
S'BBA'
p265
sg29
g255
sa(dp266
S'divorcee'
p267
g267
sg27
g28
sg7
S'170'
p268
sg13
S'Box No. MA-238, THE HINDU, Madurai - 625 020'
p269
sg15
(lp270
g252
asg18
g160
sg5
S'educated bride below 29 yrs allied caste'
p271
sg29
S'HINDU NAIR Swathi '
p272
sa(dp273
g27
S'41'
p274
sg7
S'172'
p275
sg20
S'TRICHY'
p276
sg15
(lp277
g252
asg54
S'9942649733'
p278
sg5
S'below 35 yrs'
p279
sg29
S'Nair'
p280
sa(dp281
g73
(lp282
S'ailyam native pkd'
p283
asg27
g225
sg25
g135
sg7
g46
sg56
S'nairvk46@rediffmail.com'
p284
sg15
(lp285
g252
asg54
S'080-25743085 / 09880522944'
p286
sg87
S'Ailyam Native PKD'
p287
sg5
S'upto 26 yrs, from EKM to Kannur Districts'
p288
sg29
g280
sa(dp289
g2
(lp290
S'saudi arabia'
p291
asg27
g182
sg7
S'171'
p292
sg11
S'Saudi Arabia'
p293
sg20
g67
sg15
(lp294
g252
asg54
S'044-26453183/ 9962251850'
p295
sg5
S'Suitable Nair Bride Preferably Settled in Chennai'
p296
sg29
S'HINDU-NAIR'
p297
sa(dp298
g73
(lp299
S'makom suddha tvpm'
p300
asg2
(lp301
g258
asg27
S'32'
p302
sg7
g207
sg11
S'Medical Lab Tech'
p303
sg13
S'Box No TV-79, THE HINDU, Thiruvananthapuram-695009'
p304
sg15
(lp305
S'ezhava'
p306
asg87
S'Makom Suddha Tvpm'
p307
sg29
S'EZHAVA'
p308
sa(dp309
g2
(lp310
g217
asg267
S'Divorcee'
p311
sg27
g274
sg7
S'155'
p312
sg11
S'Purchase Manager'
p313
sg13
S'Box No.AA22644, THE HINDU, Chennai-600002'
p314
sg15
(lp315
g252
asg18
S'M.Com'
p316
sg5
S'Nair/Menon, unmarried below 36yrs'
p317
sg29
g255
sa(dp318
g2
(lp319
g120
asg5
S'MALAYALEE Bride'
p320
sg7
S'163'
p321
sg27
g34
sg11
S'leading MNC'
p322
sg20
S'Hyderabad'
p323
sg18
g130
sg54
S'9908514340/9949954052'
p324
sg56
S'gatp3364@yahoo.co.uk'
p325
sa(dp326
g2
(lp327
S'it'
p328
asg27
g182
sg7
g194
sg9
S'Chitra'
p329
sg11
S'Dubai banking sector with family Visa'
p330
sg13
S'BHP. Box No.WW56872, THE HINDU, Chennai-600002.'
p331
sg15
(lp332
S'nambiar'
p333
asg20
g67
sg22
(lp334
S'chitra'
p335
asg5
S'educated similar background north Malabar girl'
p336
sg29
S'NAMBIAR'
p337
sa(dp338
g2
(lp339
g328
asg5
S'Well Educated & Empd Girl below 33yrs Height above 160cm from South India'
p340
sg7
g46
sg9
S'Pooyyam'
p341
sg27
S'36'
p342
sg11
S'IT'
p343
sg20
S'Chennai(Currently in USA)'
p344
sg15
(lp345
g17
ag252
asg22
(lp346
S'pooyyam'
p347
asg25
g135
sg54
S'044-22230023'
p348
sg56
S'pramodhu@yahoo.com'
p349
sg29
S'Menon/Nair'
p350
sa(dp351
g73
(lp352
g75
asg2
(lp353
S'employed in pvt'
p354
asg27
g225
sg7
g124
sg9
S'Vishakam'
p355
sg11
S'employed in Pvt'
p356
sg20
S'CHENNAI'
p357
sg15
(lp358
g306
asg22
(lp359
S'vishakam'
p360
asg25
S'B.Com'
p361
sg87
S'fair'
p362
sg5
S'044-22603040'
p363
sg29
S'Ezhava'
p364
sa(dp365
g73
(lp366
g76
asg2
(lp367
S'software engineer'
p368
asg27
g182
sg7
S'176'
p369
sg11
S'Software Engineer'
p370
sg15
(lp371
g306
asg18
S'MS'
p372
sg54
S'098402-89566'
p373
sg87
S'very handsome'
p374
sg25
g135
sg29
g308
sa(dp375
g2
(lp376
g258
asg27
g34
sg7
g275
sg9
S'Chothi Doshajathakam'
p377
sg11
S'Advocate'
p378
sg20
S'Ernakulam'
p379
sg15
(lp380
g252
asg18
S'Postgraduate (International Trade Scotland)'
p381
sg22
(lp382
S'chothi doshajathakam'
p383
asg54
S'0491-2544992/09746939932'
p384
sg29
S'OTTAPALAM NAIR'
p385
sa(dp386
g73
(lp387
g76
asg2
(lp388
g192
asg27
g182
sg11
g195
sg20
g67
sg15
(lp389
g252
asg18
g372
sg54
S'09447027631, 04952703537'
p390
sg87
S'Handsome'
p391
sg25
S'MBBS'
p392
sg29
g255
sa(dp393
g2
(lp394
S'je in pwd'
p395
asg5
S'suitable bride working in C.Govt, Banks, CPWD, C.Schools & MES'
p396
sg7
g321
sg9
S'Ayilyam Suddha Jadagam'
p397
sg27
g182
sg11
S'JE in PWD'
p398
sg20
S'Andamans'
p399
sg15
(lp400
g252
asg22
(lp401
S'ayilyam'
p402
asg25
g135
sg54
S'04742408022'
p403
sg56
S'r3kpbl@yahoo.co.in'
p404
sg29
g255
sa(dp405
g2
(lp406
g120
asg27
g182
sg7
g194
sg11
S'System Analyst MNC'
p407
sg20
g39
sg15
(lp408
g306
asg18
g130
sg54
S' 080-4152 6286'
p409
sg25
g222
sg29
g308
sa(dp410
g2
(lp411
g120
ag368
asg27
g112
sg7
g194
sg11
S'Software Engineer, MNC'
p412
sg20
g39
sg15
(lp413
g252
asg18
g130
sg54
S'080-4125 2644 / 09742 746301'
p414
sg25
g222
sg29
g255
sa(dp415
g73
(lp416
g75
asg2
(lp417
S'hal'
p418
asg27
g106
sg7
g194
sg11
S'HAL'
p419
sg20
g39
sg15
(lp420
g252
asg18
S'M.Tech'
p421
sg54
S'092432 53566'
p422
sg87
g221
sg29
g255
sa(dp423
g2
(lp424
g120
asg5
S'well groomed & qualified Engineers/ Doctors/ MBAs, preferably employed or studying in US'
p425
sg27
g79
sg11
S'fortune 100 MNC'
p426
sg20
g142
sg15
(lp427
g333
asg18
S'Engineer'
p428
sg54
S'99406 50441/ 044-42604380'
p429
sg56
S'gokulam1977@gmail.com'
p430
sg29
S'Nambiar'
p431
sa(dp432
g27
g28
sg15
(lp433
S'bharani'
p434
asg18
S'Phd'
p435
sg54
S'044-22435816, 09677022011'
p436
sg5
S'Viswakarma Community'
p437
sg29
S'BHARANI'
p438
sa(dp439
g2
(lp440
g120
asg5
S'fair emp bride 3-4-yrs gap Keralite'
p441
sg7
g226
sg9
S'Uttiradam'
p442
sg56
S'seetharam_ramesh@yahoo.com'
p443
sg11
g126
sg20
g158
sg15
(lp444
S'iyer'
p445
asg18
S'PGDCA'
p446
sg22
(lp447
S'uttiradam'
p448
asg25
g361
sg54
S'040-24033072'
p449
sg27
g112
sg29
S'IYER VADAMA'
p450
sa(dp451
g2
(lp452
g328
asg5
S'Desastha Madhwa'
p453
sg7
g207
sg9
S'Arudhra Athreya'
p454
sg56
S'desbala@yahoo.com'
p455
sg11
S'Working with a Reputed Company'
p456
sg20
g67
sg15
(lp457
g144
asg18
g130
sg22
(lp458
S'arudhra athreya'
p459
asg54
S'044-25519540/09003019601'
p460
sg27
g34
sg29
S'MADHWA Desastha Marathi'
p461
sa(dp462
g2
(lp463
S'pvt officer'
p464
asg121
(lp465
S'15000'
p466
asg27
g112
sg7
g292
sg9
S'Athreya Rohini Rishabam'
p467
sg11
S'Pvt Officer'
p468
sg15
(lp469
g144
asg18
S'MSc PGDPM'
p470
sg131
S'15000'
p471
sg22
(lp472
g162
asg54
S'09865255757 09443149988'
p473
sg5
S'PG/UG Bride'
p474
sg29
S'MADHWA DESISTHA Brahmin'
p475
sa(dp476
g73
(lp477
g75
asg2
(lp478
g120
asg92
S'well off & Reputed Family of Chennai'
p479
sg27
g225
sg13
S'No.SH48592, THE HINDU, Chennai-600002'
p480
sg11
S'Development Dept of MNC'
p481
sg20
g39
sg15
(lp482
g144
asg18
g372
sg25
g135
sg87
S'Fair Tall'
p483
sg5
S'Goodlooking Girl Interested Families including Madhwa Kannadas Smartha Desisthas may repond'
p484
sg29
S'Madhwa Desistha'
p485
sa(dp486
g73
(lp487
S'own house'
p488
asg2
(lp489
g258
asg27
g79
sg7
g154
sg11
S'CA'
p490
sg20
S'Vizag,AP'
p491
sg15
(lp492
S'jain shwetambar'
p493
asg54
S'0891-2561609'
p494
sg29
S'JAIN SHWETAMBAR'
p495
sg87
S'own house'
p496
sa(dp497
g2
(lp498
g44
asg92
S'Coimbatore'
p499
sg11
S'SW-Engr'
p500
sg20
g52
sg15
(lp501
S'muslim'
p502
asg18
S'MSc'
p503
sg54
S'09443168288'
p504
sg56
S'artographs@gmail.com'
p505
sg29
S'MUSLIM'
p506
sa(dp507
g2
(lp508
S'assistant commissioner commercial tax'
p509
asg5
S'fair slim beautiful girl from Affluent Family'
p510
sg7
g268
sg56
S'arshad_task@yahoo.co.in'
p511
sg11
S'Assistant Commissioner Commercial Tax'
p512
sg13
S'Box No.KR42099, THE HINDU, Chennai-600002'
p513
sg15
(lp514
g502
asg54
S'9840201794'
p515
sg27
g225
sg29
S'TAMIL MUSLIM'
p516
sa(dp517
g2
(lp518
g120
asg121
(lp519
S'24l pa'
p520
asg267
g311
sg27
g225
sg7
g194
sg11
g126
sg20
S'UAE'
p521
sg15
(lp522
g502
asg18
S'ME'
p523
sg131
S'24L PA'
p524
sg54
S'9940017088'
p525
sg5
S'Goodlooking Girl from Good family Background'
p526
sg29
S'TAMIL SUNNI Muslim'
p527
sa(dp528
g27
g28
sg7
g194
sg13
S'No.DM32238, THE HINDU, Chennai-600002'
p529
sg18
g372
sg20
S'Chicago (USA)'
p530
sg5
S'AMERICA SETTLED/ South Indian age 27- 30 with good academic,family background'
p531
sa(dp532
g73
(lp533
S'has a birth defect of infertility'
p534
asg2
(lp535
g328
asg27
g28
sg11
S'well placed with good Remuneration'
p536
sg15
(lp537
S'catholic'
p538
asg29
S'Catholic'
p539
sg5
S'Unmarried Catholic Bride having infertility or for any reasons could not have child'
p540
sg87
S'has a birth defect of infertility'
p541
sa(dp542
g2
(lp543
g217
asg121
(lp544
S'gbp 45,000 p.a. '
p545
asg5
S'God fearing bride'
p546
sg7
g268
sg27
g34
sg11
S'Manager-Projects in EDS Hewlett-Packard'
p547
sg20
S'London'
p548
sg15
(lp549
g198
asg131
S'GBP 45,000 p.a. '
p550
sg25
g222
sg54
S'04651-270589'
p551
sg29
S'Nadar'
p552
sa(dp553
g2
(lp554
g44
asg92
S'Pondicherry'
p555
sg267
g311
sg27
g34
sg7
g226
sg11
g47
sg20
g52
sg15
(lp556
S'vanniar'
p557
asg18
g186
sg54
S'09443560880'
p558
sg5
S'UG/PG girl below 28'
p559
sg29
S'RC VANNIAR'
p560
sa(dp561
g2
(lp562
S'project lead'
p563
asg121
(lp564
S'40,000'
p565
asg27
g79
sg11
S'Project Lead'
p566
sg13
S'Box No. MA-235, THE HINDU, Madurai-625020'
p567
sg15
(lp568
g198
asg18
g130
sg131
S'40,000'
p569
sg5
S'born again Nadar girl from K.K.Dist'
p570
sg29
S'BORN AGAIN Nadar'
p571
sa(dp572
g2
(lp573
g44
asg5
S'BE/ MCA bride. Caste no bar'
p574
sg7
g275
sg27
g106
sg11
g47
sg20
g39
sg15
(lp575
g50
asg54
S'099958 24278'
p576
sg25
g135
sg29
S'DEVENDRAKULA Vellalar'
p577
sa(dp578
g73
(lp579
S'2sons 2daughters are married has house and car'
p580
asg2
(lp581
g328
asg267
S'Divorced'
p582
sg27
S'59'
p583
sg11
S'Owner of Computor Institute'
p584
sg15
(lp585
S'rc udayar'
p586
asg18
S'MA'
p587
sg54
S'9840022923'
p588
sg87
S'2Sons 2Daughters are Married has House and Car'
p589
sg5
S'Caste Religion No Bar'
p590
sg29
S'RC UDAYAR'
p591
sa(dp592
g2
(lp593
g44
asg27
g79
sg7
S'177'
p594
sg11
g47
sg20
g67
sg15
(lp595
g199
asg54
S'9677005353,044-45589019'
p596
sg5
S'Fair Professionaly Qlfd Bride from Christian/Hindu Pallan Caste'
p597
sg29
S'PALLAN CHRISTIAN'
p598
sa(dp599
g2
(lp600
g206
asg121
(lp601
S'22kpm'
p602
asg27
g106
sg7
g226
sg11
S'Eng Colg Lecturer'
p603
sg15
(lp604
g199
aS'csi'
p605
asg18
S'MTech'
p606
sg131
S'22Kpm'
p607
sg54
S'09840634666/044-25585143'
p608
sg5
S'BE/ME Lecturer Fair Girl'
p609
sg29
S'CSI CHRISTIAN'
p610
sa(dp611
g2
(lp612
g192
asg5
S'born again Christian Doctor'
p613
sg7
g194
sg56
g202
sg11
g195
sg15
(lp614
g198
ag199
asg18
S'MS(GS)'
p615
sg54
g201
sg27
g106
sg29
g203
sa(dp616
g2
(lp617
g44
asg27
g182
sg7
g226
sg11
S'SW Engineer'
p618
sg13
S'Box No.WW56875, THE HINDU, Chennai-600002'
p619
sg15
(lp620
S'protestant'
p621
asg20
S'Mumbai'
p622
sg54
S'022-27563553'
p623
sg5
S'Professional Tamil Christian Bride Age 24 To 26'
p624
sg29
S'PROTESTANT'
p625
sa(dp626
g73
(lp627
g75
ag76
asg5
S'fair and good looking BE/ME/MCA/MBA CSI Nadar bride below 25, of good height'
p628
sg7
S'180'
p629
sg27
g106
sg20
g142
sg15
(lp630
g198
ag605
asg18
g130
sg25
S'BE(CS)'
p631
sg87
S'fair & handsome'
p632
sg56
S'g.smani@yahoo.com'
p633
sg29
S'CSI NADAR'
p634
sa(dp635
g2
(lp636
g206
asg121
(lp637
g466
asg27
g182
sg7
g629
sg11
g208
sg15
(lp638
g605
asg18
g130
sg131
S'15000 pm'
p639
sg54
S' 0-9841166252/ 044-65283190'
p640
sg5
S'Lecturer Bride. Caste NoBar'
p641
sg29
S'CSI'
p642
sa(dp643
g2
(lp644
g44
asg5
S'Beautiful Slim Fair Well Qlfd BE/M.Sc(M,P,C)/ MBBS. Ht above 162cm Age below 28yrs from decent well sett.family'
p645
sg7
g46
sg56
g57
sg11
g47
sg13
S'Box No.ZM61594, THE HINDU, Chennai-600002'
p646
sg15
(lp647
g50
asg18
g51
sg20
g52
sg25
g53
sg54
S'0-9444740856'
p648
sg27
g34
sg29
g58
sa(dp649
g73
(lp650
S'rationalist, broad-minded, sensitive, caring'
p651
asg121
(lp652
S'21 lac pa'
p653
asg5
S'THOUGHTFUL, SENSITIVE, Caring, intelligent, rationalistic, Well-educated, broad-minded, hardworking, trustworthy girl'
p654
sg7
g629
sg56
S'sun1948@hotmail.co.uk'
p655
sg20
g548
sg15
(lp656
g198
ag199
ag605
asg18
S'PhD'
p657
sg131
S'21 Lac pa'
p658
sg87
S'Rationalist, broad-minded, sensitive, caring'
p659
sg27
g182
sg29
S'Tamil Nadar Liberal CSI Christian'
p660
sa(dp661
g2
(lp662
g44
asg5
S'Pious bride BE/ MCA same caste'
p663
sg7
S'179'
p664
sg27
g79
sg11
g47
sg20
S'Blr'
p665
sg15
(lp666
g621
asg25
g135
sg56
S'estherldc@gmail.com'
p667
sg29
S'PROTESTANT VELLALA'
p668
sa(dp669
g73
(lp670
g75
asg2
(lp671
g120
asg27
g106
sg7
g194
sg11
g126
sg20
g39
sg15
(lp672
g199
asg18
g130
sg54
S'09739 189461'
p673
sg87
g221
sg25
g222
sg29
g223
sa(dp674
g5
S'goodlooking girl,willing to settle in US'
p675
sg7
g594
sg9
S'Avittam'
p676
sg27
g106
sg20
g142
sg15
(lp677
S'tv mudr'
p678
asg18
g372
sg22
(lp679
S'avittam'
p680
asg25
g135
sg54
S'09382928212/9840548668'
p681
sg29
S'TV MUDR'
p682
sa(dp683
g2
(lp684
g44
asg121
(lp685
S'45000'
p686
asg27
g79
sg7
g275
sg11
g47
sg13
S'Box No.CB-312, THE HINDU, Coimbatore-641018'
p687
sg15
(lp688
S'dkv'
p689
asg131
S'45000 pm'
p690
sg25
g135
sg5
S'caste no bar'
p691
sg29
S'DKV'
p692
sa(dp693
g73
(lp694
S'wheatish'
p695
asg27
g182
sg7
S'178'
p696
sg20
S'Newyork US'
p697
sg15
(lp698
g198
asg54
S'098946-53256'
p699
sg29
S'HINDU NADAR'
p700
sg5
S'educated'
p701
sg87
S'wheatish'
p702
sa(dp703
g2
(lp704
S'scientist (research associate)'
p705
asg27
g79
sg7
S'164'
p706
sg11
S'Scientist (Research Associate)'
p707
sg15
(lp708
S'devendrakula velalar pallan'
p709
asg18
S'M.Pharm'
p710
sg54
S'0431-2614599/ Cell:9487157699/ 09000541780.'
p711
sg29
S'DEVENDRAKULA VELALAR Pallan'
p712
sa(dp713
g2
(lp714
S'air craft engr'
p715
asg27
g28
sg7
g194
sg9
S'Visagam/Thula'
p716
sg11
S'Air Craft Engr'
p717
sg13
S' Box No. HB-1474, THE HINDU, Chennai-600002'
p718
sg15
(lp719
g38
aS'saiva vellala'
p720
asg20
g67
sg22
(lp721
S'visagam'
p722
asg5
S'good looking fair girl'
p723
sg29
S'THONDAI MANDALA Saiva vellala Mudaliar'
p724
sa(dp725
g73
(lp726
g76
asg2
(lp727
S'civil engr'
p728
asg121
(lp729
S'15l/pa'
p730
asg27
g112
sg11
S'Civil Engr'
p731
sg13
S'Box No.HB-1478,THE HINDU,Chennai-600002'
p732
sg15
(lp733
g69
asg131
S'15L/PA'
p734
sg25
S'BS'
p735
sg87
g391
sg5
S'Any Prof / Engr Anycast'
p736
sg29
S'SC'
p737
sa(dp738
g5
S'Fair, Vegetarian Brides with PG or Four Year Degree'
p739
sg7
g696
sg56
S'kannan_nt@yahoo.co.in'
p740
sg20
g52
sg15
(lp741
S'pillai'
p742
asg18
S'Ph.D'
p743
sg54
S'9442401276'
p744
sg27
g182
sg29
S'SAIVA PILLAI Uthiradam'
p745
sa(dp746
g2
(lp747
g44
asg121
(lp748
S'35000/-'
p749
asg27
g106
sg80
S'TN Govt Officer'
p750
sg7
g292
sg11
g47
sg15
(lp751
S'sengunthar'
p752
asg18
g186
sg131
S'35000/- pm'
p753
sg54
S'04342-284067, 9443687686'
p754
sg5
S'BE/ME/MCA pref with job'
p755
sg29
S'KAIKOLAR SENGUNTHAR'
p756
sa(dp757
g73
(lp758
g695
asg27
g225
sg7
g594
sg9
S'Kanni Astham'
p759
sg13
S'Box No. HB-1493, THE HINDU, Chennai-600002'
p760
sg15
(lp761
S'vanniyar'
p762
asg18
S'MSc PhD'
p763
sg20
S'Texas USA'
p764
sg22
(lp765
S'kanni astham'
p766
asg25
g135
sg87
g702
sg5
S'decent family BE BTech MCA MBA Biotech or Microbiology same caste below 26 years early marriage'
p767
sg29
S'VANNIYAR'
p768
sa(dp769
g73
(lp770
g76
asg121
(lp771
S'rs.30,000p.m'
p772
asg5
S'Graduate, Beautiful&Homely Bride'
p773
sg7
g124
sg9
S'Punar Poosam'
p774
sg27
g106
sg15
(lp775
S'mudaliyar'
p776
asg18
S'MS.Pharma'
p777
sg131
S'Rs.30,000P.M'
p778
sg22
(lp779
S'poosam'
p780
asg25
S'B.Pharm'
p781
sg87
S'Handsome Good Appearance'
p782
sg54
S'04366-226022,9787171258'
p783
sg29
S'SENGUNTHA MUDALIYAR'
p784
sa(dp785
g2
(lp786
g44
asg5
S'BE MCA 5-feet modern middle class girl'
p787
sg7
g312
sg9
S'Visagam'
p788
sg27
g182
sg11
g47
sg20
g52
sg15
(lp789
g742
asg22
(lp790
g722
asg25
g135
sg54
S'04324-242020, 09894695497'
p791
sg29
S'PILLAI NV'
p792
sa(dp793
g92
S'Ooty'
p794
sg27
g302
sg9
S'Anusham, Viruchigam'
p795
sg13
S'Box No.KR42090, THE HINDU, Chennai-600002'
p796
sg15
(lp797
g50
asg20
S'Kuwait'
p798
sg22
(lp799
S'anusham, viruchigam'
p800
asg25
S'Bsc.Catering'
p801
sg5
S'Graduate Bride'
p802
sg29
S'SOZHIA VELLALAR'
p803
sa(dp804
g73
(lp805
S'clean habits'
p806
asg2
(lp807
S'software professional'
p808
asg267
g582
sg27
S'39'
p809
sg7
g207
sg11
S'Software Professional'
p810
sg13
S'Bio-Data.Box No.KR42092, THE HINDU, Chennai-600002'
p811
sg15
(lp812
S'chettiar'
p813
asg20
g52
sg87
S'Clean Habits Well Settled'
p814
sg5
S'TAMIL Bride Caste No Bar'
p815
sg29
S'Chettiar'
p816
sa(dp817
g73
(lp818
g76
asg2
(lp819
g120
asg121
(lp820
S'9l pa'
p821
asg5
S'fair good looking girl below 27 caste no bar'
p822
sg7
g696
sg27
g225
sg11
S'Dy Mgr, MNC'
p823
sg15
(lp824
g69
asg18
S'MIB Delhi U.Sity'
p825
sg131
S'9L PA'
p826
sg25
g222
sg87
g177
sg54
S'0416-2227178,9443490699'
p827
sg29
g737
sa(dp828
g121
(lp829
S'22,000'
p830
asg27
g112
sg56
S'mila@rediffmail.com'
p831
sg9
S'Meenam, Uthiratathi'
p832
sg15
(lp833
g198
asg131
S'22,000'
p834
sg22
(lp835
S'meenam, uthiratathi'
p836
asg25
S'BA (Eco)'
p837
sg54
S'9444035070'
p838
sg5
S'graduate girl from same caste'
p839
sg29
S'NADAR'
p840
sa(dp841
g2
(lp842
g120
ag328
asg121
(lp843
S'1.5l/pm'
p844
asg5
S'strict veg seeks beautiful bride below 33 of any veg Caste. No dowry'
p845
sg7
S'174'
p846
sg9
S'Hastham'
p847
sg56
S'sri.alaguu@gmail.com'
p848
sg11
S'Software Architect MNC'
p849
sg13
S'Box No. HB-1512, THE HINDU, Chennai-600002'
p850
sg15
(lp851
g742
asg18
g523
sg20
g39
sg131
S'1.5L/pm'
p852
sg22
(lp853
S'hastham'
p854
asg54
S'09731595054'
p855
sg27
g809
sg29
S'TAMIL SAIVA Pillai'
p856
sa(dp857
g2
(lp858
g44
asg5
S'employed bride from educated family'
p859
sg7
g268
sg9
S'Uthiradam'
p860
sg27
g182
sg11
g47
sg20
g67
sg15
(lp861
g50
asg18
g130
sg22
(lp862
S'uthiradam'
p863
asg25
g222
sg54
S'9842522075'
p864
sg29
g577
sa(dp865
g121
(lp866
g123
asg92
S'F/BRAHMIN M/TAMIL'
p867
sg5
S'preferably Yadava'
p868
sg7
g226
sg27
S'25'
p869
sg15
(lp870
S'yadava'
p871
asg18
g130
sg131
S'25000/- pm'
p872
sg25
g135
sg54
S'044-25558220 Cell 9710772343'
p873
sg29
S'Yadava'
p874
sa(dp875
g73
(lp876
g806
asg2
(lp877
g120
asg121
(lp878
S'rs,5lacs pa'
p879
asg92
S'F/SC M/Brahmin'
p880
sg5
S'Graduate Bride from any decent veg Hindu family'
p881
sg7
S'17'
p882
sg9
S'Chithrai(4)'
p883
sg27
g79
sg11
g126
sg20
S'Blore'
p884
sg131
S'Rs,5Lacs pa'
p885
sg22
(lp886
S'chithrai(4)'
p887
asg25
g135
sg54
S'9443426453/9791916663'
p888
sg87
S'clean habits'
p889
sa(dp890
g73
(lp891
S'greencard'
p892
asg2
(lp893
g44
asg87
S'Greencard'
p894
sg267
g267
sg5
S'fair educated girl. Caste no bar'
p895
sg7
g275
sg56
S'kumarphila@yahoo.com'
p896
sg11
g47
sg20
g52
sg15
(lp897
g50
asg18
g130
sg25
g135
sg54
S'9442645250'
p898
sg27
g34
sg29
S'KONGU VELLALAR'
p899
sa(dp900
g2
(lp901
S's/w'
p902
asg27
g182
sg7
g226
sg11
S'S/W'
p903
sg20
g39
sg15
(lp904
S'viswakarma'
p905
asg18
g186
sg54
S'9994395320'
p906
sg5
S'equally qfd and employed bride from respectable family'
p907
sg29
S'VISWAKARMA (TELUGU)'
p908
sa(dp909
g73
(lp910
g75
asg2
(lp911
S'tcs'
p912
asg121
(lp913
S'60000pm'
p914
asg27
g182
sg7
g226
sg11
S'TCS'
p915
sg20
g67
sg15
(lp916
S'hindu maruthuvar'
p917
asg131
S'60000pm'
p918
sg25
g135
sg87
g221
sg5
S'Proffessional Caste No Bar'
p919
sg29
S'HINDU MARUTHUVAR'
p920
sa(dp921
g73
(lp922
g75
asg2
(lp923
g44
asg121
(lp924
S'1 lac/month'
p925
asg5
S'fair girl employed BE/ME/SWE'
p926
sg7
g846
sg27
g79
sg11
g47
sg20
S'Banglore'
p927
sg15
(lp928
g198
asg131
S'1 lac/month'
p929
sg25
g135
sg87
g362
sg54
S'09894440461'
p930
sg29
g700
sa(dp931
g73
(lp932
g75
aS'good looking'
p933
asg2
(lp934
g120
ag902
asg27
g225
sg7
g268
sg11
S'S/W Engineer in MNC'
p935
sg13
S'Box No HB-1533 THE HINDU Chennai-600002'
p936
sg15
(lp937
g69
asg18
g130
sg20
g67
sg25
g135
sg87
S'Fair Good Looking'
p938
sg56
S'tskbaba@yahoo.com'
p939
sg29
S'HINDU SC AD'
p940
sa(dp941
g2
(lp942
g61
asg27
S' 32'
p943
sg7
g154
sg9
S'Anusham/Vrichikam'
p944
sg56
S'perumalvs@hotmail.com'
p945
sg11
g63
sg13
S'Box No. BA-170, THE HINDU, Bangalore-560001'
p946
sg15
(lp947
g69
asg18
g130
sg20
g39
sg22
(lp948
S'anusham/vrichikam'
p949
asg25
S'B.Tech'
p950
sg54
S'09360324834'
p951
sg29
S'HINDU SC, AD'
p952
sa(dp953
g73
(lp954
g75
aS'slim'
p955
asg27
S'37'
p956
sg7
g292
sg20
g52
sg15
(lp957
g871
asg18
g186
sg54
S'04423650025/ 09442270426'
p958
sg29
S'TAMIL YADAVA'
p959
sg87
S'Fair Slim Veg'
p960
sa(dp961
g73
(lp962
g75
ag806
asg2
(lp963
g44
asg121
(lp964
S'2l'
p965
asg87
S'fair clean habits'
p966
sg5
S'BE,B.Tech,MCA with working experience. Subsect no bar'
p967
sg7
g124
sg9
S'Mirugaserisham'
p968
sg56
S'raju_ramya2003@yahoo.co.in'
p969
sg11
g47
sg13
S'Box No. HB1536, THE HINDU, Chennai-600002'
p970
sg15
(lp971
g38
asg18
g186
sg20
S'UK'
p972
sg131
S'2Lac PM'
p973
sg22
(lp974
S'mirugaserisham'
p975
asg25
g135
sg54
S'04442642820'
p976
sg27
g182
sg29
S'TVMUDALIAR'
p977
sa(dp978
g73
(lp979
g75
asg121
(lp980
g123
asg27
g225
sg7
g207
sg9
S'Mirgasireedam'
p981
sg15
(lp982
S'vanniyakulakshathriya'
p983
asg131
S'25000'
p984
sg22
(lp985
S'mirgasireedam'
p986
asg54
S'9488468007, 9944489088'
p987
sg87
S'Fair with good habits'
p988
sg25
g222
sg29
S'VANNIYAKULAKSHATHRIYA'
p989
sa(dp990
g73
(lp991
g75
asg2
(lp992
g192
asg121
(lp993
g749
asg267
g582
sg5
S'fair bride caste no bar'
p994
sg27
g62
sg11
g195
sg15
(lp995
S'veerasaivam'
p996
asg18
g372
sg131
S'35000/-'
p997
sg25
g735
sg87
g362
sg54
S'9443977920/9787422411'
p998
sg29
S'VEERASAIVAM'
p999
sa(dp1000
g73
(lp1001
g76
asg2
(lp1002
g61
asg27
g106
sg11
S'DME Govt'
p1003
sg13
S'Box No.HB-1544,THE HINDU,Chennai-600002'
p1004
sg15
(lp1005
g69
asg87
g391
sg5
g691
sg29
S'SC ARUNTATIAR'
p1006
sa(dp1007
g73
(lp1008
g75
asg92
S'Rich-Affluent Business Family'
p1009
sg5
S'pillai Girl, Fair, Beautiful, Educated with sound Backround Family'
p1010
sg7
g124
sg9
S'Kumbam, Sadhayam'
p1011
sg56
S'shaki5555@yahoo.com'
p1012
sg15
(lp1013
g742
asg18
g316
sg22
(lp1014
S'sadhayam'
p1015
asg54
S'9443600333'
p1016
sg87
g221
sg27
g302
sg29
S'PILLAI'
p1017
sa(dp1018
g2
(lp1019
g217
asg5
S'educated employed'
p1020
sg9
S'Pooratathi'
p1021
sg11
S'Software Project Manager'
p1022
sg20
g67
sg15
(lp1023
g742
asg22
(lp1024
S'pooratathi'
p1025
asg25
g135
sg54
S'9791013563/ 9790913971'
p1026
sg27
g112
sg29
S'VELLALA PILLAI'
p1027
sa(dp1028
g2
(lp1029
g44
asg27
g79
sg7
S'183'
p1030
sg9
S'Visakam'
p1031
sg11
g47
sg13
S'Box No:MA-242, THE HINDU, Madurai - 625 020'
p1032
sg15
(lp1033
g917
asg18
g523
sg20
g67
sg22
(lp1034
S'visakam'
p1035
asg25
g135
sg5
S'good looking, fair girl from same community. Preferably BE & employed'
p1036
sg29
g920
sa(dp1037
g2
(lp1038
g120
asg5
S'Hindu Good Looking Employed Bride'
p1039
sg80
S' Hindu'
p1040
sg7
g706
sg27
g106
sg11
g126
sg18
g130
sg84
S'Christian'
p1041
sg25
S'BCOM'
p1042
sg54
S'09741908044'
p1043
sa(dp1044
g73
(lp1045
g75
asg2
(lp1046
S'own software company'
p1047
asg5
S'professionally Qualified/ Employed,Fair good looking Bride'
p1048
sg7
g706
sg9
S'Ayilyam Kadagam'
p1049
sg27
g302
sg11
S'own Software Company'
p1050
sg20
g67
sg15
(lp1051
g198
asg22
(lp1052
g402
asg25
g135
sg87
g221
sg54
S'9840484569/ 9361016342'
p1053
sg29
g700
sa(dp1054
g2
(lp1055
g120
asg27
g225
sg7
g207
sg9
S'Uthratadhi Meenam'
p1056
sg11
g126
sg20
g67
sg15
(lp1057
S'udayar(nathaman) '
p1058
asg22
(lp1059
S'uthratadhi meenam'
p1060
asg54
S'9443525917, 9443188270'
p1061
sg25
g222
sg29
S'UDAYAR(NATHAMAN) '
p1062
sa(dp1063
g2
(lp1064
g368
asg27
g182
sg7
g183
sg11
g370
sg20
g52
sg15
(lp1065
g742
asg18
g372
sg54
S'044-24425493'
p1066
sg5
S'Professionally Qualified Bride from Same Community'
p1067
sg29
S'NELLAI SAIVA Pillai'
p1068
sa(dp1069
g73
(lp1070
g955
asg2
(lp1071
g217
ag120
asg121
(lp1072
S'9.5lpa'
p1073
asg5
S'same caste professional Bride'
p1074
sg7
g275
sg9
S'Ayilyam-4'
p1075
sg27
g79
sg11
S'Manager MNC'
p1076
sg20
g323
sg15
(lp1077
g720
asg131
S'9.5Lpa'
p1078
sg22
(lp1079
g402
asg25
g950
sg87
S'Slim'
p1080
sg54
S'044-26860158'
p1081
sg29
S'SAIVA VELLALA'
p1082
sa(dp1083
g2
(lp1084
g44
asg121
(lp1085
S'1,50,000/p.m'
p1086
asg27
g106
sg11
S'SWE in Accenture'
p1087
sg15
(lp1088
g198
asg18
g130
sg131
S'1,50,000/P.M'
p1089
sg25
g135
sg54
S'044-22410032, Cell: 9840817571'
p1090
sg29
g700
sa(dp1091
g2
(lp1092
g44
asg121
(lp1093
S'70,000/p.m'
p1094
asg27
g869
sg7
g194
sg11
S'SWE in Alphion'
p1095
sg15
(lp1096
g198
asg131
S'70,000/p.m'
p1097
sg25
S'BE (C.S.)'
p1098
sg54
S'044-22410032. Cell: 9840817571'
p1099
sg29
g700
sa(dp1100
g2
(lp1101
g44
asg121
(lp1102
S'75,000/- p.m'
p1103
asg27
g79
sg11
S'SWE in TNTEL'
p1104
sg15
(lp1105
g198
asg18
S'M.S'
p1106
sg131
S'75,000/- p.m'
p1107
sg25
g135
sg54
g1099
sg29
g700
sa(dp1108
g2
(lp1109
g44
asg121
(lp1110
S'80,000/p.m'
p1111
asg27
g79
sg11
S'SWE in Oracle India'
p1112
sg15
(lp1113
g198
asg131
S'80,000/p.m'
p1114
sg54
S'044-22410032.Cell:9840817571'
p1115
sg25
g135
sg29
g700
sa(dp1116
g2
(lp1117
g328
asg121
(lp1118
g565
asg27
g106
sg11
S'Working in a Leading Hospital'
p1119
sg15
(lp1120
g198
asg18
g1106
sg131
g569
sg25
g392
sg54
g1099
sg29
g552
sa(dp1121
g2
(lp1122
g44
asg121
(lp1123
S'60,000/pm'
p1124
asg27
g869
sg11
S'SWE in CTS'
p1125
sg20
g67
sg15
(lp1126
g198
asg18
g1106
sg131
S'60,000/pm'
p1127
sg54
S'044-22410032, 9840817571'
p1128
sg25
g135
sg29
g552
sa(dp1129
g2
(lp1130
g217
asg121
(lp1131
S'42000pm'
p1132
asg27
S'47'
p1133
sg7
S'158'
p1134
sg9
S'Pooradam'
p1135
sg11
S'Manager in TVS'
p1136
sg13
S'Mr.Chandrasekaran,6/21A,Amirthammal Colony,Agaram,Ch82'
p1137
sg15
(lp1138
g38
asg131
S'42000pm'
p1139
sg22
(lp1140
S'pooradam'
p1141
asg54
S'044-26700798/9843228903'
p1142
sg5
S'Decent Family Girl.'
p1143
sg29
S'ARCOT MUDALIAR'
p1144
sa(dp1145
g27
g112
sg13
S'Box No.HB-1562 THE HINDU Chennai-600002'
p1146
sg15
(lp1147
S'intercaste'
p1148
asg20
g67
sg54
S'9444976828'
p1149
sg25
g135
sg29
S'INTERCASTE'
p1150
sa(dp1151
g2
(lp1152
g44
asg5
S'BE/MS/MBBS/PG tall bride from decent family'
p1153
sg7
g594
sg27
g106
sg11
S'Sw.Engr'
p1154
sg20
g142
sg15
(lp1155
g38
asg18
g372
sg25
g135
sg54
S'0-9840306223'
p1156
sg29
S'MUDALIAR'
p1157
sa(dp1158
g2
(lp1159
S'ibm'
p1160
ag44
asg121
(lp1161
S'10lpa'
p1162
asg27
g182
sg7
g226
sg11
S'SW Eng IBM'
p1163
sg20
g884
sg15
(lp1164
g776
asg131
S'10lpa'
p1165
sg54
S'044-28150775/6 9381858244 0422-4366684'
p1166
sg25
g135
sg29
S'MUDALIYAR'
p1167
sa(dp1168
g73
(lp1169
g75
asg2
(lp1170
g44
asg5
S'fair BE/MCA/MSc Girl Age Below 27yrs'
p1171
sg27
g182
sg11
g47
sg20
S'BLR'
p1172
sg15
(lp1173
g905
asg18
g372
sg25
g135
sg87
g362
sg54
S'0431-2456561'
p1174
sg29
S'TAMIL VISWAKARMA'
p1175
sa(dp1176
g73
(lp1177
g695
ag76
asg2
(lp1178
g217
asg121
(lp1179
S'35,000 p.m'
p1180
asg5
S'employed'
p1181
sg7
g664
sg9
S'Utharattathi'
p1182
sg27
g182
sg11
S'Manager Private Co'
p1183
sg13
S'Box No. HB-1566, THE HINDU, Chennai-600 002'
p1184
sg15
(lp1185
S'hindu ad pr'
p1186
asg20
S'Trichy'
p1187
sg131
S'35,000 p.m'
p1188
sg22
(lp1189
S'utharattathi'
p1190
asg25
S'BE (ECE)'
p1191
sg87
S'Wheatish Handsome'
p1192
sg54
S'09443955762'
p1193
sg29
S'HINDU AD PR'
p1194
sa(dp1195
g2
(lp1196
g44
asg5
S'Professionally Qualified Bride'
p1197
sg7
g154
sg9
S'Maham'
p1198
sg56
S'perumalram48@yahoo.com'
p1199
sg11
g47
sg20
g52
sg15
(lp1200
S'vannikulashatriya'
p1201
asg22
(lp1202
S'maham'
p1203
asg25
g135
sg54
S'044-24898934 Mob: 9841515842'
p1204
sg27
g182
sg29
S'VANNIKULASHATRIYA'
p1205
sa(dp1206
g2
(lp1207
g808
asg5
S'well educated good-looking same community girl'
p1208
sg7
S'191'
p1209
sg56
S'renganathan.sivanandam@gmail.com'
p1210
sg11
g810
sg20
g52
sg15
(lp1211
S'mukkulathor-kallar'
p1212
asg18
S'M.S(I.T)'
p1213
sg54
S'9442887502'
p1214
sg27
g106
sg29
S'MUKKULATHOR-KALLAR'
p1215
sa(dp1216
g73
(lp1217
g75
asg2
(lp1218
S'programmer analyst infosys'
p1219
asg5
S'BE/MBBS/above'
p1220
sg7
g321
sg27
g225
sg11
S'Programmer Analyst Infosys'
p1221
sg15
(lp1222
S'viswabrahmin telugu'
p1223
asg54
S'0-9994326809'
p1224
sg87
g362
sg25
g135
sg29
S'VISWABRAHMIN TELUGU'
p1225
sa(dp1226
g2
(lp1227
g217
ag120
asg121
(lp1228
S'13l annual'
p1229
asg27
g112
sg11
S'Sr.Manager (R&D)In Automotive MNC'
p1230
sg20
g67
sg15
(lp1231
g776
asg18
g523
sg131
S'13L Annual'
p1232
sg56
S'jvk1977@gmail.com'
p1233
sg29
g1167
sa(dp1234
g2
(lp1235
g563
asg27
g182
sg7
g275
sg9
S'Pooram- Chevvai'
p1236
sg11
S'Animation Project Leader'
p1237
sg20
S'Vietnam'
p1238
sg15
(lp1239
g198
asg22
(lp1240
S'pooram'
p1241
asg54
S'09445285407'
p1242
sg29
g700
sa(dp1243
g73
(lp1244
S'pensioner, well settled'
p1245
asg2
(lp1246
S'teacher'
p1247
asg27
g583
sg11
S'Retired College Teacher'
p1248
sg13
S'Box No.ZM61601, THE HINDU, Chennai-600002'
p1249
sg65
g66
sg20
g67
sg15
(lp1250
g871
asg87
S'Pensioner, Well Settled'
p1251
sg5
S'Educated, Home Loving, Well Settled Life Partner below 48 yrs'
p1252
sg29
S'HINDU YADAVA Tamil'
p1253
sa(dp1254
g73
(lp1255
g75
asg2
(lp1256
g217
asg27
g178
sg7
g194
sg9
S'POORAM'
p1257
sg11
S'Manager'
p1258
sg13
S'Box No.ZM61603, THE HINDU, Chennai-600002'
p1259
sg15
(lp1260
g742
asg20
g67
sg22
(lp1261
g1241
asg25
g135
sg87
S'Fair/NonVeg'
p1262
sg56
S'kanthi549@gmail.com'
p1263
sg29
g1017
sa(dp1264
g2
(lp1265
g1160
asg27
g182
sg7
g154
sg9
S'Magam/Simham'
p1266
sg11
S'IBM'
p1267
sg13
S'Box No.ZM61604, THE HINDU, Chennai-600002'
p1268
sg15
(lp1269
g69
asg20
g884
sg22
(lp1270
S'magam/simham'
p1271
asg54
S'09790440787, 04179-224042'
p1272
sg25
g135
sg29
g940
sa(dp1273
g2
(lp1274
g61
asg121
(lp1275
S'6lpa'
p1276
asg5
S'MBBS/ME/BE/PG Bride'
p1277
sg7
g207
sg9
g847
sg27
g182
sg11
S'B.E.L-Cent-Govt'
p1278
sg15
(lp1279
g69
asg18
g372
sg131
S'6Lpa'
p1280
sg22
(lp1281
g854
asg25
g135
sg54
S'044-24985842 /09445329192'
p1282
sg29
S'SC AD'
p1283
sa(dp1284
g73
(lp1285
g75
asg2
(lp1286
g912
asg92
S'Affluent Family'
p1287
sg27
g182
sg7
g696
sg9
S'THIRUVONAM'
p1288
sg11
g915
sg20
g67
sg15
(lp1289
S'reddy'
p1290
asg18
g523
sg22
(lp1291
S'thiruvonam'
p1292
asg54
S'(0)9790014059'
p1293
sg87
g221
sg5
S'Fair & Good Looking Bride'
p1294
sg29
S'REDDY'
p1295
sa(dp1296
g2
(lp1297
S'pro director'
p1298
asg27
g182
sg9
S'Utharadam'
p1299
sg11
S'Pro Director'
p1300
sg15
(lp1301
g762
asg18
S'MSW'
p1302
sg22
(lp1303
S'utharadam'
p1304
asg54
S'09362322333'
p1305
sg25
S'BHMS'
p1306
sg29
g768
sa(dp1307
g73
(lp1308
g75
asg2
(lp1309
g902
asg27
g106
sg7
g275
sg9
S'Anusam'
p1310
sg11
S'Accenture S/W'
p1311
sg20
S'Singapore'
p1312
sg15
(lp1313
g50
asg18
g186
sg22
(lp1314
S'anusam'
p1315
asg54
S'9894455351'
p1316
sg87
g362
sg5
S'any Degree'
p1317
sg29
S'HINDU SOZHIA Vellalar'
p1318
sa(dp1319
g2
(lp1320
g44
asg5
S'SWE/Doctors/Bank professionals. Mudaliar subsect welcome'
p1321
sg9
g1031
sg27
g112
sg11
g47
sg13
S"Kumar 403 Bldg 6 Shanti-Park Apts 9th Blk Jayanagar B'lore-69"
p1322
sg15
(lp1323
g752
asg20
S'BANGALORE'
p1324
sg22
(lp1325
g1035
asg25
S'BTech'
p1326
sg54
S'09663354146'
p1327
sg29
S'SENGUNTHAR'
p1328
sa(dp1329
g2
(lp1330
g61
asg121
(lp1331
S'50000'
p1332
asg27
g182
sg11
S'Govt'
p1333
sg13
S'Box No HB-1574 THE HINDU Chennai-600002'
p1334
sg15
(lp1335
g50
asg20
g67
sg131
S'50000'
p1336
sg25
g135
sg56
S'bridesw@gmail.com'
p1337
sg29
S'DEVENDRAKULA VELLALAR'
p1338
sa(dp1339
g73
(lp1340
S'non veg '
p1341
asg2
(lp1342
g44
asg121
(lp1343
S'10 l-pa'
p1344
asg5
S'BE/ MBA working girl caste no bar'
p1345
sg7
g226
sg27
g182
sg11
g47
sg20
g39
sg15
(lp1346
g742
asg18
g130
sg131
S'10 L-PA'
p1347
sg25
g135
sg87
S'non veg '
p1348
sg54
S'09008997864/ 09788291706'
p1349
sg29
g1017
sa(dp1350
g73
(lp1351
g76
asg2
(lp1352
g120
asg121
(lp1353
S'rs.30000/-'
p1354
asg5
S'good looking educated girl below 24 years'
p1355
sg7
g194
sg9
g788
sg27
g79
sg11
g126
sg15
(lp1356
g38
asg131
S'Rs.30000/-'
p1357
sg22
(lp1358
g722
asg25
S'Dip. in Engg'
p1359
sg87
g177
sg54
S'9941309797/ 9444102576'
p1360
sg29
g1144
sa(dp1361
g73
(lp1362
S'ias family'
p1363
asg27
g112
sg25
g392
sg7
g696
sg15
(lp1364
S'adidravidar'
p1365
asg54
S'044-22250155 / 09444141419'
p1366
sg87
S'IAS Family'
p1367
sg5
S'MBBS Bride'
p1368
sg29
S'ADIDRAVIDAR'
p1369
sa(dp1370
g73
(lp1371
g933
asg2
(lp1372
g4
asg121
(lp1373
S'15l pa'
p1374
asg5
S'Fair and Good Looking Girl'
p1375
sg7
g268
sg9
S'Swathi '
p1376
sg27
g302
sg11
S'Own Business'
p1377
sg15
(lp1378
g776
asg131
S'15L PA'
p1379
sg22
(lp1380
S'swathi '
p1381
asg25
S'BE Civil'
p1382
sg87
S'Good Looking'
p1383
sg54
S'09840074171'
p1384
sg29
S'MUDALIYAR THULLUVAVELLAR'
p1385
sa(dp1386
g73
(lp1387
g933
asg5
S'Physician Bride'
p1388
sg7
g226
sg56
S'krins06@yahoo.com'
p1389
sg20
g52
sg18
g657
sg54
S'044-23650085'
p1390
sg27
g302
sg87
S'GOOD Looking Veg'
p1391
sa(dp1392
g73
(lp1393
g933
asg2
(lp1394
g44
asg27
g79
sg7
g629
sg9
S'Reavathy'
p1395
sg11
g47
sg13
S'Box No.HA37379, THE HINDU, Chennai-600002'
p1396
sg15
(lp1397
S'agamudayar'
p1398
asg18
S'MS/MBA'
p1399
sg20
g52
sg22
(lp1400
S'reavathy'
p1401
asg25
g135
sg87
g1383
sg5
S'BE/MCA Decent Fmly'
p1402
sg29
S'AGAMUDAYAR'
p1403
sa(dp1404
g73
(lp1405
g933
asg2
(lp1406
g368
asg5
S'Good Looking Bride'
p1407
sg27
g112
sg11
g370
sg20
S'Temenos Cyprus'
p1408
sg15
(lp1409
S'konguvellala gounder'
p1410
asg18
g428
sg25
g135
sg87
g1383
sg54
S'(0) 9094042513'
p1411
sg29
S'KONGUVELLALA GOUNDER'
p1412
sa(dp1413
g73
(lp1414
g806
asg2
(lp1415
S'resident physician'
p1416
asg87
S'smart Independent Clean habits'
p1417
sg5
S'Professionally qualified brides from good family background. Caste no bar'
p1418
sg7
g275
sg9
g1135
sg56
S'chansat123@rediffmail.com'
p1419
sg11
S'Resident Physician'
p1420
sg20
g52
sg15
(lp1421
g813
asg18
S'MD (Internal Medicine)'
p1422
sg22
(lp1423
g1141
asg25
g392
sg54
S'044-26561952/ 91-9840286084'
p1424
sg27
g106
sg29
S'CHETTIAR'
p1425
sa(dp1426
g73
(lp1427
g75
asg2
(lp1428
g368
asg27
g106
sg7
g194
sg9
g329
sg11
g370
sg13
S'HB-1577,THE HINDU,Chennai-2'
p1429
sg15
(lp1430
g50
asg18
g186
sg20
g52
sg22
(lp1431
g335
asg87
g362
sg5
S'post graduate working bride'
p1432
sg29
S'SOZHIYA VELLALAR'
p1433
sa(dp1434
g73
(lp1435
g76
asg2
(lp1436
g120
asg27
g182
sg7
g369
sg11
g126
sg15
(lp1437
g306
asg18
g372
sg54
g373
sg87
g177
sg25
g135
sg29
g308
sa(dp1438
g2
(lp1439
g44
asg121
(lp1440
S'8lacs pa'
p1441
asg5
S'BE/PG bride'
p1442
sg7
g124
sg9
S'Thiruvonam'
p1443
sg56
S'tvlscorpio@yahoo.in'
p1444
sg11
g47
sg20
g67
sg15
(lp1445
g905
asg18
g160
sg131
S'8Lacs PA'
p1446
sg22
(lp1447
g1292
asg25
g135
sg54
S'(0)9894821300'
p1448
sg27
g112
sg29
g1175
sa(dp1449
g73
(lp1450
g76
asg5
S'slim fair good family Bride BE/BE ARC/MBA etc. Age upto26'
p1451
sg13
S'Box No HB-1579 The Hindu Chennai-600002'
p1452
sg15
(lp1453
g69
asg20
g67
sg25
g135
sg87
S'Rich handsome clean'
p1454
sg29
g737
sa(dp1455
g73
(lp1456
g75
asg2
(lp1457
S'pg mngr-pvt school'
p1458
asg121
(lp1459
g466
asg5
S'any graduate'
p1460
sg7
g268
sg9
S'Uthirattadi'
p1461
sg56
S'satish3_1977@rediffmail.com'
p1462
sg11
S'PG Mngr-Pvt School'
p1463
sg15
(lp1464
g38
asg18
g160
sg131
g471
sg22
(lp1465
S'uthirattadi'
p1466
asg54
S'044-24752215'
p1467
sg87
g362
sg27
g302
sg29
g41
sa(dp1468
g73
(lp1469
S'well settled with property worth over 10 crores in chennai'
p1470
asg87
S'Well Settled with Property Worth Over 10 Crores in Chennai'
p1471
sg2
(lp1472
g328
asg92
S'wo Elder Sisters MD & Engineer Well Settled in USA. Father & Younger Brother Run Reputed School & Higher Educational Institutions in Chennai.'
p1473
sg5
S'Educated, Fair, Slim, Beautiful Bride from Broadminded & Cultured Family Background'
p1474
sg56
S'jayvenkatesh@hotmail.com'
p1475
sg11
S'Running Media, IT & HR Consultancy Firm'
p1476
sg20
S'California, USA'
p1477
sg15
(lp1478
g198
asg18
g428
sg25
S'Bachelors in Economics & Multimedia Production'
p1479
sg54
S'044-24910559'
p1480
sg27
g956
sg29
g700
sa(dp1481
g2
(lp1482
g328
asg27
g225
sg7
g207
sg9
g860
sg56
S'pradeepkumar_jv@hotmail.com'
p1483
sg11
g343
sg20
g52
sg15
(lp1484
S'vanniyakula kshatriya'
p1485
asg22
(lp1486
g863
asg25
S'B.Tech,IT'
p1487
sg54
S'9841829425/9884744175/42809003'
p1488
sg29
S'VANNIYAKULA KSHATRIYA'
p1489
sa(dp1490
g2
(lp1491
g44
asg27
g79
sg7
g124
sg11
g47
sg13
S'Box No. HB 1572, THE HINDU, Chennai-600002'
p1492
sg15
(lp1493
S'vellaler'
p1494
asg20
g67
sg25
g950
sg5
S'sub caste no bar seeks brides qualified'
p1495
sg29
S'VELLALER'
p1496
sa(dp1497
g5
S'graduate brides, same community'
p1498
sg25
S'Elect.Engr'
p1499
sg7
g226
sg56
S'subakalyanam@gmail.com'
p1500
sg20
S'Muscat'
p1501
sg15
(lp1502
g50
asg54
S'044-22292382'
p1503
sg27
g34
sg29
S'Vellalar'
p1504
sa(dp1505
g73
(lp1506
g75
asg2
(lp1507
S'structural design engineer'
p1508
asg121
(lp1509
S'30,000pm'
p1510
asg27
g106
sg7
g268
sg9
S'Kettai2'
p1511
sg11
S'Structural Design Engineer'
p1512
sg20
g67
sg15
(lp1513
S'vanniakula kshatriyar'
p1514
asg18
S'M.TECH'
p1515
sg131
S'30,000pm'
p1516
sg22
(lp1517
S'kettai2'
p1518
asg54
S'9840101090'
p1519
sg87
g221
sg25
g135
sg29
S'VANNIAKULA KSHATRIYAR'
p1520
sa(dp1521
g5
S'Subsect No Bar'
p1522
sg7
g369
sg9
S'Chithirai-3, Rasi Thulam'
p1523
sg27
g34
sg15
(lp1524
g38
asg18
S'MS PhD'
p1525
sg22
(lp1526
S'chithirai-3, rasi thulam'
p1527
asg54
S'044-23746776, 09941870486'
p1528
sg25
g135
sg29
g41
sa(dp1529
g73
(lp1530
g75
asg2
(lp1531
g44
asg87
g221
sg5
S'Profly SWE Only Sub Sect Ok.'
p1532
sg7
g275
sg56
S'gvelu8@yahoo.co.in'
p1533
sg11
g47
sg20
g52
sg15
(lp1534
S'mudhaliar avittam'
p1535
asg25
g135
sg54
S'09444937210'
p1536
sg27
g34
sg29
S'MUDHALIAR AVITTAM'
p1537
sa(dp1538
g2
(lp1539
g44
asg27
g225
sg7
g46
sg9
S'Sadhayam'
p1540
sg11
g47
sg13
S'Box No.CC25168, THE HINDU, Chennai-600002'
p1541
sg15
(lp1542
g1485
asg20
g52
sg22
(lp1543
g1015
asg25
S'IIT (M)'
p1544
sg56
S'dvirud@yahoo.co.in'
p1545
sg29
g1489
sa(dp1546
g2
(lp1547
g120
asg121
(lp1548
S'12.5l pa'
p1549
asg27
g106
sg7
g369
sg9
S'Tiruvonam(3)'
p1550
sg11
g126
sg13
S'Box No.KR42105, THE HINDU, Chennai-600002.'
p1551
sg15
(lp1552
g38
asg18
g372
sg20
g67
sg131
S'12.5L PA'
p1553
sg22
(lp1554
S'tiruvonam(3)'
p1555
asg25
g135
sg5
S'Educated'
p1556
sg29
S'MUDALIAR ARCOT/TV'
p1557
sa(dp1558
g2
(lp1559
g192
asg27
g182
sg7
g696
sg9
g1376
sg11
g195
sg15
(lp1560
g50
asg18
S'MD'
p1561
sg22
(lp1562
g1381
asg54
S'94443 91001'
p1563
sg5
S'MBBS/ MD/ MS Bride'
p1564
sg29
g803
sa(dp1565
g2
(lp1566
g120
asg5
S'seeks any Graduate.'
p1567
sg7
g194
sg27
g106
sg11
g126
sg20
g67
sg15
(lp1568
g38
asg18
g372
sg25
g135
sg54
S' 044-42805759 ,0416-2256257'
p1569
sg29
S'Mudaliar'
p1570
sa(dp1571
g73
(lp1572
g76
asg2
(lp1573
g44
asg27
g106
sg7
g46
sg11
g47
sg15
(lp1574
g742
asg18
g1515
sg54
S' 044-26204948, 0431-4024022'
p1575
sg87
g391
sg5
S'seeks any graduate.'
p1576
sg29
g1017
sa(dp1577
g2
(lp1578
g44
asg121
(lp1579
S'6lakh p.a'
p1580
asg5
S'seeks any Grad.'
p1581
sg7
S'044'
p1582
sg27
g106
sg11
S'SWE HCL'
p1583
sg15
(lp1584
g1365
asg131
S'6Lakh p.a'
p1585
sg54
S' 044-28153328, 42612666'
p1586
sg25
g135
sg29
g1369
sa(dp1587
g2
(lp1588
g120
asg121
(lp1589
S'10lakh pa'
p1590
asg92
S'affluent'
p1591
sg5
g1581
sg7
g696
sg27
g225
sg11
S'Team Leader MNC'
p1592
sg15
(lp1593
g742
asg131
S'10Lakh pa'
p1594
sg25
g135
sg54
S' 044-65341088, 42612666'
p1595
sg29
g1017
sa(dp1596
g2
(lp1597
S'process engineer honeywell'
p1598
asg121
(lp1599
g1590
asg5
S'any Grad'
p1600
sg7
g194
sg27
g106
sg11
S'Process Engineer Honeywell'
p1601
sg15
(lp1602
g905
asg131
g1594
sg54
S' 044-28153329, 0413-4205554'
p1603
sg25
g135
sg29
S'VISWAKARMA'
p1604
sa(dp1605
g73
(lp1606
g76
asg2
(lp1607
g44
asg121
(lp1608
g1580
asg27
g182
sg7
g124
sg11
S'SWE Infosys'
p1609
sg15
(lp1610
g557
asg131
g1585
sg54
S' 044-28153328, 0413-2202226'
p1611
sg87
g177
sg25
g950
sg29
S'VANNIAR'
p1612
sa(dp1613
g2
(lp1614
S'tech leader infosys'
p1615
asg121
(lp1616
g1580
asg92
S'educated decent family'
p1617
sg27
g106
sg7
g1030
sg11
S'Tech Leader Infosys'
p1618
sg20
g67
sg15
(lp1619
g38
asg131
g1585
sg54
S' (0) 9940622289, 044-42612666'
p1620
sg25
g135
sg29
g1157
sa(dp1621
g2
(lp1622
g120
asg121
(lp1623
S'7lk'
p1624
asg5
S'qualified/emp bride caste no bar'
p1625
sg7
g696
sg9
S'Ashwini'
p1626
sg27
g302
sg11
g126
sg20
g972
sg15
(lp1627
S'hindu mukkulathore'
p1628
asg131
S'7Lk'
p1629
sg22
(lp1630
S'ashwini'
p1631
asg25
g950
sg54
S' 9840259507'
p1632
sg29
S'HINDU MUKKULATHORE'
p1633
sa(dp1634
g2
(lp1635
g44
asg121
(lp1636
S'45k/pm'
p1637
asg267
g311
sg5
S'seeks graduate with good family background.'
p1638
sg7
g846
sg56
S'rajmatrimoni09@gmail.com'
p1639
sg11
g47
sg13
S'Box No.AD135100, THE HINDU, Chennai-600002.'
p1640
sg15
(lp1641
g69
asg18
g130
sg20
g67
sg131
S'45K/pm'
p1642
sg25
g135
sg27
g956
sg29
S'HINDU SC-AD'
p1643
sa(dp1644
g2
(lp1645
g44
asg121
(lp1646
S'8lakh pa'
p1647
asg5
g1600
sg7
g629
sg27
g106
sg11
g47
sg15
(lp1648
g871
asg131
S'8Lakh PA'
p1649
sg54
S' 044-28152246, 65385547'
p1650
sg25
g135
sg29
S'YADAVA'
p1651
sa(dp1652
g73
(lp1653
S'affluent'
p1654
asg2
(lp1655
S'industrialist'
p1656
asg121
(lp1657
S'3cr pa'
p1658
asg267
S'DIVORCEE'
p1659
sg27
g182
sg7
g194
sg11
S'Industrialist'
p1660
sg18
g130
sg131
S'3Cr PA'
p1661
sg54
S' (0) 9382512345, 044-42612666'
p1662
sg87
S'Affluent'
p1663
sa(dp1664
g5
S'Iyer Girl'
p1665
sg7
g154
sg9
S'Pooram-4'
p1666
sg56
S'sbala47@gmail.com'
p1667
sg20
g52
sg15
(lp1668
g445
asg18
g587
sg22
(lp1669
g1241
asg54
S' 044-22653249 '
p1670
sg27
g106
sg29
g450
sa(dp1671
g73
(lp1672
g75
asg121
(lp1673
S'3l pa'
p1674
asg5
S'BE/MBA/MCA/MCom Well employed Subsect No Bar'
p1675
sg7
S'160'
p1676
sg27
g106
sg20
g39
sg15
(lp1677
g445
asg131
S'3L PA'
p1678
sg25
g135
sg87
g221
sg54
S' 9443188649'
p1679
sg29
S'HINDU IYER Vadamal Athereya'
p1680
sa(dp1681
g73
(lp1682
g75
asg2
(lp1683
g206
asg5
S'seeks suitable alliance.'
p1684
sg7
g275
sg9
g125
sg27
g225
sg11
g208
sg13
S'Box No. MA-219, THE HINDU, Madurai-625020'
p1685
sg15
(lp1686
g445
asg18
g587
sg22
(lp1687
g134
asg25
g222
sg87
g362
sg54
S'04565-286051'
p1688
sg29
S'IYER, VADAMA'
p1689
sa(dp1690
g73
(lp1691
g75
asg2
(lp1692
g258
asg87
g362
sg5
S'seeks good looking Bride.'
p1693
sg7
S'185'
p1694
sg9
S'Mrigasririsham'
p1695
sg56
S'mvjaikumar@hotmail.com'
p1696
sg11
S'SAP Consultant Capgemini'
p1697
sg20
S'Sweden'
p1698
sg15
(lp1699
g445
asg18
g587
sg22
(lp1700
S'mrigasririsham'
p1701
asg25
g135
sg54
S' 044-24952423, 9444184371 '
p1702
sg27
g79
sg29
g450
sa(dp1703
g73
(lp1704
g75
asg2
(lp1705
S'airlines ae'
p1706
asg121
(lp1707
g965
asg27
g112
sg7
g629
sg9
S'Punarpoosam-2P'
p1708
sg11
S'Airlines AE'
p1709
sg15
(lp1710
S'iyyengar'
p1711
asg18
g160
sg131
S'2L'
p1712
sg22
(lp1713
g780
asg54
S'044-22241401'
p1714
sg87
g362
sg5
S'bride 160 fair Kalai no bar'
p1715
sg29
S'IYYENGAR'
p1716
sa(dp1717
g2
(lp1718
g1247
asg121
(lp1719
S'rs.10000/- pm'
p1720
asg92
g499
sg5
S'subsect no bar'
p1721
sg7
g706
sg27
g156
sg11
S'Teacher'
p1722
sg13
S'Box No.CB-315, THE HINDU, Coimbatore-641018'
p1723
sg15
(lp1724
S'iyengar'
p1725
asg18
g316
sg131
S'Rs.10000/- pm'
p1726
sg25
S'B.Ed'
p1727
sg54
S'0431-2750465, 98424-96768'
p1728
sg29
S'THENKALAI IYENGAR'
p1729
sa(dp1730
g2
(lp1731
g120
asg92
g499
sg5
S'empld girl'
p1732
sg56
S'shreesridhar60@gmail.com'
p1733
sg9
S'Krithika Logitham'
p1734
sg11
g126
sg13
S'Box No.CB-316 THE HINDU Coimbatore-641018'
p1735
sg15
(lp1736
g1725
asg20
g67
sg22
(lp1737
S'krithika logitham'
p1738
asg54
S' 09894577052'
p1739
sg27
g182
sg29
S'IYENGAR THENKALAI'
p1740
sa(dp1741
g73
(lp1742
g75
asg2
(lp1743
g120
asg121
(lp1744
g965
asg5
S'seeks qlfd employed girl.'
p1745
sg80
g1040
sg7
S'181'
p1746
sg9
g676
sg56
S'iyer_sethu@rediffmail.com'
p1747
sg11
g126
sg13
S'Box No. HY-89, The Hindu, Hyderabad-500 016.'
p1748
sg15
(lp1749
g445
asg18
g186
sg20
g158
sg131
S'12Lacs P.A'
p1750
sg22
(lp1751
g680
asg54
S'040-23030995'
p1752
sg87
g221
sg27
g182
sg29
g450
sa(dp1753
g73
(lp1754
g75
asg2
(lp1755
g120
asg121
(lp1756
S'9lac'
p1757
asg5
S'tall, pretty girl'
p1758
sg7
S'184'
p1759
sg9
g10
sg27
g225
sg11
g126
sg20
g884
sg15
(lp1760
S'tanjore vadamal'
p1761
asg18
g130
sg131
S'9Lac'
p1762
sg22
(lp1763
g24
asg25
g135
sg87
g362
sg54
S'09092151016'
p1764
sg29
S'TANJORE VADAMAL'
p1765
sa(dp1766
g2
(lp1767
S'own industry'
p1768
asg121
(lp1769
S'rs.17000/-pm'
p1770
asg5
S'Any Brahmin'
p1771
sg27
g809
sg11
S'own industry'
p1772
sg15
(lp1773
g445
asg131
S'Rs.17000/-PM'
p1774
sg54
S' 04172-645821'
p1775
sg56
S'ravi200016@ymail.com'
p1776
sg29
S'IYER'
p1777
sa(dp1778
g73
(lp1779
g806
asg267
g267
sg5
S'seeks homely God fearing unmarried girl.'
p1780
sg7
g696
sg9
S'Ayilyam'
p1781
sg27
g225
sg20
g52
sg15
(lp1782
g445
asg18
g372
sg22
(lp1783
g402
asg25
g135
sg87
S'Teetotaler, Clean habits from cultured family'
p1784
sg54
S'080-42168989'
p1785
sg29
g450
sa(dp1786
g73
(lp1787
g75
asg2
(lp1788
S'chavron energy tech'
p1789
asg5
S'prof qlfd below 26 yrs goodlooking Iyer girl'
p1790
sg80
S'Telugu Brahmin'
p1791
sg7
g194
sg9
S'Kashyapa Gothra'
p1792
sg56
S'advaymg@yahoo.com'
p1793
sg11
S'Chavron Energy Tech'
p1794
sg18
g372
sg84
g1777
sg22
(lp1795
S'kashyapa gothra'
p1796
asg54
S' 080-23443126, 09620054528'
p1797
sg27
g79
sg87
g362
sa(dp1798
g2
(lp1799
g328
asg27
g112
sg7
g268
sg9
S'Kashyap Anusham'
p1800
sg11
S'editor'
p1801
sg15
(lp1802
S'aiyar'
p1803
asg22
(lp1804
S'kashyap anusham'
p1805
asg54
S' 03326559228'
p1806
sg56
S'kayyess@vsnl.net'
p1807
sg29
S'AIYAR'
p1808
sa(dp1809
g2
(lp1810
g120
asg121
(lp1811
S'rs.40-k p.m'
p1812
asg5
S'UG/PG Employed/Unemployed Girl'
p1813
sg131
S'Rs.40-K P.M'
p1814
sg7
g275
sg9
g1031
sg27
g182
sg11
g126
sg13
S'Box No.HB-1481,THE HINDU,Chennai 600 002.'
p1815
sg15
(lp1816
g445
asg20
g67
sg84
g1777
sg22
(lp1817
g1035
asg25
g361
sg54
S' 600 002'
p1818
sg29
g1777
sa(dp1819
g73
(lp1820
g75
asg2
(lp1821
g4
asg121
(lp1822
S'6lakhs'
p1823
asg27
g225
sg84
g1777
sg7
g124
sg9
g1376
sg11
S'Business'
p1824
sg13
S'Box No.HB-1484,THE HINDU,Chennai-600002'
p1825
sg15
(lp1826
g445
asg18
S'MCom MBA'
p1827
sg20
g67
sg131
S'6Lakhs'
p1828
sg22
(lp1829
g1381
asg87
g362
sg5
S'fair goodlooking mediumbuilt girl employed /unemployed'
p1830
sg29
g450
sa(dp1831
g73
(lp1832
g75
asg2
(lp1833
g912
asg27
g79
sg7
g1746
sg9
g1781
sg11
g915
sg15
(lp1834
g445
asg18
g428
sg84
g1777
sg22
(lp1835
g402
asg54
S'9444028765'
p1836
sg87
g221
sg25
g135
sg29
g1777
sa(dp1837
g2
(lp1838
S'director in a well established packaging industry'
p1839
asg92
g1591
sg5
S'educated girl with good family background sub-sect no bar'
p1840
sg7
g268
sg27
g28
sg11
S'director in a well established packaging industry'
p1841
sg13
S'Box No.KR42079, THE HINDU, Chennai-600002.'
p1842
sg15
(lp1843
g445
asg18
S'post graduate diploma in Business administration'
p1844
sg20
g67
sg25
S'B.com'
p1845
sg54
S' 044-42014419 '
p1846
sg29
S'iyer vadama bharadwaja'
p1847
sa(dp1848
g73
(lp1849
g75
asg27
g182
sg7
g268
sg56
S'vasan45@yahoo.com'
p1850
sg20
g142
sg15
(lp1851
S'vadma kondnya'
p1852
asg18
g372
sg25
g135
sg87
g362
sg54
S' 04424980498 '
p1853
sg29
S'VADMA KONDNYA'
p1854
sa(dp1855
g27
g106
sg7
g664
sg9
S'Pooram, Srivatsam'
p1856
sg15
(lp1857
g445
asg18
g130
sg22
(lp1858
g1241
asg54
S' 9999094845'
p1859
sg56
S'venki2401@rediffmail.com'
p1860
sg29
g1689
sa(dp1861
g73
(lp1862
g76
asg2
(lp1863
S'nat.bank'
p1864
asg27
g182
sg11
S'Nat.Bank'
p1865
sg15
(lp1866
S'vadakalai athreya'
p1867
asg18
S'M.Com. MBA'
p1868
sg54
S' 044-23622534'
p1869
sg87
g177
sg29
S'VADAKALAI ATHREYA'
p1870
sa(dp1871
g73
(lp1872
S'owns flat'
p1873
asg121
(lp1874
S'3lac pa'
p1875
asg27
g342
sg7
g1676
sg9
S'Barani-3'
p1876
sg13
S'Rajaram 2/8 Sri Devi Amman St,Subash Nagar,Chrompet'
p1877
sg15
(lp1878
S'vadamal/koushikam'
p1879
asg18
g587
sg20
g142
sg131
S'3Lac pa'
p1880
sg22
(lp1881
S'barani-3'
p1882
asg54
S'-044-22651830, 9884247635'
p1883
sg87
S'Owns Flat'
p1884
sg5
S'Graduate Girl '
p1885
sg29
S'VADAMAL/KOUSHIKAM'
p1886
sa(dp1887
g73
(lp1888
g75
asg2
(lp1889
g120
asg5
S'musically interested'
p1890
sg7
S'188'
p1891
sg9
g259
sg27
g106
sg11
g126
sg20
g67
sg15
(lp1892
g445
asg84
g1777
sg22
(lp1893
g162
asg25
g135
sg87
S'fair musically talented'
p1894
sg54
S' 044-42193804'
p1895
sg29
g450
sa(dp1896
g2
(lp1897
g61
asg121
(lp1898
S'20,000/- pm'
p1899
asg5
S'Graduate or +2 employed/unemployed Kalai no bar'
p1900
sg7
g629
sg9
g860
sg27
g34
sg11
g63
sg20
g67
sg15
(lp1901
g1725
asg131
S'20,000/- PM'
p1902
sg22
(lp1903
g863
asg25
S'BA'
p1904
sg54
S' 04522301021,9994161890'
p1905
sg29
S'VADAGALAI IYENGAR'
p1906
sa(dp1907
g2
(lp1908
S'indian air force'
p1909
asg121
(lp1910
S'20000+'
p1911
asg27
g225
sg131
S'20000+'
p1912
sg7
g154
sg9
S'Aarudhra'
p1913
sg11
S'Indian Air Force'
p1914
sg15
(lp1915
g445
asg18
g587
sg84
g1777
sg22
(lp1916
S'aarudhra'
p1917
asg54
S' 044-28229282'
p1918
sg5
S'seeks suitable Graduate Girl.'
p1919
sg29
g450
sa(dp1920
g2
(lp1921
g1160
asg5
S'seeks educated bride.'
p1922
sg7
g321
sg9
S'Poosam'
p1923
sg27
g182
sg11
g1267
sg20
g39
sg15
(lp1924
g445
asg18
S'CA(Final)'
p1925
sg84
g1777
sg22
(lp1926
g780
asg25
S'B.Sc'
p1927
sg54
S' 9742906777, 9486162048'
p1928
sg29
g1777
sa(dp1929
g27
g225
sg25
g392
sg15
(lp1930
S'tamil brahmin'
p1931
asg18
g160
sg54
S' 0471 2340028'
p1932
sg5
S'below 27 working same caste'
p1933
sg29
S'TAMIL BRAHMIN'
p1934
sa(dp1935
g2
(lp1936
g1160
asg27
g79
sg7
g1030
sg9
S'Pooram Sevvai, Sani 8th Place'
p1937
sg11
g1267
sg20
g39
sg15
(lp1938
g1725
asg18
g130
sg22
(lp1939
g1241
asg54
S' 9443088312,9442746346'
p1940
sg25
g135
sg29
S'IYENGAR TENKALAI'
p1941
sa(dp1942
g2
(lp1943
g258
asg121
(lp1944
S'rs.90.000'
p1945
asg5
S'Educated Bride'
p1946
sg7
S'000'
p1947
sg9
g1257
sg27
g274
sg11
S'Sr.Technical Asst DEWA'
p1948
sg20
S'Dubai '
p1949
sg131
S'Rs.90.000'
p1950
sg22
(lp1951
g1241
asg25
g222
sg54
S'0431-2432547'
p1952
sa(dp1953
g27
g178
sg9
S'Pooyam Garga'
p1954
sg20
g521
sg15
(lp1955
g1931
asg22
(lp1956
S'pooyam garga'
p1957
asg54
S' 04862-227556'
p1958
sg25
g361
sg29
S'Tamil Brahmin'
p1959
sa(dp1960
g2
(lp1961
g120
asg121
(lp1962
S'22 lacs pa'
p1963
asg27
g225
sg131
S'22 lacs pa'
p1964
sg7
g226
sg9
g259
sg11
S'MNC (Shipping)Chief Officer '
p1965
sg13
S'Box No. CB-335, THE HINDU, Coimbatore-641 018'
p1966
sg15
(lp1967
g445
asg84
g1777
sg22
(lp1968
g162
asg54
S'0422-4341647'
p1969
sg5
S'decent family, sub.sect no bar'
p1970
sg29
g1777
sa(dp1971
g121
(lp1972
g686
asg92
S'father only,2sisters well settled'
p1973
sg27
g156
sg7
g292
sg9
g1443
sg13
S'Box No.KR42076, THE HINDU, Chennai-600002'
p1974
sg15
(lp1975
g445
asg20
g798
sg131
S'45000pm'
p1976
sg22
(lp1977
g1292
asg54
S'044-24521011,9940276150 '
p1978
sg29
g450
sa(dp1979
g73
(lp1980
S'slightly handicapped '
p1981
asg2
(lp1982
g33
asg5
S'Indp. Graduate girl Subsect Nobar'
p1983
sg27
g79
sg11
S'Wipro'
p1984
sg15
(lp1985
S'bharatwajam'
p1986
asg18
g130
sg54
S'22434363'
p1987
sg87
S'slightly handicapped '
p1988
sg25
g1904
sg29
S'BHARATWAJAM'
p1989
sa(dp1990
g73
(lp1991
S'own flat'
p1992
asg2
(lp1993
g1160
asg27
g106
sg7
g226
sg9
S'Haritha'
p1994
sg56
S'krsubu@gmail.com'
p1995
sg11
g1267
sg20
S"B'Lore"
p1996
sg15
(lp1997
g445
asg18
S'PGDIT'
p1998
sg22
(lp1999
S'haritha'
p2000
asg25
S'BSc Comp Sc'
p2001
sg87
S'own flat'
p2002
sg54
S'044-24903494 '
p2003
sg29
g1777
sa(dp2004
g73
(lp2005
g76
asg2
(lp2006
g328
asg5
S'attractive brahmin girl below 29 Preferably in USA'
p2007
sg7
g846
sg27
g112
sg11
S'Sr.position in Invstmnt banking'
p2008
sg20
g52
sg15
(lp2009
g1725
asg18
S'IVY league'
p2010
sg87
S'handsome athletic'
p2011
sg56
S'USA.raajee32@gmail.com'
p2012
sg29
S'IYENGAR'
p2013
sa(dp2014
g73
(lp2015
g76
asg2
(lp2016
S'pediatrician'
p2017
asg5
S'Goodlooking Brahmin girl,Decent Fmly Prof. Qualfd Any field,Betwn 23-29.Wllng to relocate to UK'
p2018
sg7
g124
sg11
S'Pediatrician'
p2019
sg20
g972
sg15
(lp2020
g1725
asg54
S'044-42022584, 9894874548'
p2021
sg29
g2013
sg87
g391
sa(dp2022
g2
(lp2023
g44
asg121
(lp2024
S'50k dollors p.a'
p2025
asg27
g342
sg7
g268
sg9
S'Chitthirai'
p2026
sg11
g47
sg20
S'Australia'
p2027
sg15
(lp2028
S'v.kalai'
p2029
asg18
g1106
sg131
S'50K Dollors P.A'
p2030
sg22
(lp2031
S'chitthirai'
p2032
asg54
S' 09840410583'
p2033
sg5
S'Gr or PG Girl Iyengar/Iyer '
p2034
sg29
S'V.KALAI B.WAJAM'
p2035
sa(dp2036
g73
(lp2037
g75
asg2
(lp2038
g44
asg5
S'well Qlfd Empld V.Fair Girl from decent Fmly'
p2039
sg7
g268
sg9
g860
sg27
g225
sg11
g47
sg15
(lp2040
S'vadama nadt'
p2041
asg18
S'doing Mgmt Prog IIMK'
p2042
sg22
(lp2043
g863
asg25
g135
sg87
g221
sg54
S'24452567'
p2044
sg29
S'VADAMA NADT'
p2045
sa(dp2046
g2
(lp2047
g44
asg5
S'smart profnl qlfd girl, 25-29. subsect no bar'
p2048
sg7
g194
sg9
g1443
sg56
S'laksuns@hotmail.com'
p2049
sg11
S'SW profnl'
p2050
sg15
(lp2051
g445
asg18
S'MBA(IIM C)'
p2052
sg84
g1777
sg22
(lp2053
g1292
asg25
g135
sg54
S' 098849 06031,044 42124899'
p2054
sg27
g112
sg29
g1777
sa(dp2055
g2
(lp2056
g44
asg27
g225
sg7
g226
sg9
S'Poorattadhi'
p2057
sg11
g47
sg20
g665
sg15
(lp2058
g445
asg18
g186
sg84
g1777
sg22
(lp2059
S'poorattadhi'
p2060
asg54
S' 080-25451441,41614653'
p2061
sg5
S'unemp/emp non IT girl'
p2062
sg29
g450
sa(dp2063
g2
(lp2064
g217
asg5
S'educated employed Brahmin girl'
p2065
sg7
g154
sg56
S'ksunderarajan@gmail.com'
p2066
sg11
S'Manager ICICI Bank'
p2067
sg20
g39
sg15
(lp2068
g445
asg18
g130
sg25
g1904
sg54
S' 09160249160 , 080-26723269'
p2069
sg27
g302
sg29
g450
sa(dp2070
g73
(lp2071
g1992
asg2
(lp2072
g120
asg121
(lp2073
S'19000 pm'
p2074
asg92
g499
sg27
g225
sg7
g194
sg9
g1461
sg11
g126
sg20
g67
sg15
(lp2075
S'vadama srivatsam'
p2076
asg18
g316
sg131
S'19000 pm'
p2077
sg22
(lp2078
g1466
asg54
S' 0422-2233016 0,9790838602 '
p2079
sg87
S'own flat in Salem'
p2080
sg5
S'girl below 28'
p2081
sg29
S'VADAMA SRIVATSAM'
p2082
sa(dp2083
g2
(lp2084
g902
asg27
g342
sg7
g207
sg9
g1781
sg56
S'rukmani46@yahoo.com'
p2085
sg11
g903
sg20
g52
sg15
(lp2086
g445
asg84
g1777
sg22
(lp2087
g402
asg25
S'Mech Engr'
p2088
sg54
S'-2 1973 ,24529061'
p2089
sg29
g450
sa(dp2090
g2
(lp2091
g120
asg121
(lp2092
g686
asg27
g28
sg7
g226
sg9
S'HARITA Visaka'
p2093
sg11
g126
sg20
g39
sg15
(lp2094
g2029
asg18
S'M.Com(MBA)'
p2095
sg131
S'45000'
p2096
sg22
(lp2097
S'harita visaka'
p2098
asg54
S' 9894857758'
p2099
sg5
S'seeks employed girl.'
p2100
sg29
S'V.KALAI'
p2101
sa(dp2102
g73
(lp2103
g75
asg2
(lp2104
g217
asg121
(lp2105
g123
asg5
S'Subsect no bar'
p2106
sg84
g1777
sg7
g226
sg27
g809
sg11
g1258
sg15
(lp2107
g445
asg18
g587
sg131
g984
sg25
g361
sg87
g362
sg54
S'09344667353,09843147164'
p2108
sg29
g450
sa(dp2109
g2
(lp2110
g120
asg27
g809
sg11
g126
sg13
S'Box No.AA22646, THE HINDU, Chennai-600002'
p2111
sg15
(lp2112
g1725
asg18
g372
sg20
g67
sg29
S'Iyengar'
p2113
sa(dp2114
g2
(lp2115
g120
asg121
(lp2116
S'13lpa'
p2117
asg5
S'Qlfd Wkng same/Vadama bride'
p2118
sg7
g194
sg9
S'Kousika Pooratadhi'
p2119
sg56
S'premasakee@yahoo.com'
p2120
sg11
g126
sg20
g39
sg15
(lp2121
g445
asg18
g186
sg131
S'13LPA'
p2122
sg22
(lp2123
S'kousika pooratadhi'
p2124
asg25
S'BSc'
p2125
sg54
S'080-23655243, 0-9740516332'
p2126
sg27
g34
sg29
g1777
sa(dp2127
g73
(lp2128
g75
asg2
(lp2129
S'cisco'
p2130
asg5
S'Iyer/Iyengar bride '
p2131
sg7
g369
sg9
g860
sg27
g79
sg11
S'Cisco'
p2132
sg20
g52
sg15
(lp2133
g445
asg18
g372
sg22
(lp2134
g863
asg25
g135
sg87
g221
sg56
S'sendrajan1952@gmail.com'
p2135
sg29
g1777
sa(dp2136
g73
(lp2137
g75
asg5
g1684
sg7
g369
sg27
g34
sg20
S'Cochin'
p2138
sg15
(lp2139
g445
asg18
g130
sg84
g1777
sg25
g1904
sg87
g362
sg54
S' 0484 2211181, 0 94465 76181'
p2140
sg29
g1777
sa(dp2141
g2
(lp2142
g120
asg121
(lp2143
S'rs.11 lakhs/pa'
p2144
asg5
S'Employed, Good looking Girl, from well to do Family. Sub sect no bar. '
p2145
sg131
S'Rs.11 Lakhs/pa'
p2146
sg7
g696
sg56
S'harish.vishwanathan@gmail.com'
p2147
sg11
g126
sg20
g39
sg15
(lp2148
g445
asg18
g372
sg84
g1777
sg25
g135
sg54
S' 044-28156637 , 09840746104 '
p2149
sg27
g182
sg29
g1777
sa(dp2150
g27
g809
sg7
g594
sg9
g1376
sg56
S'arrjay_2000@yahoo.com'
p2151
sg20
g1949
sg15
(lp2152
S'vishnuaangeerasa'
p2153
asg22
(lp2154
g1381
asg25
S'BCom'
p2155
sg54
S' 09962968635'
p2156
sg29
S'VISHNUAANGEERASA'
p2157
sa(dp2158
g5
S'seeks suitable Bride Willing to Relocate subsect No Bar.'
p2159
sg7
g629
sg9
S'Pooram'
p2160
sg56
S'lakh22549@yahoo.com'
p2161
sg20
S'Sydney'
p2162
sg15
(lp2163
g445
asg18
g130
sg84
g1777
sg22
(lp2164
g1241
asg25
g361
sg54
S'044-24839410 , 09940424309'
p2165
sg27
g106
sg29
g450
sa(dp2166
g27
g302
sg7
g846
sg9
S'Revathi'
p2167
sg56
S'seshan1852001@yahoo.com'
p2168
sg15
(lp2169
g445
asg18
g587
sg22
(lp2170
S'revathi'
p2171
asg54
S' 09486189544 '
p2172
sg25
g135
sg29
g450
sa(dp2173
g73
(lp2174
g933
asg2
(lp2175
g120
asg121
(lp2176
S'80000pm'
p2177
asg87
S'good looking'
p2178
sg5
S'seeks good looking Graduate girl.'
p2179
sg7
g268
sg9
g259
sg56
S'venkkey@yahoo.com'
p2180
sg11
g126
sg20
g67
sg15
(lp2181
S'vadakalai baradwajam'
p2182
asg131
S'80000pm'
p2183
sg22
(lp2184
g162
asg25
g135
sg54
S'09840647056'
p2185
sg27
g302
sg29
S'VADAKALAI BARADWAJAM'
p2186
sa(dp2187
g121
(lp2188
S'6000pm'
p2189
asg92
g1591
sg27
g178
sg131
S'6000pm'
p2190
sg7
g275
sg9
g2057
sg20
g67
sg15
(lp2191
g445
asg84
g1777
sg22
(lp2192
g2060
asg54
S' 044-22580866, 09840743430'
p2193
sg5
S'seeks suitable employed Girl. Subsect No Bar'
p2194
sg29
g450
sa(dp2195
g2
(lp2196
S'mridangam artist'
p2197
asg92
g1591
sg27
g34
sg7
S'166'
p2198
sg9
g1135
sg11
S'Mridangam Artist'
p2199
sg20
g67
sg15
(lp2200
g445
asg22
(lp2201
g1141
asg54
g2193
sg5
S'employed musically inclined Girl. Subsect No Bar'
p2202
sg29
g450
sa(dp2203
g2
(lp2204
g33
asg5
S'seeks homely Graduate Girl.'
p2205
sg7
g46
sg9
g1376
sg27
g225
sg11
g1984
sg20
g39
sg15
(lp2206
S'vadamal srivatsam'
p2207
asg22
(lp2208
g1381
asg25
g135
sg54
S' 044-65678581'
p2209
sg29
S'VADAMAL SRIVATSAM'
p2210
sa(dp2211
g121
(lp2212
S'8 lacs pa'
p2213
asg27
g79
sg7
g696
sg9
g329
sg20
g622
sg15
(lp2214
g445
asg18
S'ACA/CISA'
p2215
sg131
S'8 Lacs pa'
p2216
sg22
(lp2217
g335
asg54
S'022-27717072'
p2218
sg29
g1777
sa(dp2219
g2
(lp2220
g808
asg27
g28
sg54
S'09840093685 , 09383393685'
p2221
sg11
g810
sa(dp2222
g2
(lp2223
g44
asg5
S'seeks Iyer Girl Graduate with Good Family Background.'
p2224
sg7
g664
sg27
g225
sg11
g47
sg20
g52
sg15
(lp2225
g445
asg54
S' 044-24952927, (0)9444456721'
p2226
sg25
g135
sg29
g1777
sa(dp2227
g2
(lp2228
g120
asg121
(lp2229
g1374
asg27
g106
sg7
g124
sg11
g126
sg13
S'Box No.SH48595, THE HINDU, Chennai-600002'
p2230
sg15
(lp2231
g445
asg18
g130
sg20
g67
sg131
S'15L pa'
p2232
sg25
g1904
sg5
S'Qualified working Iyer/Iyengar Girl subsect no bar '
p2233
sg29
g1777
sa(dp2234
g2
(lp2235
g217
ag120
asg121
(lp2236
g965
asg27
g182
sg131
S'12Lacs p.a'
p2237
sg80
S'Iyengar (Vadakalai)'
p2238
sg7
g207
sg56
S'yessrinivasan@yahoo.com'
p2239
sg11
S'Associate Manager MNC'
p2240
sg20
g39
sg18
g130
sg84
S'Iyer (Vadamal-Kerala)'
p2241
sg25
g361
sg54
S'044-24954583 '
p2242
sa(dp2243
g121
(lp2244
S'75000 usd pa'
p2245
asg27
g225
sg131
S'75000 USD PA'
p2246
sg80
S'AD'
p2247
sg7
g268
sg9
S'Mrigashirisham/Rishabam'
p2248
sg13
S'Box No.SH48600, THE HINDU, Chennai-600002'
p2249
sg15
(lp2250
g1148
asg18
S'M.Sc(Speech&Hearing)'
p2251
sg20
g52
sg84
S'Brahmin Iyer'
p2252
sg22
(lp2253
S'mrigashirisham/rishabam'
p2254
asg54
S'044-24622500,09789019945 '
p2255
sg5
S'Prof Qualfd Bride from Respectable,anyone Brahmin Intercaste parentage'
p2256
sg29
g1150
sa(dp2257
g2
(lp2258
g120
asg5
S'Prof.Qualified/ Employed'
p2259
sg7
g154
sg56
S'skharihara@yahoo.co.in'
p2260
sg11
S'MNC Bank'
p2261
sg20
g67
sg15
(lp2262
g445
asg18
S'CA, MBA'
p2263
sg25
g361
sg54
S' 044-23661212 '
p2264
sg27
g106
sg29
g1777
sa(dp2265
g73
(lp2266
g1654
asg2
(lp2267
S'barclays'
p2268
asg27
g182
sg80
g2247
sg7
g1030
sg9
g1781
sg56
S'tgsmaran@hotmail.com'
p2269
sg11
S'Barclays'
p2270
sg15
(lp2271
g445
asg18
g130
sg22
(lp2272
g402
asg25
S'BCA'
p2273
sg87
S'Rich affluent'
p2274
sg54
S' 044-24953422 '
p2275
sg29
g450
sa(dp2276
g27
g79
sg56
S'vjanakiraman@yahoo.co.in'
p2277
sg15
(lp2278
g445
asg18
g130
sg54
S' 9940199838 '
p2279
sg7
g194
sg5
S'Graduate/PG Bride Likely to leave for States'
p2280
sg29
g1777
sa(dp2281
g2
(lp2282
S'l&t'
p2283
asg27
g302
sg9
g1443
sg11
S'L&T'
p2284
sg20
g67
sg15
(lp2285
g445
asg84
g1777
sg22
(lp2286
g1292
asg54
S'(0)9940267783,9444447487'
p2287
sg5
S'seeks suitable girl.'
p2288
sg29
g1777
sa(dp2289
g2
(lp2290
S'principal polytechnic'
p2291
asg27
g248
sg7
g321
sg11
S'Principal Polytechnic'
p2292
sg13
S'Venkatanarayanan 4 Sivasamy Street Salem-636001'
p2293
sg15
(lp2294
g445
asg18
g523
sg84
g1777
sg54
S'09943305500'
p2295
sg5
S'qualified girl subsect no ba'
p2296
sg29
g1777
sa(dp2297
g121
(lp2298
S'41000'
p2299
asg27
g809
sg80
g2247
sg7
g194
sg9
S'Gothram Mesham Star Krithigai'
p2300
sg15
(lp2301
g445
asg18
g446
sg131
S'41000'
p2302
sg22
(lp2303
S'gothram mesham star krithigai'
p2304
asg54
S'0427-2410330, 09629789100'
p2305
sg25
g1904
sg29
g450
sa(dp2306
g2
(lp2307
S'nokia siemens'
p2308
asg121
(lp2309
S'8lpa'
p2310
asg267
g267
sg5
S'qualified goodlooking girl, issueless divorcee can also apply, subsect no bar'
p2311
sg84
g1777
sg7
g207
sg27
g112
sg11
S'Nokia Siemens'
p2312
sg15
(lp2313
g445
asg131
S'8Lpa'
p2314
sg25
g135
sg54
S'0422-2423773, 09710707443'
p2315
sg29
g1777
sa(dp2316
g73
(lp2317
S'well settled & propertied '
p2318
asg2
(lp2319
g120
asg121
(lp2320
S'30kpm'
p2321
asg5
S'seeks Bride.'
p2322
sg7
g629
sg9
g1443
sg27
g178
sg11
g126
sg20
g67
sg15
(lp2323
S"b'charanam kousikam"
p2324
asg18
g130
sg131
S'30Kpm'
p2325
sg22
(lp2326
g1292
asg25
g1904
sg87
S'Well Settled & Propertied '
p2327
sg54
S' 044-22460433'
p2328
sg29
S"B'CHARANAM KOUSIKAM"
p2329
sa(dp2330
g2
(lp2331
g78
asg121
(lp2332
S'15,000pm'
p2333
asg27
g225
sg7
g226
sg11
g82
sg15
(lp2334
g445
asg131
S'15,000pm'
p2335
sg54
S' 09445342044 , 09840708392'
p2336
sg29
g450
sa(dp2337
g73
(lp2338
g806
asg2
(lp2339
g120
asg5
S'Goodlooking PG/UG Gir'
p2340
sg7
g207
sg27
g112
sg11
g126
sg20
g52
sg15
(lp2341
g445
asg18
g372
sg25
g135
sg87
S'Clean Habits'
p2342
sg54
S' 044-42016379'
p2343
sg29
g450
sa(dp2344
g2
(lp2345
g912
asg27
g106
sg7
g629
sg9
g1135
sg11
g915
sg20
g67
sg15
(lp2346
S"vadakalai b'wajam"
p2347
asg18
g523
sg22
(lp2348
g1141
asg54
S' 044-23776295'
p2349
sg5
S'Seeks Vadakalai Profly Quald Empd Girl.'
p2350
sg29
S"VADAKALAI B'WAJAM"
p2351
sa(dp2352
g2
(lp2353
g217
asg121
(lp2354
S'400000pa'
p2355
asg5
S'seeks suitable Bride.'
p2356
sg7
g696
sg27
g956
sg11
S'Asst.Manager-Rane Group'
p2357
sg20
g67
sg15
(lp2358
g445
asg18
g130
sg131
S'400000pa'
p2359
sg25
g1927
sg54
S' 09444440408, 09841428030'
p2360
sg29
g1777
sa(dp2361
g73
(lp2362
S'us citizen '
p2363
asg2
(lp2364
S'boston'
p2365
asg87
S'US Citizen '
p2366
sg5
S'UNMARRIED Bride Above Graduate Fair, Slim Iyer Iyengar Madwa Tamil Telugu Kannada From India / Abroad'
p2367
sg7
g124
sg56
S'gopa292002@yahoo.co.in'
p2368
sg11
S'Boston'
p2369
sg20
g142
sg15
(lp2370
g445
asg18
g657
sg25
g2088
sg54
S' 044-23770003 '
p2371
sg27
g62
sg29
S'Tamil Iyer'
p2372
sa(dp2373
g2
(lp2374
g44
asg5
S'educated homely'
p2375
sg7
g629
sg9
g676
sg56
S'matri1974@gmail.com'
p2376
sg11
g47
sg20
g52
sg15
(lp2377
g445
asg22
(lp2378
g680
asg54
S' 09382716606'
p2379
sg27
g178
sg29
g450
sa(dp2380
g2
(lp2381
g217
asg5
S'seeks well qlfd Iyer girl.'
p2382
sg7
g629
sg9
g1031
sg27
g225
sg11
g1258
sg15
(lp2383
g445
asg18
S'MBA(IIM-A)'
p2384
sg22
(lp2385
g1035
asg25
g135
sg54
S'044-42851118, 9382177884'
p2386
sg29
g1777
sa(dp2387
g73
(lp2388
g75
asg2
(lp2389
S'purchase executive,tata coffee ltd'
p2390
asg121
(lp2391
g2189
asg27
g225
sg84
g1777
sg80
g2247
sg7
g321
sg11
S'Purchase Executive,Tata Coffee Ltd'
p2392
sg20
g39
sg15
(lp2393
g445
asg18
S'MCom'
p2394
sg131
S'16000pm'
p2395
sg54
S'044-26510680 ,080-41487466'
p2396
sg87
g221
sg5
S'Seeks Suitable Graduate Girl.Subsect No Bar'
p2397
sg29
g450
sa(dp2398
g73
(lp2399
S'cleanhabits'
p2400
asg92
S'respectable'
p2401
sg27
g225
sg7
g154
sg9
g1781
sg20
g52
sg15
(lp2402
g1725
asg18
g372
sg22
(lp2403
g402
asg25
g135
sg87
S'cleanhabits'
p2404
sg56
S'uday2329@gmail.com'
p2405
sg29
g2013
sa(dp2406
g2
(lp2407
g44
asg121
(lp2408
S'24lpa'
p2409
asg27
g302
sg9
g10
sg11
S'SW'
p2410
sg20
g1996
sg15
(lp2411
g445
asg18
g186
sg131
S'24LPA'
p2412
sg22
(lp2413
g24
asg54
S' 9840411500'
p2414
sg56
S'nagups@gmail.com'
p2415
sg29
g1777
sa(dp2416
g2
(lp2417
g120
asg121
(lp2418
g466
asg5
S'seeks Professionally Qualifd with good family background.'
p2419
sg80
g2247
sg7
g194
sg56
S'pn.chari@yahoo.com'
p2420
sg11
g126
sg20
g196
sg18
g130
sg131
g471
sg25
g1904
sg54
S'9150003000, 09891304852- '
p2421
sg27
S'26'
p2422
sa(dp2423
g92
(dp2424
g168
(lp2425
I10
asg555
(lp2426
I49
asg479
(lp2427
I41
asg499
(lp2428
I43
aI166
aI167
aI201
asg794
(lp2429
I74
asg1617
(lp2430
I156
asg1287
(lp2431
I122
asg1591
(lp2432
I153
aI177
aI214
aI215
asg1473
(lp2433
I140
asg1973
(lp2434
I191
asg867
(lp2435
I80
asg880
(lp2436
I81
asg93
(lp2437
I5
asg2401
(lp2438
I239
asg1009
(lp2439
I93
assg7
(dp2440
g96
(lp2441
I5
asg8
(lp2442
I0
asg226
(lp2443
I15
aI16
aI38
aI49
aI54
aI56
aI80
aI83
aI84
aI110
aI127
aI131
aI143
aI190
aI193
aI199
aI203
aI204
aI231
asg1134
(lp2444
I107
asg369
(lp2445
I29
aI136
aI145
aI148
aI207
aI208
asg1582
(lp2446
I152
asg594
(lp2447
I53
aI63
aI71
aI109
aI210
asg1947
(lp2448
I188
asg207
(lp2449
I13
aI23
aI39
aI75
aI90
aI98
aI121
aI141
aI202
aI221
aI229
aI232
asg664
(lp2450
I61
aI112
aI179
aI219
asg696
(lp2451
I65
aI69
aI76
aI122
aI129
aI149
aI153
aI157
aI171
aI209
aI217
aI234
asg706
(lp2452
I66
aI96
aI97
aI166
asg312
(lp2453
I24
aI73
asg194
(lp2454
I12
aI14
aI17
aI26
aI33
aI34
aI35
aI45
aI46
aI55
aI62
aI67
aI102
aI119
aI128
aI135
aI150
aI154
aI160
aI172
aI198
aI201
aI206
aI225
aI228
aI241
asg846
(lp2455
I78
aI85
aI158
aI194
aI212
asg154
(lp2456
I9
aI10
aI42
aI87
aI113
aI120
aI161
aI184
aI200
aI223
aI239
asg275
(lp2457
I20
aI30
aI51
aI64
aI82
aI100
aI117
aI124
aI134
aI146
aI163
aI174
aI214
asg292
(lp2458
I22
aI40
aI70
aI88
aI191
asg321
(lp2459
I25
aI32
aI115
aI185
aI227
aI238
asg124
(lp2460
I7
aI28
aI72
aI89
aI93
aI137
aI142
aI155
aI175
aI195
aI220
aI235
asg882
(lp2461
I81
asg1676
(lp2462
I162
aI181
asg46
(lp2463
I2
aI21
aI27
aI59
aI147
aI151
aI216
asg1030
(lp2464
I95
aI156
aI187
aI224
asg629
(lp2465
I57
aI58
aI60
aI132
aI159
aI165
aI183
aI211
aI230
aI233
aI236
aI237
asg1746
(lp2466
I168
aI176
asg183
(lp2467
I11
aI18
aI99
asg1759
(lp2468
I169
asg1694
(lp2469
I164
asg1891
(lp2470
I182
asg268
(lp2471
I19
aI44
aI48
aI79
aI86
aI130
aI139
aI144
aI173
aI177
aI178
aI196
aI197
aI213
aI222
asg2198
(lp2472
I215
asg1209
(lp2473
I114
assg65
(dp2474
g66
(lp2475
I3
aI17
aI118
assg22
(dp2476
g243
(lp2477
I16
asg680
(lp2478
I63
aI168
aI236
asg1401
(lp2479
I132
asg1555
(lp2480
I148
asg448
(lp2481
I38
asg1701
(lp2482
I164
asg2032
(lp2483
I196
asg1527
(lp2484
I145
asg800
(lp2485
I74
asg766
(lp2486
I71
asg949
(lp2487
I87
asg854
(lp2488
I78
aI121
asg1025
(lp2489
I94
asg836
(lp2490
I77
asg383
(lp2491
I30
asg2060
(lp2492
I199
aI214
asg1292
(lp2493
I122
aI137
aI191
aI198
aI226
aI230
asg1466
(lp2494
I139
aI201
asg1315
(lp2495
I124
asg2124
(lp2496
I206
asg335
(lp2497
I26
aI135
aI217
asg1805
(lp2498
I173
asg975
(lp2499
I89
asg1241
(lp2500
I117
aI119
aI161
aI179
aI187
aI188
aI211
asg134
(lp2501
I7
aI11
aI163
asg1917
(lp2502
I184
asg1060
(lp2503
I98
asg147
(lp2504
I8
asg2254
(lp2505
I222
asg1304
(lp2506
I123
asg2304
(lp2507
I228
asg2098
(lp2508
I203
asg863
(lp2509
I79
aI141
aI183
aI197
aI207
asg1141
(lp2510
I107
aI134
aI215
aI233
asg722
(lp2511
I67
aI73
aI128
asg1271
(lp2512
I120
asg1882
(lp2513
I181
asg162
(lp2514
I9
aI18
aI40
aI182
aI190
aI213
asg2171
(lp2515
I212
asg780
(lp2516
I72
aI165
aI185
asg1796
(lp2517
I172
asg402
(lp2518
I32
aI97
aI100
aI171
aI176
aI202
aI224
aI239
asg986
(lp2519
I90
asg1631
(lp2520
I157
asg1957
(lp2521
I189
asg2000
(lp2522
I193
asg175
(lp2523
I10
asg24
(lp2524
I0
aI169
aI240
asg1203
(lp2525
I113
asg459
(lp2526
I39
asg360
(lp2527
I28
asg1190
(lp2528
I112
asg1035
(lp2529
I95
aI125
aI174
aI237
asg1015
(lp2530
I93
aI147
asg887
(lp2531
I81
asg1738
(lp2532
I167
asg1381
(lp2533
I130
aI149
aI175
aI210
aI216
asg1518
(lp2534
I144
asg347
(lp2535
I27
assg2
(dp2536
g33
(lp2537
I1
aI192
aI216
asg1508
(lp2538
I144
asg2130
(lp2539
I207
asg2365
(lp2540
I235
asg258
(lp2541
I18
aI23
aI30
aI42
aI164
aI188
asg328
(lp2542
I26
aI27
aI39
aI47
aI52
aI78
aI105
aI140
aI141
aI173
aI194
asg1768
(lp2543
I170
asg217
(lp2544
I14
aI24
aI48
aI94
aI100
aI107
aI112
aI116
aI119
aI200
aI204
aI221
aI234
aI237
asg2268
(lp2545
I224
asg1458
(lp2546
I139
asg1656
(lp2547
I160
asg1416
(lp2548
I134
asg120
(lp2549
I7
aI8
aI9
aI11
aI14
aI25
aI33
aI34
aI36
aI38
aI41
aI45
aI62
aI76
aI78
aI81
aI86
aI96
aI98
aI100
aI116
aI128
aI136
aI148
aI150
aI153
aI157
aI167
aI168
aI169
aI174
aI182
aI190
aI201
aI203
aI205
aI206
aI209
aI213
aI220
aI221
aI223
aI230
aI232
aI241
asg2308
(lp2550
I229
asg354
(lp2551
I28
asg291
(lp2552
I22
asg418
(lp2553
I35
asg1047
(lp2554
I97
asg192
(lp2555
I12
aI31
aI55
aI91
aI149
asg1839
(lp2556
I177
asg2291
(lp2557
I227
asg808
(lp2558
I75
aI114
aI218
asg728
(lp2559
I68
asg1298
(lp2560
I123
asg234
(lp2561
I16
asg206
(lp2562
I13
aI54
aI58
aI163
asg4
(lp2563
I0
aI6
aI17
aI130
aI175
asg1219
(lp2564
I115
asg1706
(lp2565
I165
asg1864
(lp2566
I180
asg715
(lp2567
I67
asg1615
(lp2568
I156
asg2283
(lp2569
I226
asg509
(lp2570
I44
asg1789
(lp2571
I172
asg902
(lp2572
I83
aI86
aI124
aI202
asg61
(lp2573
I3
aI87
aI92
aI121
aI126
aI183
asg2390
(lp2574
I238
asg1247
(lp2575
I118
aI166
asg705
(lp2576
I66
asg91
(lp2577
I5
asg1160
(lp2578
I110
aI120
aI185
aI187
aI193
asg2197
(lp2579
I215
asg563
(lp2580
I50
aI117
asg44
(lp2581
I2
aI43
aI49
aI51
aI53
aI56
aI59
aI61
aI64
aI70
aI73
aI79
aI82
aI85
aI89
aI95
aI101
aI102
aI103
aI104
aI106
aI109
aI110
aI111
aI113
aI125
aI127
aI132
aI137
aI142
aI146
aI147
aI151
aI152
aI155
aI158
aI159
aI196
aI197
aI198
aI199
aI219
aI236
aI240
asg1598
(lp2582
I154
asg78
(lp2583
I4
aI231
asg464
(lp2584
I40
asg2017
(lp2585
I195
asg395
(lp2586
I32
asg1909
(lp2587
I184
asg912
(lp2588
I84
aI122
aI176
aI233
asg368
(lp2589
I29
aI34
aI99
aI133
aI135
assg5
(dp2590
g441
(lp2591
I38
asg1721
(lp2592
I166
asg1407
(lp2593
I133
asg1220
(lp2594
I115
asg2048
(lp2595
I198
asg169
(lp2596
I10
asg1813
(lp2597
I174
asg1684
(lp2598
I163
aI208
asg510
(lp2599
I44
asg691
(lp2600
I64
aI92
asg1576
(lp2601
I151
asg116
(lp2602
I6
asg2034
(lp2603
I196
asg822
(lp2604
I76
asg1790
(lp2605
I172
asg1970
(lp2606
I190
asg45
(lp2607
I2
asg1181
(lp2608
I112
asg1732
(lp2609
I167
asg1074
(lp2610
I100
asg484
(lp2611
I41
asg2356
(lp2612
I234
asg1368
(lp2613
I129
asg1143
(lp2614
I107
asg574
(lp2615
I51
asg755
(lp2616
I70
asg2375
(lp2617
I236
asg1922
(lp2618
I185
asg2039
(lp2619
I197
asg1665
(lp2620
I161
asg590
(lp2621
I52
asg1039
(lp2622
I96
asg2062
(lp2623
I199
asg773
(lp2624
I72
asg526
(lp2625
I45
asg1495
(lp2626
I142
asg2224
(lp2627
I219
asg787
(lp2628
I73
asg193
(lp2629
I12
asg570
(lp2630
I50
asg1933
(lp2631
I186
asg907
(lp2632
I83
asg1432
(lp2633
I135
asg739
(lp2634
I69
asg1153
(lp2635
I109
asg1840
(lp2636
I177
asg1498
(lp2637
I143
asg2118
(lp2638
I206
asg2280
(lp2639
I225
asg2179
(lp2640
I213
asg1277
(lp2641
I121
asg802
(lp2642
I74
asg2233
(lp2643
I220
asg1375
(lp2644
I130
asg2311
(lp2645
I229
asg2100
(lp2646
I203
asg2194
(lp2647
I214
asg628
(lp2648
I57
asg244
(lp2649
I16
asg1745
(lp2650
I168
asg86
(lp2651
I4
asg1771
(lp2652
I170
asg1317
(lp2653
I124
asg1638
(lp2654
I158
asg2350
(lp2655
I233
asg1885
(lp2656
I181
asg531
(lp2657
I46
asg767
(lp2658
I71
asg1388
(lp2659
I131
asg2131
(lp2660
I207
asg641
(lp2661
I58
asg1581
(lp2662
I152
aI153
asg613
(lp2663
I55
asg1442
(lp2664
I137
asg1460
(lp2665
I139
asg271
(lp2666
I19
asg1900
(lp2667
I183
asg2397
(lp2668
I238
asg212
(lp2669
I13
asg1355
(lp2670
I128
asg136
(lp2671
I7
asg609
(lp2672
I54
asg1567
(lp2673
I150
asg254
(lp2674
I17
asg2259
(lp2675
I223
asg1036
(lp2676
I95
asg663
(lp2677
I61
asg2081
(lp2678
I201
asg1321
(lp2679
I125
asg1197
(lp2680
I113
asg1208
(lp2681
I114
asg1693
(lp2682
I164
asg645
(lp2683
I59
asg1474
(lp2684
I140
asg2205
(lp2685
I216
asg1522
(lp2686
I145
asg140
(lp2687
I8
asg320
(lp2688
I25
asg815
(lp2689
I75
asg1067
(lp2690
I99
asg1451
(lp2691
I138
asg967
(lp2692
I89
asg859
(lp2693
I79
asg736
(lp2694
I68
asg1402
(lp2695
I132
asg2159
(lp2696
I211
asg1758
(lp2697
I169
asg701
(lp2698
I65
asg540
(lp2699
I47
asg675
(lp2700
I63
asg288
(lp2701
I21
asg2007
(lp2702
I194
asg1294
(lp2703
I122
asg2256
(lp2704
I222
asg2018
(lp2705
I195
asg845
(lp2706
I78
asg1625
(lp2707
I157
asg1564
(lp2708
I149
asg1010
(lp2709
I93
asg559
(lp2710
I49
asg425
(lp2711
I36
asg2419
(lp2712
I241
asg279
(lp2713
I20
asg895
(lp2714
I82
asg317
(lp2715
I24
asg994
(lp2716
I91
asg1600
(lp2717
I154
aI159
asg396
(lp2718
I32
asg868
(lp2719
I80
asg189
(lp2720
I11
asg839
(lp2721
I77
asg2340
(lp2722
I232
asg723
(lp2723
I67
asg1830
(lp2724
I175
asg474
(lp2725
I40
asg926
(lp2726
I85
asg453
(lp2727
I39
asg1890
(lp2728
I182
asg1418
(lp2729
I134
asg340
(lp2730
I27
asg2065
(lp2731
I200
asg1715
(lp2732
I165
asg70
(lp2733
I3
asg6
(lp2734
I0
asg2367
(lp2735
I235
asg919
(lp2736
I84
asg1252
(lp2737
I118
asg153
(lp2738
I9
asg363
(lp2739
I28
asg1020
(lp2740
I94
asg2322
(lp2741
I230
asg2145
(lp2742
I209
asg1345
(lp2743
I127
asg1983
(lp2744
I192
asg40
(lp2745
I1
asg437
(lp2746
I37
asg1919
(lp2747
I184
asg1532
(lp2748
I146
asg1556
(lp2749
I148
asg624
(lp2750
I56
asg2288
(lp2751
I226
asg1675
(lp2752
I162
asg1171
(lp2753
I111
asg2382
(lp2754
I237
asg654
(lp2755
I60
asg296
(lp2756
I22
asg546
(lp2757
I48
asg2296
(lp2758
I227
asg2106
(lp2759
I204
asg94
(lp2760
I5
asg2202
(lp2761
I215
asg336
(lp2762
I26
asg1780
(lp2763
I171
asg881
(lp2764
I81
asg1048
(lp2765
I97
asg597
(lp2766
I53
asg1946
(lp2767
I188
assg80
(dp2768
g2238
(lp2769
I221
asg1791
(lp2770
I172
asg95
(lp2771
I5
asg2247
(lp2772
I222
aI224
aI228
aI238
aI241
asg81
(lp2773
I4
asg1040
(lp2774
I96
aI168
asg750
(lp2775
I70
assg18
(dp2776
g2384
(lp2777
I237
asg503
(lp2778
I43
asg1302
(lp2779
I123
asg2095
(lp2780
I203
asg19
(lp2781
I0
asg145
(lp2782
I8
asg657
(lp2783
I60
aI131
aI235
asg2010
(lp2784
I194
asg1868
(lp2785
I180
asg2042
(lp2786
I197
asg102
(lp2787
I5
asg1925
(lp2788
I185
asg2215
(lp2789
I217
asg2052
(lp2790
I198
asg240
(lp2791
I16
asg200
(lp2792
I12
asg1827
(lp2793
I175
asg1422
(lp2794
I134
asg825
(lp2795
I76
asg130
(lp2796
I7
aI10
aI14
aI25
aI33
aI34
aI39
aI50
aI57
aI58
aI62
aI79
aI80
aI82
aI86
aI87
aI96
aI101
aI127
aI158
aI160
aI169
aI179
aI187
aI192
aI200
aI208
aI211
aI220
aI221
aI224
aI225
aI230
aI234
aI241
asg435
(lp2797
I37
asg763
(lp2798
I71
asg160
(lp2799
I9
aI19
aI137
aI139
aI165
aI186
asg777
(lp2800
I72
asg2263
(lp2801
I223
asg1106
(lp2802
I103
aI105
aI106
aI196
asg1515
(lp2803
I144
aI151
asg1844
(lp2804
I177
asg2394
(lp2805
I238
asg51
(lp2806
I2
aI59
asg381
(lp2807
I30
asg2251
(lp2808
I222
asg1525
(lp2809
I145
asg1213
(lp2810
I114
asg470
(lp2811
I40
asg446
(lp2812
I38
aI228
asg316
(lp2813
I24
aI93
aI166
aI201
asg421
(lp2814
I35
asg523
(lp2815
I45
aI78
aI95
aI116
aI122
aI227
aI233
asg1561
(lp2816
I149
asg587
(lp2817
I52
aI161
aI163
aI164
aI181
aI184
aI204
aI212
asg210
(lp2818
I13
asg606
(lp2819
I54
asg615
(lp2820
I55
asg186
(lp2821
I11
aI49
aI70
aI83
aI88
aI89
aI124
aI135
aI168
aI199
aI206
aI240
asg1998
(lp2822
I193
asg743
(lp2823
I69
asg372
(lp2824
I29
aI31
aI41
aI46
aI63
aI91
aI99
aI109
aI111
aI121
aI136
aI148
aI150
aI171
aI172
aI178
aI205
aI207
aI209
aI232
aI239
asg428
(lp2825
I36
aI133
aI140
aI176
asg1399
(lp2826
I132
asg710
(lp2827
I66
asg250
(lp2828
I17
assg131
(dp2829
g973
(lp2830
I89
asg1139
(lp2831
I107
asg852
(lp2832
I78
asg690
(lp2833
I64
asg1950
(lp2834
I188
asg2096
(lp2835
I203
asg1976
(lp2836
I191
asg826
(lp2837
I76
asg471
(lp2838
I40
aI139
aI241
asg2395
(lp2839
I238
asg132
(lp2840
I7
asg1336
(lp2841
I126
asg1594
(lp2842
I153
aI154
asg1912
(lp2843
I184
asg1661
(lp2844
I160
asg1880
(lp2845
I181
asg1814
(lp2846
I174
asg834
(lp2847
I77
asg1165
(lp2848
I110
asg524
(lp2849
I45
asg1762
(lp2850
I169
asg1446
(lp2851
I137
asg2232
(lp2852
I220
asg2077
(lp2853
I201
asg1114
(lp2854
I104
asg1678
(lp2855
I162
asg1774
(lp2856
I170
asg2190
(lp2857
I214
asg753
(lp2858
I70
asg1902
(lp2859
I183
asg1649
(lp2860
I159
asg2030
(lp2861
I196
asg658
(lp2862
I60
asg997
(lp2863
I91
asg2359
(lp2864
I234
asg1089
(lp2865
I101
asg1828
(lp2866
I175
asg1357
(lp2867
I128
asg2335
(lp2868
I231
asg918
(lp2869
I84
asg929
(lp2870
I85
asg1750
(lp2871
I168
asg2325
(lp2872
I230
asg1097
(lp2873
I102
asg984
(lp2874
I90
aI204
asg2146
(lp2875
I209
asg734
(lp2876
I68
asg1280
(lp2877
I121
asg1642
(lp2878
I158
asg2216
(lp2879
I217
asg2412
(lp2880
I240
asg550
(lp2881
I48
asg1726
(lp2882
I166
asg1629
(lp2883
I157
asg569
(lp2884
I50
aI105
asg1107
(lp2885
I103
asg1712
(lp2886
I165
asg2302
(lp2887
I228
asg1232
(lp2888
I116
asg1379
(lp2889
I130
asg2246
(lp2890
I222
asg778
(lp2891
I72
asg2183
(lp2892
I213
asg885
(lp2893
I81
asg1078
(lp2894
I100
asg1553
(lp2895
I148
asg607
(lp2896
I54
asg1585
(lp2897
I152
aI155
aI156
asg1964
(lp2898
I190
asg1516
(lp2899
I144
asg2314
(lp2900
I229
asg872
(lp2901
I80
asg639
(lp2902
I58
asg2122
(lp2903
I206
asg1127
(lp2904
I106
asg2237
(lp2905
I221
asg1347
(lp2906
I127
asg1188
(lp2907
I112
assg54
(dp2908
g596
(lp2909
I53
asg2371
(lp2910
I235
asg2149
(lp2911
I209
asg201
(lp2912
I12
aI55
asg551
(lp2913
I48
asg1958
(lp2914
I189
asg1411
(lp2915
I133
asg1480
(lp2916
I140
asg2209
(lp2917
I216
asg2336
(lp2918
I231
asg1026
(lp2919
I94
asg1142
(lp2920
I107
asg1081
(lp2921
I100
asg699
(lp2922
I65
asg1969
(lp2923
I190
asg1043
(lp2924
I96
asg1650
(lp2925
I159
asg390
(lp2926
I31
asg1016
(lp2927
I93
asg838
(lp2928
I77
asg1193
(lp2929
I112
asg1305
(lp2930
I123
asg2165
(lp2931
I211
asg176
(lp2932
I10
asg958
(lp2933
I88
asg2315
(lp2934
I229
asg1987
(lp2935
I192
asg1595
(lp2936
I153
asg230
(lp2937
I15
asg608
(lp2938
I54
asg1156
(lp2939
I109
asg1272
(lp2940
I120
asg1242
(lp2941
I117
asg987
(lp2942
I90
asg1905
(lp2943
I183
asg2218
(lp2944
I217
asg2255
(lp2945
I222
asg1702
(lp2946
I164
asg2126
(lp2947
I206
asg504
(lp2948
I43
asg1836
(lp2949
I176
asg1620
(lp2950
I156
asg2193
(lp2951
I214
aI215
asg2349
(lp2952
I233
asg449
(lp2953
I38
asg1918
(lp2954
I184
asg976
(lp2955
I89
asg1204
(lp2956
I113
asg2221
(lp2957
I218
asg2185
(lp2958
I213
asg2295
(lp2959
I227
asg2360
(lp2960
I234
asg744
(lp2961
I69
asg211
(lp2962
I13
asg1224
(lp2963
I115
asg1503
(lp2964
I143
asg754
(lp2965
I70
asg2421
(lp2966
I241
asg906
(lp2967
I83
asg1488
(lp2968
I141
asg422
(lp2969
I35
asg2287
(lp2970
I226
asg2061
(lp2971
I199
asg384
(lp2972
I30
asg1090
(lp2973
I101
asg711
(lp2974
I66
asg264
(lp2975
I18
asg827
(lp2976
I76
asg1940
(lp2977
I187
asg525
(lp2978
I45
asg673
(lp2979
I62
asg648
(lp2980
I59
asg1895
(lp2981
I182
asg1670
(lp2982
I161
asg2264
(lp2983
I223
asg681
(lp2984
I63
asg1603
(lp2985
I154
asg2379
(lp2986
I236
asg1859
(lp2987
I179
asg2226
(lp2988
I219
asg2396
(lp2989
I238
asg115
(lp2990
I6
asg1797
(lp2991
I172
asg2089
(lp2992
I202
asg1952
(lp2993
I188
asg1806
(lp2994
I173
asg1128
(lp2995
I106
asg1519
(lp2996
I144
asg473
(lp2997
I40
asg1061
(lp2998
I98
asg1349
(lp2999
I127
asg1764
(lp3000
I169
asg409
(lp3001
I33
asg791
(lp3002
I73
asg1632
(lp3003
I157
asg324
(lp3004
I25
asg515
(lp3005
I44
asg588
(lp3006
I52
asg1149
(lp3007
I108
asg295
(lp3008
I22
asg1928
(lp3009
I185
asg558
(lp3010
I49
asg188
(lp3011
I11
asg220
(lp3012
I14
asg1575
(lp3013
I151
asg1293
(lp3014
I122
asg1846
(lp3015
I177
asg1536
(lp3016
I146
asg348
(lp3017
I27
asg2099
(lp3018
I203
asg436
(lp3019
I37
asg640
(lp3020
I58
asg1932
(lp3021
I186
asg1611
(lp3022
I155
asg1053
(lp3023
I97
asg2033
(lp3024
I196
asg2386
(lp3025
I237
asg460
(lp3026
I39
asg1752
(lp3027
I168
asg2140
(lp3028
I208
asg253
(lp3029
I17
asg998
(lp3030
I91
asg1528
(lp3031
I145
asg1785
(lp3032
I171
asg1853
(lp3033
I178
asg2305
(lp3034
I228
asg1384
(lp3035
I130
asg2108
(lp3036
I204
asg1316
(lp3037
I124
asg2328
(lp3038
I230
asg1390
(lp3039
I131
asg1448
(lp3040
I137
asg2242
(lp3041
I221
asg403
(lp3042
I32
asg1563
(lp3043
I149
asg278
(lp3044
I20
asg1166
(lp3045
I110
asg1978
(lp3046
I191
asg1282
(lp3047
I121
asg1714
(lp3048
I165
asg623
(lp3049
I56
asg1099
(lp3050
I102
aI103
aI105
asg1066
(lp3051
I99
asg864
(lp3052
I79
asg2279
(lp3053
I225
asg873
(lp3054
I80
asg1679
(lp3055
I162
asg1739
(lp3056
I167
asg55
(lp3057
I2
asg2003
(lp3058
I193
asg373
(lp3059
I29
aI136
asg1174
(lp3060
I111
asg1467
(lp3061
I139
asg2069
(lp3062
I200
asg576
(lp3063
I51
asg1569
(lp3064
I150
asg1366
(lp3065
I129
asg1818
(lp3066
I174
asg930
(lp3067
I85
asg2275
(lp3068
I224
asg951
(lp3069
I87
asg1775
(lp3070
I170
asg2172
(lp3071
I212
asg1424
(lp3072
I134
asg429
(lp3073
I36
asg2156
(lp3074
I210
asg2021
(lp3075
I195
asg163
(lp3076
I9
asg2414
(lp3077
I240
asg898
(lp3078
I82
asg1869
(lp3079
I180
asg2343
(lp3080
I232
asg1728
(lp3081
I166
asg2054
(lp3082
I198
asg1115
(lp3083
I104
asg888
(lp3084
I81
asg855
(lp3085
I78
asg148
(lp3086
I8
asg286
(lp3087
I21
asg1883
(lp3088
I181
asg1586
(lp3089
I152
asg105
(lp3090
I5
asg1662
(lp3091
I160
asg2044
(lp3092
I197
asg494
(lp3093
I42
asg783
(lp3094
I72
asg1688
(lp3095
I163
asg1214
(lp3096
I114
asg1327
(lp3097
I125
asg2079
(lp3098
I201
asg414
(lp3099
I34
asg1360
(lp3100
I128
assg56
(dp3101
g1483
(lp3102
I141
asg284
(lp3103
I21
asg2085
(lp3104
I202
asg171
(lp3105
I10
asg349
(lp3106
I27
asg831
(lp3107
I77
asg149
(lp3108
I8
asg1419
(lp3109
I134
asg740
(lp3110
I69
asg2066
(lp3111
I200
asg1696
(lp3112
I164
asg1337
(lp3113
I126
asg945
(lp3114
I87
asg2405
(lp3115
I239
asg2012
(lp3116
I194
asg164
(lp3117
I9
asg969
(lp3118
I89
asg97
(lp3119
I5
asg1850
(lp3120
I178
asg1199
(lp3121
I113
asg2151
(lp3122
I210
asg1995
(lp3123
I193
asg1500
(lp3124
I143
asg325
(lp3125
I25
asg1776
(lp3126
I170
asg2168
(lp3127
I212
asg2420
(lp3128
I241
asg1233
(lp3129
I116
asg1210
(lp3130
I114
asg57
(lp3131
I2
aI59
asg1533
(lp3132
I146
asg2049
(lp3133
I198
asg1012
(lp3134
I93
asg1545
(lp3135
I147
asg667
(lp3136
I61
asg2277
(lp3137
I225
asg655
(lp3138
I60
asg2147
(lp3139
I209
asg1667
(lp3140
I161
asg1444
(lp3141
I137
asg2269
(lp3142
I224
asg896
(lp3143
I82
asg443
(lp3144
I38
asg1389
(lp3145
I131
asg1793
(lp3146
I172
asg1475
(lp3147
I140
asg2368
(lp3148
I235
asg1807
(lp3149
I173
asg1639
(lp3150
I158
asg455
(lp3151
I39
asg2180
(lp3152
I213
asg202
(lp3153
I12
aI55
asg1860
(lp3154
I179
asg2260
(lp3155
I223
asg404
(lp3156
I32
asg848
(lp3157
I78
asg1733
(lp3158
I167
asg505
(lp3159
I43
asg1747
(lp3160
I168
asg939
(lp3161
I86
asg2120
(lp3162
I206
asg511
(lp3163
I44
asg1462
(lp3164
I139
asg430
(lp3165
I36
asg633
(lp3166
I57
asg2239
(lp3167
I221
asg2161
(lp3168
I211
asg2415
(lp3169
I240
asg2376
(lp3170
I236
asg1263
(lp3171
I119
asg2135
(lp3172
I207
assg121
(dp3173
g1132
(lp3174
I107
asg686
(lp3175
I64
aI191
aI203
asg1549
(lp3176
I148
asg2144
(lp3177
I209
asg1899
(lp3178
I183
asg1823
(lp3179
I175
asg565
(lp3180
I50
aI105
asg653
(lp3181
I60
asg1963
(lp3182
I190
asg830
(lp3183
I77
asg466
(lp3184
I40
aI58
aI139
aI241
asg1162
(lp3185
I110
asg1229
(lp3186
I116
asg2074
(lp3187
I201
asg1332
(lp3188
I126
asg1812
(lp3189
I174
asg879
(lp3190
I81
asg1945
(lp3191
I188
asg2321
(lp3192
I230
asg844
(lp3193
I78
asg730
(lp3194
I68
asg1276
(lp3195
I121
asg1637
(lp3196
I158
asg2409
(lp3197
I240
asg545
(lp3198
I48
asg749
(lp3199
I70
aI91
asg2355
(lp3200
I234
asg2025
(lp3201
I196
asg520
(lp3202
I45
asg1875
(lp3203
I181
asg1441
(lp3204
I137
asg925
(lp3205
I85
asg772
(lp3206
I72
asg1094
(lp3207
I102
asg1674
(lp3208
I162
asg123
(lp3209
I7
aI80
aI90
aI204
asg1073
(lp3210
I100
asg602
(lp3211
I54
asg2299
(lp3212
I228
asg1580
(lp3213
I152
aI155
aI156
asg2245
(lp3214
I222
asg2310
(lp3215
I229
asg1658
(lp3216
I160
asg1180
(lp3217
I112
asg1103
(lp3218
I103
asg2117
(lp3219
I206
asg1354
(lp3220
I128
asg1911
(lp3221
I184
asg1344
(lp3222
I127
asg2333
(lp3223
I231
asg2177
(lp3224
I213
asg1757
(lp3225
I169
asg821
(lp3226
I76
asg2213
(lp3227
I217
asg1770
(lp3228
I170
asg1647
(lp3229
I159
asg1510
(lp3230
I144
asg1590
(lp3231
I153
aI154
asg1720
(lp3232
I166
asg1624
(lp3233
I157
asg1086
(lp3234
I101
asg2189
(lp3235
I214
aI238
asg965
(lp3236
I89
aI165
aI168
aI221
asg1124
(lp3237
I106
asg914
(lp3238
I84
asg1374
(lp3239
I130
aI220
asg1111
(lp3240
I104
assg9
(dp3241
g1461
(lp3242
I139
aI201
asg1310
(lp3243
I124
asg1075
(lp3244
I100
asg329
(lp3245
I26
aI135
aI217
asg1923
(lp3246
I185
asg2160
(lp3247
I211
asg1266
(lp3248
I120
asg968
(lp3249
I89
asg1937
(lp3250
I187
asg125
(lp3251
I7
aI163
asg1913
(lp3252
I184
asg944
(lp3253
I87
asg1236
(lp3254
I117
asg2248
(lp3255
I222
asg1800
(lp3256
I173
asg860
(lp3257
I79
aI141
aI183
aI197
aI207
asg1135
(lp3258
I107
aI134
aI215
aI233
asg1198
(lp3259
I113
asg1708
(lp3260
I165
asg2119
(lp3261
I206
asg1876
(lp3262
I181
asg259
(lp3263
I18
aI182
aI190
aI213
asg454
(lp3264
I39
asg1288
(lp3265
I122
asg1257
(lp3266
I119
aI188
asg1781
(lp3267
I171
aI176
aI202
aI224
aI239
asg1792
(lp3268
I172
asg1376
(lp3269
I130
aI149
aI175
aI210
aI216
asg1856
(lp3270
I179
asg981
(lp3271
I90
asg1626
(lp3272
I157
asg1049
(lp3273
I97
asg2300
(lp3274
I228
asg788
(lp3275
I73
aI128
asg184
(lp3276
I11
asg2167
(lp3277
I212
asg2093
(lp3278
I203
asg236
(lp3279
I16
asg155
(lp3280
I9
asg10
(lp3281
I0
aI169
aI240
asg774
(lp3282
I72
asg355
(lp3283
I28
asg1695
(lp3284
I164
asg1031
(lp3285
I95
aI125
aI174
aI237
asg1540
(lp3286
I147
asg1954
(lp3287
I189
asg883
(lp3288
I81
asg759
(lp3289
I71
asg1182
(lp3290
I112
asg397
(lp3291
I32
asg1511
(lp3292
I144
asg832
(lp3293
I77
asg377
(lp3294
I30
asg716
(lp3295
I67
asg341
(lp3296
I27
asg170
(lp3297
I10
asg1011
(lp3298
I93
asg676
(lp3299
I63
aI168
aI236
asg1395
(lp3300
I132
asg1666
(lp3301
I161
asg1550
(lp3302
I148
asg442
(lp3303
I38
asg1994
(lp3304
I193
asg2026
(lp3305
I196
asg1523
(lp3306
I145
asg1056
(lp3307
I98
asg1734
(lp3308
I167
asg141
(lp3309
I8
asg847
(lp3310
I78
aI121
asg1021
(lp3311
I94
asg1299
(lp3312
I123
asg795
(lp3313
I74
asg1443
(lp3314
I137
aI191
aI198
aI226
aI230
asg2057
(lp3315
I199
aI214
asg467
(lp3316
I40
assg11
(dp3317
g1592
(lp3318
I153
asg195
(lp3319
I12
aI31
aI55
aI91
aI149
asg2261
(lp3320
I223
asg481
(lp3321
I41
asg63
(lp3322
I3
aI87
aI183
asg1104
(lp3323
I103
asg512
(lp3324
I44
asg849
(lp3325
I78
asg1794
(lp3326
I172
asg731
(lp3327
I68
asg1119
(lp3328
I105
asg1420
(lp3329
I134
asg2019
(lp3330
I195
asg2008
(lp3331
I194
asg313
(lp3332
I24
asg1583
(lp3333
I152
asg293
(lp3334
I22
asg1824
(lp3335
I175
asg566
(lp3336
I50
asg456
(lp3337
I39
asg935
(lp3338
I86
asg810
(lp3339
I75
aI114
aI218
asg717
(lp3340
I67
asg1618
(lp3341
I156
asg2357
(lp3342
I234
asg1801
(lp3343
I173
asg218
(lp3344
I14
asg2050
(lp3345
I198
asg237
(lp3346
I16
asg419
(lp3347
I35
asg823
(lp3348
I76
asg1278
(lp3349
I121
asg2067
(lp3350
I200
asg490
(lp3351
I42
asg1865
(lp3352
I180
asg1601
(lp3353
I154
asg1183
(lp3354
I112
asg1076
(lp3355
I100
asg1772
(lp3356
I170
asg1087
(lp3357
I101
asg1125
(lp3358
I106
asg1965
(lp3359
I190
asg2270
(lp3360
I224
asg2132
(lp3361
I207
asg98
(lp3362
I5
asg412
(lp3363
I34
asg1221
(lp3364
I115
asg2410
(lp3365
I240
asg1095
(lp3366
I102
asg12
(lp3367
I0
asg1948
(lp3368
I188
asg618
(lp3369
I56
asg1300
(lp3370
I123
asg343
(lp3371
I27
aI141
asg1311
(lp3372
I124
asg1476
(lp3373
I140
asg356
(lp3374
I28
asg1022
(lp3375
I94
asg1267
(lp3376
I120
aI185
aI187
aI193
asg1163
(lp3377
I110
asg2292
(lp3378
I227
asg260
(lp3379
I18
asg47
(lp3380
I2
aI49
aI51
aI53
aI59
aI61
aI64
aI70
aI73
aI79
aI82
aI85
aI89
aI95
aI111
aI113
aI125
aI127
aI132
aI137
aI142
aI146
aI147
aI151
aI158
aI159
aI196
aI197
aI199
aI219
aI236
asg82
(lp3381
I4
aI231
asg330
(lp3382
I26
asg2284
(lp3383
I226
asg903
(lp3384
I83
aI202
asg398
(lp3385
I32
asg536
(lp3386
I47
asg468
(lp3387
I40
asg426
(lp3388
I36
asg1136
(lp3389
I107
asg1512
(lp3390
I144
asg603
(lp3391
I54
asg2199
(lp3392
I215
asg1841
(lp3393
I177
asg378
(lp3394
I30
asg915
(lp3395
I84
aI122
aI176
aI233
asg1230
(lp3396
I116
asg2312
(lp3397
I229
asg1609
(lp3398
I155
asg1914
(lp3399
I184
asg157
(lp3400
I9
asg1333
(lp3401
I126
asg2392
(lp3402
I238
asg126
(lp3403
I7
aI8
aI11
aI38
aI45
aI62
aI81
aI96
aI98
aI128
aI136
aI148
aI150
aI157
aI167
aI168
aI169
aI174
aI182
aI201
aI203
aI205
aI206
aI209
aI213
aI220
aI230
aI232
aI241
asg113
(lp3404
I6
asg208
(lp3405
I13
aI58
aI163
asg303
(lp3406
I23
asg1050
(lp3407
I97
asg407
(lp3408
I33
asg35
(lp3409
I1
asg1722
(lp3410
I166
asg1377
(lp3411
I130
asg322
(lp3412
I25
asg1112
(lp3413
I104
asg1237
(lp3414
I117
asg249
(lp3415
I17
asg1003
(lp3416
I92
asg547
(lp3417
I48
asg1154
(lp3418
I109
asg1697
(lp3419
I164
asg1984
(lp3420
I192
aI216
asg500
(lp3421
I43
asg2240
(lp3422
I221
asg584
(lp3423
I52
asg2369
(lp3424
I235
asg1248
(lp3425
I118
asg1258
(lp3426
I119
aI204
aI237
asg1463
(lp3427
I139
asg707
(lp3428
I66
asg1660
(lp3429
I160
asg1709
(lp3430
I165
asg370
(lp3431
I29
aI99
aI133
aI135
assg20
(dp3432
g2138
(lp3433
I208
asg379
(lp3434
I30
asg241
(lp3435
I16
asg1408
(lp3436
I133
asg158
(lp3437
I9
aI38
aI168
asg972
(lp3438
I89
aI157
aI195
asg52
(lp3439
I2
aI43
aI49
aI59
aI69
aI73
aI75
aI82
aI88
aI99
aI113
aI114
aI131
aI132
aI134
aI135
aI141
aI146
aI147
aI161
aI171
aI194
aI202
aI207
aI219
aI222
aI232
aI236
aI239
asg622
(lp3440
I56
aI217
asg798
(lp3441
I74
aI191
asg764
(lp3442
I71
asg665
(lp3443
I61
aI199
asg1477
(lp3444
I140
asg1324
(lp3445
I125
asg1698
(lp3446
I164
asg357
(lp3447
I28
asg1501
(lp3448
I143
asg142
(lp3449
I8
aI36
aI57
aI63
aI109
aI178
aI181
aI235
asg2162
(lp3450
I211
asg927
(lp3451
I85
asg1172
(lp3452
I111
asg276
(lp3453
I20
asg1996
(lp3454
I193
aI240
asg196
(lp3455
I12
aI241
asg323
(lp3456
I25
aI100
asg1238
(lp3457
I117
asg67
(lp3458
I3
aI18
aI22
aI26
aI31
aI39
aI53
aI67
aI79
aI84
aI86
aI94
aI95
aI97
aI98
aI106
aI108
aI116
aI118
aI119
aI122
aI126
aI137
aI138
aI142
aI144
aI148
aI150
aI156
aI158
aI167
aI174
aI175
aI177
aI182
aI183
aI201
aI205
aI213
aI214
aI215
aI220
aI223
aI226
aI230
aI233
aI234
asg884
(lp3459
I81
aI110
aI120
aI169
asg1312
(lp3460
I124
asg2027
(lp3461
I196
asg399
(lp3462
I32
asg103
(lp3463
I5
asg344
(lp3464
I27
asg697
(lp3465
I65
asg530
(lp3466
I46
asg227
(lp3467
I15
asg21
(lp3468
I0
asg491
(lp3469
I42
asg548
(lp3470
I48
aI60
asg39
(lp3471
I1
aI7
aI14
aI33
aI34
aI35
aI41
aI51
aI62
aI78
aI83
aI87
aI127
aI162
aI185
aI187
aI200
aI203
aI206
aI209
aI216
aI221
aI238
asg1949
(lp3472
I188
aI210
asg521
(lp3473
I45
aI189
asg1187
(lp3474
I112
assg87
(dp3475
g2327
(lp3476
I230
asg2178
(lp3477
I213
asg1348
(lp3478
I127
asg362
(lp3479
I28
aI85
aI91
aI111
aI115
aI124
aI135
aI139
aI163
aI164
aI165
aI169
aI172
aI175
aI178
aI204
aI208
asg966
(lp3480
I89
asg782
(lp3481
I72
asg307
(lp3482
I23
asg541
(lp3483
I47
asg1894
(lp3484
I182
asg988
(lp3485
I90
asg1417
(lp3486
I134
asg496
(lp3487
I42
asg589
(lp3488
I52
asg2366
(lp3489
I235
asg2342
(lp3490
I232
asg287
(lp3491
I21
asg894
(lp3492
I82
asg1262
(lp3493
I119
asg1383
(lp3494
I130
aI132
aI133
asg1454
(lp3495
I138
asg483
(lp3496
I41
asg659
(lp3497
I60
asg117
(lp3498
I6
asg1884
(lp3499
I181
asg391
(lp3500
I31
aI68
aI92
aI151
aI195
asg1192
(lp3501
I112
asg1391
(lp3502
I131
asg702
(lp3503
I65
aI71
asg2080
(lp3504
I201
asg374
(lp3505
I29
asg1663
(lp3506
I160
asg88
(lp3507
I4
asg1784
(lp3508
I171
asg1988
(lp3509
I192
asg1367
(lp3510
I129
asg177
(lp3511
I10
aI76
aI128
aI136
aI155
aI180
asg960
(lp3512
I88
asg938
(lp3513
I86
asg221
(lp3514
I14
aI35
aI62
aI84
aI93
aI97
aI122
aI144
aI146
aI162
aI168
aI176
aI197
aI207
aI238
asg2274
(lp3515
I224
asg1080
(lp3516
I100
asg2002
(lp3517
I193
asg1251
(lp3518
I118
asg2011
(lp3519
I194
asg1471
(lp3520
I140
asg632
(lp3521
I57
asg2404
(lp3522
I239
asg814
(lp3523
I75
asg889
(lp3524
I81
assg73
(dp3525
g1341
(lp3526
I127
asg75
(lp3527
I4
aI14
aI28
aI35
aI41
aI57
aI62
aI84
aI85
aI86
aI88
aI89
aI90
aI91
aI93
aI97
aI111
aI115
aI119
aI122
aI124
aI135
aI139
aI144
aI146
aI162
aI163
aI164
aI165
aI168
aI169
aI172
aI175
aI176
aI178
aI182
aI197
aI204
aI207
aI208
aI238
asg580
(lp3528
I52
asg955
(lp3529
I88
aI100
asg651
(lp3530
I60
asg1245
(lp3531
I118
asg300
(lp3532
I23
asg1470
(lp3533
I140
asg534
(lp3534
I47
asg892
(lp3535
I82
asg1992
(lp3536
I193
aI201
asg1981
(lp3537
I192
asg1363
(lp3538
I129
asg110
(lp3539
I6
asg76
(lp3540
I4
aI10
aI29
aI31
aI57
aI68
aI72
aI76
aI92
aI112
aI128
aI136
aI138
aI151
aI155
aI180
aI194
aI195
asg2318
(lp3541
I230
asg488
(lp3542
I42
asg2363
(lp3543
I235
asg695
(lp3544
I65
aI71
aI112
asg283
(lp3545
I21
asg1654
(lp3546
I160
aI224
asg933
(lp3547
I86
aI130
aI131
aI132
aI133
aI213
asg2400
(lp3548
I239
asg806
(lp3549
I75
aI81
aI89
aI134
aI171
aI232
asg1873
(lp3550
I181
assg267
(dp3551
g311
(lp3552
I24
aI45
aI49
aI158
asg1659
(lp3553
I160
asg582
(lp3554
I52
aI75
aI91
asg267
(lp3555
I19
aI82
aI171
aI229
assg27
(dp3556
g943
(lp3557
I87
asg235
(lp3558
I16
asg2422
(lp3559
I241
asg342
(lp3560
I27
aI181
aI196
aI202
asg156
(lp3561
I9
aI166
aI191
asg62
(lp3562
I3
aI91
aI235
asg274
(lp3563
I20
aI24
aI188
asg869
(lp3564
I80
aI102
aI106
asg809
(lp3565
I75
aI78
aI170
aI204
aI205
aI210
aI228
asg79
(lp3566
I4
aI7
aI36
aI42
aI50
aI53
aI61
aI64
aI66
aI81
aI85
aI95
aI100
aI103
aI104
aI128
aI132
aI142
aI164
aI172
aI176
aI187
aI192
aI207
aI217
aI225
asg583
(lp3567
I52
aI118
asg34
(lp3568
I1
aI2
aI18
aI25
aI30
aI39
aI48
aI49
aI59
aI82
aI143
aI145
aI146
aI183
aI206
aI208
aI215
asg1133
(lp3569
I107
asg112
(lp3570
I6
aI34
aI38
aI40
aI68
aI77
aI94
aI108
aI116
aI125
aI129
aI133
aI137
aI165
aI173
aI194
aI198
aI229
aI232
asg225
(lp3571
I15
aI21
aI28
aI41
aI44
aI45
aI71
aI76
aI86
aI90
aI98
aI115
aI141
aI147
aI153
aI163
aI169
aI171
aI175
aI184
aI186
aI190
aI197
aI199
aI201
aI216
aI219
aI222
aI231
aI237
aI238
aI239
asg956
(lp3572
I88
aI140
aI158
aI234
asg182
(lp3573
I11
aI13
aI22
aI26
aI29
aI31
aI32
aI33
aI56
aI58
aI60
aI65
aI69
aI73
aI79
aI83
aI84
aI89
aI99
aI110
aI111
aI112
aI113
aI117
aI120
aI121
aI122
aI123
aI126
aI127
aI136
aI149
aI155
aI160
aI167
aI168
aI174
aI178
aI180
aI185
aI209
aI221
aI224
asg178
(lp3574
I10
aI119
aI189
aI214
aI230
aI236
asg28
(lp3575
I0
aI8
aI19
aI37
aI46
aI47
aI67
aI177
aI203
aI218
asg248
(lp3576
I17
aI227
asg302
(lp3577
I23
aI74
aI93
aI97
aI130
aI131
aI139
aI157
aI200
aI212
aI213
aI226
aI240
asg106
(lp3578
I5
aI12
aI14
aI35
aI51
aI54
aI55
aI57
aI62
aI63
aI70
aI72
aI92
aI96
aI101
aI105
aI109
aI114
aI124
aI134
aI135
aI144
aI148
aI150
aI151
aI152
aI154
aI156
aI159
aI161
aI162
aI179
aI182
aI193
aI211
aI220
aI223
aI233
assg13
(dp3579
g1877
(lp3580
I181
asg646
(lp3581
I59
asg14
(lp3582
I0
asg314
(lp3583
I24
asg1685
(lp3584
I163
asg1966
(lp3585
I190
asg811
(lp3586
I75
asg1184
(lp3587
I112
asg2111
(lp3588
I205
asg970
(lp3589
I89
asg1032
(lp3590
I95
asg1825
(lp3591
I175
asg1249
(lp3592
I118
asg529
(lp3593
I46
asg567
(lp3594
I50
asg1551
(lp3595
I148
asg2230
(lp3596
I220
asg2249
(lp3597
I222
asg304
(lp3598
I23
asg1322
(lp3599
I125
asg331
(lp3600
I26
asg1748
(lp3601
I168
asg732
(lp3602
I68
asg2293
(lp3603
I227
asg1842
(lp3604
I177
asg1541
(lp3605
I147
asg1396
(lp3606
I132
asg1259
(lp3607
I119
asg796
(lp3608
I74
asg619
(lp3609
I56
asg1146
(lp3610
I108
asg687
(lp3611
I64
asg1452
(lp3612
I138
asg760
(lp3613
I71
asg261
(lp3614
I18
asg48
(lp3615
I2
asg1137
(lp3616
I107
asg1268
(lp3617
I120
asg718
(lp3618
I67
asg172
(lp3619
I10
asg269
(lp3620
I19
asg1492
(lp3621
I142
asg36
(lp3622
I1
asg127
(lp3623
I7
asg850
(lp3624
I78
asg1723
(lp3625
I166
asg1429
(lp3626
I135
asg1640
(lp3627
I158
asg480
(lp3628
I41
asg1004
(lp3629
I92
asg1735
(lp3630
I167
asg946
(lp3631
I87
asg64
(lp3632
I3
asg238
(lp3633
I16
asg1974
(lp3634
I191
asg936
(lp3635
I86
asg1334
(lp3636
I126
asg99
(lp3637
I5
asg513
(lp3638
I44
asg83
(lp3639
I4
asg114
(lp3640
I6
asg1815
(lp3641
I174
assg84
(dp3642
g2252
(lp3643
I222
asg1041
(lp3644
I96
asg95
(lp3645
I5
asg2241
(lp3646
I221
asg85
(lp3647
I4
asg1777
(lp3648
I172
aI174
aI175
aI176
aI182
aI184
aI185
aI190
aI198
aI199
aI202
aI204
aI208
aI209
aI211
aI214
aI226
aI227
aI229
aI238
assg15
(dp3649
g101
(lp3650
I5
asg905
(lp3651
I83
aI111
aI137
aI154
asg720
(lp3652
I67
aI100
asg2182
(lp3653
I213
asg2207
(lp3654
I216
asg762
(lp3655
I71
aI123
asg17
(lp3656
I0
aI16
aI27
asg1761
(lp3657
I169
asg1212
(lp3658
I114
asg983
(lp3659
I90
asg1514
(lp3660
I144
asg1186
(lp3661
I112
asg752
(lp3662
I70
aI125
asg434
(lp3663
I37
asg198
(lp3664
I12
aI48
aI50
aI55
aI57
aI60
aI65
aI77
aI85
aI97
aI101
aI102
aI103
aI104
aI105
aI106
aI117
aI140
asg445
(lp3665
I38
aI161
aI162
aI163
aI164
aI168
aI170
aI171
aI174
aI175
aI176
aI177
aI179
aI182
aI184
aI185
aI190
aI191
aI193
aI198
aI199
aI200
aI202
aI204
aI206
aI207
aI208
aI209
aI211
aI212
aI214
aI215
aI217
aI219
aI220
aI223
aI224
aI225
aI226
aI227
aI228
aI229
aI231
aI232
aI234
aI235
aI236
aI237
aI238
aI240
asg129
(lp3666
I7
asg538
(lp3667
I47
asg586
(lp3668
I52
asg709
(lp3669
I66
asg1494
(lp3670
I142
asg2324
(lp3671
I230
asg50
(lp3672
I2
aI51
aI59
aI74
aI79
aI82
aI124
aI126
aI135
aI143
aI149
asg1852
(lp3673
I178
asg1058
(lp3674
I98
asg871
(lp3675
I80
aI88
aI118
aI159
asg38
(lp3676
I1
aI67
aI89
aI107
aI109
aI128
aI139
aI145
aI148
aI150
aI156
asg1879
(lp3677
I181
asg1711
(lp3678
I165
asg2347
(lp3679
I233
asg1803
(lp3680
I173
asg199
(lp3681
I12
aI13
aI14
aI53
aI54
aI55
aI60
aI62
asg229
(lp3682
I15
asg1290
(lp3683
I122
asg678
(lp3684
I63
asg1535
(lp3685
I146
asg502
(lp3686
I43
aI44
aI45
asg1485
(lp3687
I141
aI147
asg1628
(lp3688
I157
asg1398
(lp3689
I132
asg1867
(lp3690
I180
asg252
(lp3691
I17
aI18
aI19
aI20
aI21
aI22
aI24
aI27
aI30
aI31
aI32
aI34
aI35
asg1148
(lp3692
I108
aI222
asg1201
(lp3693
I113
asg2029
(lp3694
I196
aI203
asg605
(lp3695
I54
aI57
aI58
aI60
asg2041
(lp3696
I197
asg689
(lp3697
I64
asg1725
(lp3698
I166
aI167
aI183
aI187
aI194
aI195
aI205
aI239
asg621
(lp3699
I56
aI61
asg1986
(lp3700
I192
asg333
(lp3701
I26
aI36
asg1223
(lp3702
I115
asg1931
(lp3703
I186
aI189
asg306
(lp3704
I23
aI28
aI29
aI33
aI136
asg813
(lp3705
I75
aI134
asg557
(lp3706
I49
aI155
asg742
(lp3707
I69
aI73
aI78
aI93
aI94
aI99
aI119
aI127
aI151
aI153
asg2076
(lp3708
I201
asg493
(lp3709
I42
asg1410
(lp3710
I133
asg69
(lp3711
I3
aI68
aI76
aI86
aI87
aI92
aI120
aI121
aI138
aI158
asg917
(lp3712
I84
aI95
asg2153
(lp3713
I210
asg776
(lp3714
I72
aI110
aI116
aI130
asg144
(lp3715
I8
aI9
aI10
aI11
aI39
aI40
aI41
asg1365
(lp3716
I129
aI152
asg996
(lp3717
I91
assg25
(dp3718
g135
(lp3719
I7
aI8
aI21
aI27
aI29
aI32
aI41
aI51
aI61
aI63
aI64
aI71
aI73
aI80
aI81
aI82
aI84
aI85
aI86
aI89
aI94
aI95
aI97
aI101
aI103
aI104
aI106
aI108
aI109
aI110
aI111
aI113
aI115
aI119
aI120
aI121
aI126
aI127
aI132
aI133
aI136
aI137
aI138
aI144
aI145
aI146
aI148
aI150
aI152
aI153
aI154
aI156
aI158
aI159
aI162
aI164
aI169
aI171
aI176
aI178
aI182
aI187
aI197
aI198
aI207
aI209
aI212
aI213
aI216
aI219
aI229
aI232
aI237
aI239
asg1487
(lp3720
I141
asg26
(lp3721
I0
asg1479
(lp3722
I140
asg1382
(lp3723
I130
asg1191
(lp3724
I112
asg1499
(lp3725
I143
asg1042
(lp3726
I96
asg1727
(lp3727
I166
asg1904
(lp3728
I183
aI192
aI200
aI208
aI220
aI228
aI230
aI241
asg2273
(lp3729
I224
asg265
(lp3730
I18
asg53
(lp3731
I2
aI59
asg392
(lp3732
I31
aI105
aI129
aI134
aI186
asg1845
(lp3733
I177
asg837
(lp3734
I77
asg2088
(lp3735
I202
aI235
asg735
(lp3736
I68
aI91
asg1359
(lp3737
I128
asg2001
(lp3738
I193
asg1306
(lp3739
I123
asg1326
(lp3740
I125
asg1098
(lp3741
I102
asg1927
(lp3742
I185
aI234
asg781
(lp3743
I72
asg1544
(lp3744
I147
asg950
(lp3745
I87
aI100
aI142
aI155
aI157
asg104
(lp3746
I5
asg361
(lp3747
I28
aI38
aI174
aI189
aI204
aI211
aI221
aI223
asg801
(lp3748
I74
asg631
(lp3749
I57
asg2155
(lp3750
I210
asg2125
(lp3751
I206
asg222
(lp3752
I14
aI33
aI34
aI48
aI62
aI76
aI79
aI90
aI98
aI163
aI188
assg29
(dp3753
g692
(lp3754
I64
asg539
(lp3755
I47
asg41
(lp3756
I1
aI139
aI145
asg1570
(lp3757
I150
asg682
(lp3758
I63
asg1520
(lp3759
I144
asg485
(lp3760
I41
asg2351
(lp3761
I233
asg745
(lp3762
I69
asg1765
(lp3763
I169
asg2329
(lp3764
I230
asg1027
(lp3765
I94
asg1989
(lp3766
I192
asg874
(lp3767
I80
asg1150
(lp3768
I108
aI222
asg385
(lp3769
I30
asg2157
(lp3770
I210
asg784
(lp3771
I72
asg952
(lp3772
I87
asg1369
(lp3773
I129
aI152
asg1167
(lp3774
I110
aI116
asg856
(lp3775
I78
asg1906
(lp3776
I183
asg1557
(lp3777
I148
asg1385
(lp3778
I130
asg308
(lp3779
I23
aI29
aI33
aI136
asg1425
(lp3780
I134
asg1680
(lp3781
I162
asg712
(lp3782
I66
asg2113
(lp3783
I205
asg660
(lp3784
I60
asg1412
(lp3785
I133
asg213
(lp3786
I13
asg1729
(lp3787
I166
asg179
(lp3788
I10
aI11
asg297
(lp3789
I22
asg2210
(lp3790
I216
asg816
(lp3791
I75
asg899
(lp3792
I82
asg768
(lp3793
I71
aI123
asg591
(lp3794
I52
asg255
(lp3795
I17
aI18
aI24
aI31
aI32
aI34
aI35
asg1403
(lp3796
I132
asg1870
(lp3797
I180
asg1612
(lp3798
I155
asg1082
(lp3799
I100
asg137
(lp3800
I7
asg1854
(lp3801
I178
asg1144
(lp3802
I107
aI128
asg1643
(lp3803
I158
asg2082
(lp3804
I201
asg1295
(lp3805
I122
asg516
(lp3806
I44
asg1808
(lp3807
I173
asg1489
(lp3808
I141
aI147
asg1062
(lp3809
I98
asg2013
(lp3810
I194
aI195
aI239
asg1017
(lp3811
I93
aI119
aI127
aI151
aI153
asg495
(lp3812
I42
asg1651
(lp3813
I159
asg1194
(lp3814
I112
asg1006
(lp3815
I92
asg977
(lp3816
I89
asg1283
(lp3817
I121
asg940
(lp3818
I86
aI120
asg150
(lp3819
I8
asg337
(lp3820
I26
asg577
(lp3821
I51
aI79
asg1504
(lp3822
I143
asg1740
(lp3823
I167
asg1934
(lp3824
I186
asg1847
(lp3825
I177
asg908
(lp3826
I83
asg30
(lp3827
I0
asg71
(lp3828
I3
asg2035
(lp3829
I196
asg920
(lp3830
I84
aI95
asg1959
(lp3831
I189
asg2045
(lp3832
I197
asg1716
(lp3833
I165
asg999
(lp3834
I91
asg1777
(lp3835
I170
aI174
aI176
aI185
aI190
aI193
aI198
aI206
aI207
aI208
aI209
aI217
aI219
aI220
aI223
aI225
aI226
aI227
aI229
aI234
aI237
aI240
asg58
(lp3836
I2
aI59
asg1496
(lp3837
I142
asg1338
(lp3838
I126
asg792
(lp3839
I73
asg959
(lp3840
I88
asg1175
(lp3841
I111
aI137
asg1633
(lp3842
I157
asg803
(lp3843
I74
aI149
asg1215
(lp3844
I114
asg989
(lp3845
I90
asg1205
(lp3846
I113
asg1068
(lp3847
I99
asg1886
(lp3848
I181
asg1157
(lp3849
I109
aI156
asg438
(lp3850
I37
asg1537
(lp3851
I146
asg634
(lp3852
I57
asg724
(lp3853
I67
asg107
(lp3854
I5
asg1689
(lp3855
I163
aI179
asg642
(lp3856
I58
asg431
(lp3857
I36
asg231
(lp3858
I15
asg364
(lp3859
I28
asg2372
(lp3860
I235
asg506
(lp3861
I43
asg203
(lp3862
I12
aI55
asg450
(lp3863
I38
aI161
aI164
aI168
aI171
aI175
aI182
aI184
aI191
aI199
aI200
aI202
aI204
aI211
aI212
aI214
aI215
aI224
aI228
aI231
aI232
aI236
aI238
asg700
(lp3864
I65
aI85
aI97
aI101
aI102
aI103
aI104
aI117
aI140
asg1433
(lp3865
I135
asg737
(lp3866
I68
aI76
aI138
asg560
(lp3867
I49
asg245
(lp3868
I16
asg1253
(lp3869
I118
asg1941
(lp3870
I187
asg223
(lp3871
I14
aI62
asg1328
(lp3872
I125
asg1604
(lp3873
I154
asg461
(lp3874
I39
asg756
(lp3875
I70
asg272
(lp3876
I19
asg625
(lp3877
I56
asg1225
(lp3878
I115
asg527
(lp3879
I45
asg571
(lp3880
I50
asg2186
(lp3881
I213
asg280
(lp3882
I20
aI21
asg552
(lp3883
I48
aI105
aI106
asg350
(lp3884
I27
asg598
(lp3885
I53
asg610
(lp3886
I54
asg2101
(lp3887
I203
asg668
(lp3888
I61
asg165
(lp3889
I9
asg840
(lp3890
I77
asg1318
(lp3891
I124
asg475
(lp3892
I40
ass(dp3893
g92
(lp3894
(g168
I1
tp3895
a(g555
I1
tp3896
a(g479
I1
tp3897
a(g499
I4
tp3898
a(g794
I1
tp3899
a(g1617
I1
tp3900
a(g1287
I1
tp3901
a(g1591
I4
tp3902
a(g1473
I1
tp3903
a(g1973
I1
tp3904
a(g867
I1
tp3905
a(g880
I1
tp3906
a(g93
I1
tp3907
a(g2401
I1
tp3908
a(g1009
I1
tp3909
asg7
(lp3910
(g96
I1
tp3911
a(g8
I1
tp3912
a(g226
I19
tp3913
a(g1134
I1
tp3914
a(g369
I6
tp3915
a(g1582
I1
tp3916
a(g594
I5
tp3917
a(g1947
I1
tp3918
a(g207
I12
tp3919
a(g664
I4
tp3920
a(g696
I12
tp3921
a(g706
I4
tp3922
a(g312
I2
tp3923
a(g194
I26
tp3924
a(g846
I5
tp3925
a(g154
I11
tp3926
a(g275
I13
tp3927
a(g292
I5
tp3928
a(g321
I6
tp3929
a(g124
I12
tp3930
a(g882
I1
tp3931
a(g1676
I2
tp3932
a(g46
I7
tp3933
a(g1030
I4
tp3934
a(g629
I12
tp3935
a(g1746
I2
tp3936
a(g183
I3
tp3937
a(g1759
I1
tp3938
a(g1694
I1
tp3939
a(g1891
I1
tp3940
a(g268
I15
tp3941
a(g2198
I1
tp3942
a(g1209
I1
tp3943
asg15
(lp3944
(g101
I1
tp3945
a(g905
I4
tp3946
a(g720
I2
tp3947
a(g2182
I1
tp3948
a(g2207
I1
tp3949
a(g762
I2
tp3950
a(g17
I3
tp3951
a(g1761
I1
tp3952
a(g1212
I1
tp3953
a(g983
I1
tp3954
a(g1514
I1
tp3955
a(g1186
I1
tp3956
a(g752
I2
tp3957
a(g434
I1
tp3958
a(g198
I18
tp3959
a(g445
I50
tp3960
a(g129
I1
tp3961
a(g538
I1
tp3962
a(g586
I1
tp3963
a(g709
I1
tp3964
a(g1494
I1
tp3965
a(g2324
I1
tp3966
a(g50
I11
tp3967
a(g1852
I1
tp3968
a(g1058
I1
tp3969
a(g871
I4
tp3970
a(g38
I11
tp3971
a(g1879
I1
tp3972
a(g1711
I1
tp3973
a(g2347
I1
tp3974
a(g1803
I1
tp3975
a(g199
I8
tp3976
a(g229
I1
tp3977
a(g1290
I1
tp3978
a(g678
I1
tp3979
a(g1535
I1
tp3980
a(g502
I3
tp3981
a(g1485
I2
tp3982
a(g1628
I1
tp3983
a(g1398
I1
tp3984
a(g1867
I1
tp3985
a(g252
I13
tp3986
a(g1148
I2
tp3987
a(g1201
I1
tp3988
a(g2029
I2
tp3989
a(g605
I4
tp3990
a(g2041
I1
tp3991
a(g689
I1
tp3992
a(g1725
I8
tp3993
a(g621
I2
tp3994
a(g1986
I1
tp3995
a(g333
I2
tp3996
a(g1223
I1
tp3997
a(g1931
I2
tp3998
a(g306
I5
tp3999
a(g813
I2
tp4000
a(g557
I2
tp4001
a(g742
I10
tp4002
a(g2076
I1
tp4003
a(g493
I1
tp4004
a(g1410
I1
tp4005
a(g69
I10
tp4006
a(g917
I2
tp4007
a(g2153
I1
tp4008
a(g776
I4
tp4009
a(g144
I7
tp4010
a(g1365
I2
tp4011
a(g996
I1
tp4012
asg22
(lp4013
(g243
I1
tp4014
a(g680
I3
tp4015
a(g1401
I1
tp4016
a(g1555
I1
tp4017
a(g448
I1
tp4018
a(g1701
I1
tp4019
a(g2032
I1
tp4020
a(g1527
I1
tp4021
a(g800
I1
tp4022
a(g766
I1
tp4023
a(g949
I1
tp4024
a(g854
I2
tp4025
a(g1025
I1
tp4026
a(g836
I1
tp4027
a(g383
I1
tp4028
a(g2060
I2
tp4029
a(g1292
I6
tp4030
a(g1466
I2
tp4031
a(g1315
I1
tp4032
a(g2124
I1
tp4033
a(g335
I3
tp4034
a(g1805
I1
tp4035
a(g975
I1
tp4036
a(g1241
I7
tp4037
a(g134
I3
tp4038
a(g1917
I1
tp4039
a(g1060
I1
tp4040
a(g147
I1
tp4041
a(g2254
I1
tp4042
a(g1304
I1
tp4043
a(g2304
I1
tp4044
a(g2098
I1
tp4045
a(g863
I5
tp4046
a(g1141
I4
tp4047
a(g722
I3
tp4048
a(g1271
I1
tp4049
a(g1882
I1
tp4050
a(g162
I6
tp4051
a(g2171
I1
tp4052
a(g780
I3
tp4053
a(g1796
I1
tp4054
a(g402
I8
tp4055
a(g986
I1
tp4056
a(g1631
I1
tp4057
a(g1957
I1
tp4058
a(g2000
I1
tp4059
a(g175
I1
tp4060
a(g24
I3
tp4061
a(g1203
I1
tp4062
a(g459
I1
tp4063
a(g360
I1
tp4064
a(g1190
I1
tp4065
a(g1035
I4
tp4066
a(g1015
I2
tp4067
a(g887
I1
tp4068
a(g1738
I1
tp4069
a(g1381
I5
tp4070
a(g1518
I1
tp4071
a(g347
I1
tp4072
asg2
(lp4073
(g33
I3
tp4074
a(g1508
I1
tp4075
a(g2130
I1
tp4076
a(g2365
I1
tp4077
a(g258
I6
tp4078
a(g328
I11
tp4079
a(g1768
I1
tp4080
a(g217
I14
tp4081
a(g2268
I1
tp4082
a(g1458
I1
tp4083
a(g1656
I1
tp4084
a(g1416
I1
tp4085
a(g120
I45
tp4086
a(g2308
I1
tp4087
a(g354
I1
tp4088
a(g291
I1
tp4089
a(g418
I1
tp4090
a(g1047
I1
tp4091
a(g192
I5
tp4092
a(g1839
I1
tp4093
a(g2291
I1
tp4094
a(g808
I3
tp4095
a(g728
I1
tp4096
a(g1298
I1
tp4097
a(g234
I1
tp4098
a(g206
I4
tp4099
a(g4
I5
tp4100
a(g1219
I1
tp4101
a(g1706
I1
tp4102
a(g1864
I1
tp4103
a(g715
I1
tp4104
a(g1615
I1
tp4105
a(g2283
I1
tp4106
a(g509
I1
tp4107
a(g1789
I1
tp4108
a(g902
I4
tp4109
a(g61
I6
tp4110
a(g2390
I1
tp4111
a(g1247
I2
tp4112
a(g705
I1
tp4113
a(g91
I1
tp4114
a(g1160
I5
tp4115
a(g2197
I1
tp4116
a(g563
I2
tp4117
a(g44
I44
tp4118
a(g1598
I1
tp4119
a(g78
I2
tp4120
a(g464
I1
tp4121
a(g2017
I1
tp4122
a(g395
I1
tp4123
a(g1909
I1
tp4124
a(g912
I4
tp4125
a(g368
I5
tp4126
asg5
(lp4127
(g441
I1
tp4128
a(g1721
I1
tp4129
a(g1407
I1
tp4130
a(g1220
I1
tp4131
a(g2048
I1
tp4132
a(g169
I1
tp4133
a(g1813
I1
tp4134
a(g1684
I2
tp4135
a(g510
I1
tp4136
a(g691
I2
tp4137
a(g1576
I1
tp4138
a(g116
I1
tp4139
a(g2034
I1
tp4140
a(g822
I1
tp4141
a(g1790
I1
tp4142
a(g1970
I1
tp4143
a(g45
I1
tp4144
a(g1181
I1
tp4145
a(g1732
I1
tp4146
a(g1074
I1
tp4147
a(g484
I1
tp4148
a(g2356
I1
tp4149
a(g1368
I1
tp4150
a(g1143
I1
tp4151
a(g574
I1
tp4152
a(g755
I1
tp4153
a(g2375
I1
tp4154
a(g1922
I1
tp4155
a(g2039
I1
tp4156
a(g1665
I1
tp4157
a(g590
I1
tp4158
a(g1039
I1
tp4159
a(g2062
I1
tp4160
a(g773
I1
tp4161
a(g526
I1
tp4162
a(g1495
I1
tp4163
a(g2224
I1
tp4164
a(g787
I1
tp4165
a(g193
I1
tp4166
a(g570
I1
tp4167
a(g1933
I1
tp4168
a(g907
I1
tp4169
a(g1432
I1
tp4170
a(g739
I1
tp4171
a(g1153
I1
tp4172
a(g1840
I1
tp4173
a(g1498
I1
tp4174
a(g2118
I1
tp4175
a(g2280
I1
tp4176
a(g2179
I1
tp4177
a(g1277
I1
tp4178
a(g802
I1
tp4179
a(g2233
I1
tp4180
a(g1375
I1
tp4181
a(g2311
I1
tp4182
a(g2100
I1
tp4183
a(g2194
I1
tp4184
a(g628
I1
tp4185
a(g244
I1
tp4186
a(g1745
I1
tp4187
a(g86
I1
tp4188
a(g1771
I1
tp4189
a(g1317
I1
tp4190
a(g1638
I1
tp4191
a(g2350
I1
tp4192
a(g1885
I1
tp4193
a(g531
I1
tp4194
a(g767
I1
tp4195
a(g1388
I1
tp4196
a(g2131
I1
tp4197
a(g641
I1
tp4198
a(g1581
I2
tp4199
a(g613
I1
tp4200
a(g1442
I1
tp4201
a(g1460
I1
tp4202
a(g271
I1
tp4203
a(g1900
I1
tp4204
a(g2397
I1
tp4205
a(g212
I1
tp4206
a(g1355
I1
tp4207
a(g136
I1
tp4208
a(g609
I1
tp4209
a(g1567
I1
tp4210
a(g254
I1
tp4211
a(g2259
I1
tp4212
a(g1036
I1
tp4213
a(g663
I1
tp4214
a(g2081
I1
tp4215
a(g1321
I1
tp4216
a(g1197
I1
tp4217
a(g1208
I1
tp4218
a(g1693
I1
tp4219
a(g645
I1
tp4220
a(g1474
I1
tp4221
a(g2205
I1
tp4222
a(g1522
I1
tp4223
a(g140
I1
tp4224
a(g320
I1
tp4225
a(g815
I1
tp4226
a(g1067
I1
tp4227
a(g1451
I1
tp4228
a(g967
I1
tp4229
a(g859
I1
tp4230
a(g736
I1
tp4231
a(g1402
I1
tp4232
a(g2159
I1
tp4233
a(g1758
I1
tp4234
a(g701
I1
tp4235
a(g540
I1
tp4236
a(g675
I1
tp4237
a(g288
I1
tp4238
a(g2007
I1
tp4239
a(g1294
I1
tp4240
a(g2256
I1
tp4241
a(g2018
I1
tp4242
a(g845
I1
tp4243
a(g1625
I1
tp4244
a(g1564
I1
tp4245
a(g1010
I1
tp4246
a(g559
I1
tp4247
a(g425
I1
tp4248
a(g2419
I1
tp4249
a(g279
I1
tp4250
a(g895
I1
tp4251
a(g317
I1
tp4252
a(g994
I1
tp4253
a(g1600
I2
tp4254
a(g396
I1
tp4255
a(g868
I1
tp4256
a(g189
I1
tp4257
a(g839
I1
tp4258
a(g2340
I1
tp4259
a(g723
I1
tp4260
a(g1830
I1
tp4261
a(g474
I1
tp4262
a(g926
I1
tp4263
a(g453
I1
tp4264
a(g1890
I1
tp4265
a(g1418
I1
tp4266
a(g340
I1
tp4267
a(g2065
I1
tp4268
a(g1715
I1
tp4269
a(g70
I1
tp4270
a(g6
I1
tp4271
a(g2367
I1
tp4272
a(g919
I1
tp4273
a(g1252
I1
tp4274
a(g153
I1
tp4275
a(g363
I1
tp4276
a(g1020
I1
tp4277
a(g2322
I1
tp4278
a(g2145
I1
tp4279
a(g1345
I1
tp4280
a(g1983
I1
tp4281
a(g40
I1
tp4282
a(g437
I1
tp4283
a(g1919
I1
tp4284
a(g1532
I1
tp4285
a(g1556
I1
tp4286
a(g624
I1
tp4287
a(g2288
I1
tp4288
a(g1675
I1
tp4289
a(g1171
I1
tp4290
a(g2382
I1
tp4291
a(g654
I1
tp4292
a(g296
I1
tp4293
a(g546
I1
tp4294
a(g2296
I1
tp4295
a(g2106
I1
tp4296
a(g94
I1
tp4297
a(g2202
I1
tp4298
a(g336
I1
tp4299
a(g1780
I1
tp4300
a(g881
I1
tp4301
a(g1048
I1
tp4302
a(g597
I1
tp4303
a(g1946
I1
tp4304
asg80
(lp4305
(g2238
I1
tp4306
a(g1791
I1
tp4307
a(g95
I1
tp4308
a(g2247
I5
tp4309
a(g81
I1
tp4310
a(g1040
I2
tp4311
a(g750
I1
tp4312
asg18
(lp4313
(g2384
I1
tp4314
a(g503
I1
tp4315
a(g1302
I1
tp4316
a(g2095
I1
tp4317
a(g19
I1
tp4318
a(g145
I1
tp4319
a(g657
I3
tp4320
a(g2010
I1
tp4321
a(g1868
I1
tp4322
a(g2042
I1
tp4323
a(g102
I1
tp4324
a(g1925
I1
tp4325
a(g2215
I1
tp4326
a(g2052
I1
tp4327
a(g240
I1
tp4328
a(g200
I1
tp4329
a(g1827
I1
tp4330
a(g1422
I1
tp4331
a(g825
I1
tp4332
a(g130
I35
tp4333
a(g435
I1
tp4334
a(g763
I1
tp4335
a(g160
I6
tp4336
a(g777
I1
tp4337
a(g2263
I1
tp4338
a(g1106
I4
tp4339
a(g1515
I2
tp4340
a(g1844
I1
tp4341
a(g2394
I1
tp4342
a(g51
I2
tp4343
a(g381
I1
tp4344
a(g2251
I1
tp4345
a(g1525
I1
tp4346
a(g1213
I1
tp4347
a(g470
I1
tp4348
a(g446
I2
tp4349
a(g316
I4
tp4350
a(g421
I1
tp4351
a(g523
I7
tp4352
a(g1561
I1
tp4353
a(g587
I8
tp4354
a(g210
I1
tp4355
a(g606
I1
tp4356
a(g615
I1
tp4357
a(g186
I12
tp4358
a(g1998
I1
tp4359
a(g743
I1
tp4360
a(g372
I21
tp4361
a(g428
I4
tp4362
a(g1399
I1
tp4363
a(g710
I1
tp4364
a(g250
I1
tp4365
asg131
(lp4366
(g973
I1
tp4367
a(g1139
I1
tp4368
a(g852
I1
tp4369
a(g690
I1
tp4370
a(g1950
I1
tp4371
a(g2096
I1
tp4372
a(g1976
I1
tp4373
a(g826
I1
tp4374
a(g471
I3
tp4375
a(g2395
I1
tp4376
a(g132
I1
tp4377
a(g1336
I1
tp4378
a(g1594
I2
tp4379
a(g1912
I1
tp4380
a(g1661
I1
tp4381
a(g1880
I1
tp4382
a(g1814
I1
tp4383
a(g834
I1
tp4384
a(g1165
I1
tp4385
a(g524
I1
tp4386
a(g1762
I1
tp4387
a(g1446
I1
tp4388
a(g2232
I1
tp4389
a(g2077
I1
tp4390
a(g1114
I1
tp4391
a(g1678
I1
tp4392
a(g1774
I1
tp4393
a(g2190
I1
tp4394
a(g753
I1
tp4395
a(g1902
I1
tp4396
a(g1649
I1
tp4397
a(g2030
I1
tp4398
a(g658
I1
tp4399
a(g997
I1
tp4400
a(g2359
I1
tp4401
a(g1089
I1
tp4402
a(g1828
I1
tp4403
a(g1357
I1
tp4404
a(g2335
I1
tp4405
a(g918
I1
tp4406
a(g929
I1
tp4407
a(g1750
I1
tp4408
a(g2325
I1
tp4409
a(g1097
I1
tp4410
a(g984
I2
tp4411
a(g2146
I1
tp4412
a(g734
I1
tp4413
a(g1280
I1
tp4414
a(g1642
I1
tp4415
a(g2216
I1
tp4416
a(g2412
I1
tp4417
a(g550
I1
tp4418
a(g1726
I1
tp4419
a(g1629
I1
tp4420
a(g569
I2
tp4421
a(g1107
I1
tp4422
a(g1712
I1
tp4423
a(g2302
I1
tp4424
a(g1232
I1
tp4425
a(g1379
I1
tp4426
a(g2246
I1
tp4427
a(g778
I1
tp4428
a(g2183
I1
tp4429
a(g885
I1
tp4430
a(g1078
I1
tp4431
a(g1553
I1
tp4432
a(g607
I1
tp4433
a(g1585
I3
tp4434
a(g1964
I1
tp4435
a(g1516
I1
tp4436
a(g2314
I1
tp4437
a(g872
I1
tp4438
a(g639
I1
tp4439
a(g2122
I1
tp4440
a(g1127
I1
tp4441
a(g2237
I1
tp4442
a(g1347
I1
tp4443
a(g1188
I1
tp4444
asg54
(lp4445
(g596
I1
tp4446
a(g2371
I1
tp4447
a(g2149
I1
tp4448
a(g201
I2
tp4449
a(g551
I1
tp4450
a(g1958
I1
tp4451
a(g1411
I1
tp4452
a(g1480
I1
tp4453
a(g2209
I1
tp4454
a(g2336
I1
tp4455
a(g1026
I1
tp4456
a(g1142
I1
tp4457
a(g1081
I1
tp4458
a(g699
I1
tp4459
a(g1969
I1
tp4460
a(g1043
I1
tp4461
a(g1650
I1
tp4462
a(g390
I1
tp4463
a(g1016
I1
tp4464
a(g838
I1
tp4465
a(g1193
I1
tp4466
a(g1305
I1
tp4467
a(g2165
I1
tp4468
a(g176
I1
tp4469
a(g958
I1
tp4470
a(g2315
I1
tp4471
a(g1987
I1
tp4472
a(g1595
I1
tp4473
a(g230
I1
tp4474
a(g608
I1
tp4475
a(g1156
I1
tp4476
a(g1272
I1
tp4477
a(g1242
I1
tp4478
a(g987
I1
tp4479
a(g1905
I1
tp4480
a(g2218
I1
tp4481
a(g2255
I1
tp4482
a(g1702
I1
tp4483
a(g2126
I1
tp4484
a(g504
I1
tp4485
a(g1836
I1
tp4486
a(g1620
I1
tp4487
a(g2193
I2
tp4488
a(g2349
I1
tp4489
a(g449
I1
tp4490
a(g1918
I1
tp4491
a(g976
I1
tp4492
a(g1204
I1
tp4493
a(g2221
I1
tp4494
a(g2185
I1
tp4495
a(g2295
I1
tp4496
a(g2360
I1
tp4497
a(g744
I1
tp4498
a(g211
I1
tp4499
a(g1224
I1
tp4500
a(g1503
I1
tp4501
a(g754
I1
tp4502
a(g2421
I1
tp4503
a(g906
I1
tp4504
a(g1488
I1
tp4505
a(g422
I1
tp4506
a(g2287
I1
tp4507
a(g2061
I1
tp4508
a(g384
I1
tp4509
a(g1090
I1
tp4510
a(g711
I1
tp4511
a(g264
I1
tp4512
a(g827
I1
tp4513
a(g1940
I1
tp4514
a(g525
I1
tp4515
a(g673
I1
tp4516
a(g648
I1
tp4517
a(g1895
I1
tp4518
a(g1670
I1
tp4519
a(g2264
I1
tp4520
a(g681
I1
tp4521
a(g1603
I1
tp4522
a(g2379
I1
tp4523
a(g1859
I1
tp4524
a(g2226
I1
tp4525
a(g2396
I1
tp4526
a(g115
I1
tp4527
a(g1797
I1
tp4528
a(g2089
I1
tp4529
a(g1952
I1
tp4530
a(g1806
I1
tp4531
a(g1128
I1
tp4532
a(g1519
I1
tp4533
a(g473
I1
tp4534
a(g1061
I1
tp4535
a(g1349
I1
tp4536
a(g1764
I1
tp4537
a(g409
I1
tp4538
a(g791
I1
tp4539
a(g1632
I1
tp4540
a(g324
I1
tp4541
a(g515
I1
tp4542
a(g588
I1
tp4543
a(g1149
I1
tp4544
a(g295
I1
tp4545
a(g1928
I1
tp4546
a(g558
I1
tp4547
a(g188
I1
tp4548
a(g220
I1
tp4549
a(g1575
I1
tp4550
a(g1293
I1
tp4551
a(g1846
I1
tp4552
a(g1536
I1
tp4553
a(g348
I1
tp4554
a(g2099
I1
tp4555
a(g436
I1
tp4556
a(g640
I1
tp4557
a(g1932
I1
tp4558
a(g1611
I1
tp4559
a(g1053
I1
tp4560
a(g2033
I1
tp4561
a(g2386
I1
tp4562
a(g460
I1
tp4563
a(g1752
I1
tp4564
a(g2140
I1
tp4565
a(g253
I1
tp4566
a(g998
I1
tp4567
a(g1528
I1
tp4568
a(g1785
I1
tp4569
a(g1853
I1
tp4570
a(g2305
I1
tp4571
a(g1384
I1
tp4572
a(g2108
I1
tp4573
a(g1316
I1
tp4574
a(g2328
I1
tp4575
a(g1390
I1
tp4576
a(g1448
I1
tp4577
a(g2242
I1
tp4578
a(g403
I1
tp4579
a(g1563
I1
tp4580
a(g278
I1
tp4581
a(g1166
I1
tp4582
a(g1978
I1
tp4583
a(g1282
I1
tp4584
a(g1714
I1
tp4585
a(g623
I1
tp4586
a(g1099
I3
tp4587
a(g1066
I1
tp4588
a(g864
I1
tp4589
a(g2279
I1
tp4590
a(g873
I1
tp4591
a(g1679
I1
tp4592
a(g1739
I1
tp4593
a(g55
I1
tp4594
a(g2003
I1
tp4595
a(g373
I2
tp4596
a(g1174
I1
tp4597
a(g1467
I1
tp4598
a(g2069
I1
tp4599
a(g576
I1
tp4600
a(g1569
I1
tp4601
a(g1366
I1
tp4602
a(g1818
I1
tp4603
a(g930
I1
tp4604
a(g2275
I1
tp4605
a(g951
I1
tp4606
a(g1775
I1
tp4607
a(g2172
I1
tp4608
a(g1424
I1
tp4609
a(g429
I1
tp4610
a(g2156
I1
tp4611
a(g2021
I1
tp4612
a(g163
I1
tp4613
a(g2414
I1
tp4614
a(g898
I1
tp4615
a(g1869
I1
tp4616
a(g2343
I1
tp4617
a(g1728
I1
tp4618
a(g2054
I1
tp4619
a(g1115
I1
tp4620
a(g888
I1
tp4621
a(g855
I1
tp4622
a(g148
I1
tp4623
a(g286
I1
tp4624
a(g1883
I1
tp4625
a(g1586
I1
tp4626
a(g105
I1
tp4627
a(g1662
I1
tp4628
a(g2044
I1
tp4629
a(g494
I1
tp4630
a(g783
I1
tp4631
a(g1688
I1
tp4632
a(g1214
I1
tp4633
a(g1327
I1
tp4634
a(g2079
I1
tp4635
a(g414
I1
tp4636
a(g1360
I1
tp4637
asg56
(lp4638
(g1483
I1
tp4639
a(g284
I1
tp4640
a(g2085
I1
tp4641
a(g171
I1
tp4642
a(g349
I1
tp4643
a(g831
I1
tp4644
a(g149
I1
tp4645
a(g1419
I1
tp4646
a(g740
I1
tp4647
a(g2066
I1
tp4648
a(g1696
I1
tp4649
a(g1337
I1
tp4650
a(g945
I1
tp4651
a(g2405
I1
tp4652
a(g2012
I1
tp4653
a(g164
I1
tp4654
a(g969
I1
tp4655
a(g97
I1
tp4656
a(g1850
I1
tp4657
a(g1199
I1
tp4658
a(g2151
I1
tp4659
a(g1995
I1
tp4660
a(g1500
I1
tp4661
a(g325
I1
tp4662
a(g1776
I1
tp4663
a(g2168
I1
tp4664
a(g2420
I1
tp4665
a(g1233
I1
tp4666
a(g1210
I1
tp4667
a(g57
I2
tp4668
a(g1533
I1
tp4669
a(g2049
I1
tp4670
a(g1012
I1
tp4671
a(g1545
I1
tp4672
a(g667
I1
tp4673
a(g2277
I1
tp4674
a(g655
I1
tp4675
a(g2147
I1
tp4676
a(g1667
I1
tp4677
a(g1444
I1
tp4678
a(g2269
I1
tp4679
a(g896
I1
tp4680
a(g443
I1
tp4681
a(g1389
I1
tp4682
a(g1793
I1
tp4683
a(g1475
I1
tp4684
a(g2368
I1
tp4685
a(g1807
I1
tp4686
a(g1639
I1
tp4687
a(g455
I1
tp4688
a(g2180
I1
tp4689
a(g202
I2
tp4690
a(g1860
I1
tp4691
a(g2260
I1
tp4692
a(g404
I1
tp4693
a(g848
I1
tp4694
a(g1733
I1
tp4695
a(g505
I1
tp4696
a(g1747
I1
tp4697
a(g939
I1
tp4698
a(g2120
I1
tp4699
a(g511
I1
tp4700
a(g1462
I1
tp4701
a(g430
I1
tp4702
a(g633
I1
tp4703
a(g2239
I1
tp4704
a(g2161
I1
tp4705
a(g2415
I1
tp4706
a(g2376
I1
tp4707
a(g1263
I1
tp4708
a(g2135
I1
tp4709
asg121
(lp4710
(g1132
I1
tp4711
a(g686
I3
tp4712
a(g1549
I1
tp4713
a(g2144
I1
tp4714
a(g1899
I1
tp4715
a(g1823
I1
tp4716
a(g565
I2
tp4717
a(g653
I1
tp4718
a(g1963
I1
tp4719
a(g830
I1
tp4720
a(g466
I4
tp4721
a(g1162
I1
tp4722
a(g1229
I1
tp4723
a(g2074
I1
tp4724
a(g1332
I1
tp4725
a(g1812
I1
tp4726
a(g879
I1
tp4727
a(g1945
I1
tp4728
a(g2321
I1
tp4729
a(g844
I1
tp4730
a(g730
I1
tp4731
a(g1276
I1
tp4732
a(g1637
I1
tp4733
a(g2409
I1
tp4734
a(g545
I1
tp4735
a(g749
I2
tp4736
a(g2355
I1
tp4737
a(g2025
I1
tp4738
a(g520
I1
tp4739
a(g1875
I1
tp4740
a(g1441
I1
tp4741
a(g925
I1
tp4742
a(g772
I1
tp4743
a(g1094
I1
tp4744
a(g1674
I1
tp4745
a(g123
I4
tp4746
a(g1073
I1
tp4747
a(g602
I1
tp4748
a(g2299
I1
tp4749
a(g1580
I3
tp4750
a(g2245
I1
tp4751
a(g2310
I1
tp4752
a(g1658
I1
tp4753
a(g1180
I1
tp4754
a(g1103
I1
tp4755
a(g2117
I1
tp4756
a(g1354
I1
tp4757
a(g1911
I1
tp4758
a(g1344
I1
tp4759
a(g2333
I1
tp4760
a(g2177
I1
tp4761
a(g1757
I1
tp4762
a(g821
I1
tp4763
a(g2213
I1
tp4764
a(g1770
I1
tp4765
a(g1647
I1
tp4766
a(g1510
I1
tp4767
a(g1590
I2
tp4768
a(g1720
I1
tp4769
a(g1624
I1
tp4770
a(g1086
I1
tp4771
a(g2189
I2
tp4772
a(g965
I4
tp4773
a(g1124
I1
tp4774
a(g914
I1
tp4775
a(g1374
I2
tp4776
a(g1111
I1
tp4777
asg9
(lp4778
(g1461
I2
tp4779
a(g1310
I1
tp4780
a(g1075
I1
tp4781
a(g329
I3
tp4782
a(g1923
I1
tp4783
a(g2160
I1
tp4784
a(g1266
I1
tp4785
a(g968
I1
tp4786
a(g1937
I1
tp4787
a(g125
I2
tp4788
a(g1913
I1
tp4789
a(g944
I1
tp4790
a(g1236
I1
tp4791
a(g2248
I1
tp4792
a(g1800
I1
tp4793
a(g860
I5
tp4794
a(g1135
I4
tp4795
a(g1198
I1
tp4796
a(g1708
I1
tp4797
a(g2119
I1
tp4798
a(g1876
I1
tp4799
a(g259
I4
tp4800
a(g454
I1
tp4801
a(g1288
I1
tp4802
a(g1257
I2
tp4803
a(g1781
I5
tp4804
a(g1792
I1
tp4805
a(g1376
I5
tp4806
a(g1856
I1
tp4807
a(g981
I1
tp4808
a(g1626
I1
tp4809
a(g1049
I1
tp4810
a(g2300
I1
tp4811
a(g788
I2
tp4812
a(g184
I1
tp4813
a(g2167
I1
tp4814
a(g2093
I1
tp4815
a(g236
I1
tp4816
a(g155
I1
tp4817
a(g10
I3
tp4818
a(g774
I1
tp4819
a(g355
I1
tp4820
a(g1695
I1
tp4821
a(g1031
I4
tp4822
a(g1540
I1
tp4823
a(g1954
I1
tp4824
a(g883
I1
tp4825
a(g759
I1
tp4826
a(g1182
I1
tp4827
a(g397
I1
tp4828
a(g1511
I1
tp4829
a(g832
I1
tp4830
a(g377
I1
tp4831
a(g716
I1
tp4832
a(g341
I1
tp4833
a(g170
I1
tp4834
a(g1011
I1
tp4835
a(g676
I3
tp4836
a(g1395
I1
tp4837
a(g1666
I1
tp4838
a(g1550
I1
tp4839
a(g442
I1
tp4840
a(g1994
I1
tp4841
a(g2026
I1
tp4842
a(g1523
I1
tp4843
a(g1056
I1
tp4844
a(g1734
I1
tp4845
a(g141
I1
tp4846
a(g847
I2
tp4847
a(g1021
I1
tp4848
a(g1299
I1
tp4849
a(g795
I1
tp4850
a(g1443
I5
tp4851
a(g2057
I2
tp4852
a(g467
I1
tp4853
asg11
(lp4854
(g1592
I1
tp4855
a(g195
I5
tp4856
a(g2261
I1
tp4857
a(g481
I1
tp4858
a(g63
I3
tp4859
a(g1104
I1
tp4860
a(g512
I1
tp4861
a(g849
I1
tp4862
a(g1794
I1
tp4863
a(g731
I1
tp4864
a(g1119
I1
tp4865
a(g1420
I1
tp4866
a(g2019
I1
tp4867
a(g2008
I1
tp4868
a(g313
I1
tp4869
a(g1583
I1
tp4870
a(g293
I1
tp4871
a(g1824
I1
tp4872
a(g566
I1
tp4873
a(g456
I1
tp4874
a(g935
I1
tp4875
a(g810
I3
tp4876
a(g717
I1
tp4877
a(g1618
I1
tp4878
a(g2357
I1
tp4879
a(g1801
I1
tp4880
a(g218
I1
tp4881
a(g2050
I1
tp4882
a(g237
I1
tp4883
a(g419
I1
tp4884
a(g823
I1
tp4885
a(g1278
I1
tp4886
a(g2067
I1
tp4887
a(g490
I1
tp4888
a(g1865
I1
tp4889
a(g1601
I1
tp4890
a(g1183
I1
tp4891
a(g1076
I1
tp4892
a(g1772
I1
tp4893
a(g1087
I1
tp4894
a(g1125
I1
tp4895
a(g1965
I1
tp4896
a(g2270
I1
tp4897
a(g2132
I1
tp4898
a(g98
I1
tp4899
a(g412
I1
tp4900
a(g1221
I1
tp4901
a(g2410
I1
tp4902
a(g1095
I1
tp4903
a(g12
I1
tp4904
a(g1948
I1
tp4905
a(g618
I1
tp4906
a(g1300
I1
tp4907
a(g343
I2
tp4908
a(g1311
I1
tp4909
a(g1476
I1
tp4910
a(g356
I1
tp4911
a(g1022
I1
tp4912
a(g1267
I4
tp4913
a(g1163
I1
tp4914
a(g2292
I1
tp4915
a(g260
I1
tp4916
a(g47
I31
tp4917
a(g82
I2
tp4918
a(g330
I1
tp4919
a(g2284
I1
tp4920
a(g903
I2
tp4921
a(g398
I1
tp4922
a(g536
I1
tp4923
a(g468
I1
tp4924
a(g426
I1
tp4925
a(g1136
I1
tp4926
a(g1512
I1
tp4927
a(g603
I1
tp4928
a(g2199
I1
tp4929
a(g1841
I1
tp4930
a(g378
I1
tp4931
a(g915
I4
tp4932
a(g1230
I1
tp4933
a(g2312
I1
tp4934
a(g1609
I1
tp4935
a(g1914
I1
tp4936
a(g157
I1
tp4937
a(g1333
I1
tp4938
a(g2392
I1
tp4939
a(g126
I29
tp4940
a(g113
I1
tp4941
a(g208
I3
tp4942
a(g303
I1
tp4943
a(g1050
I1
tp4944
a(g407
I1
tp4945
a(g35
I1
tp4946
a(g1722
I1
tp4947
a(g1377
I1
tp4948
a(g322
I1
tp4949
a(g1112
I1
tp4950
a(g1237
I1
tp4951
a(g249
I1
tp4952
a(g1003
I1
tp4953
a(g547
I1
tp4954
a(g1154
I1
tp4955
a(g1697
I1
tp4956
a(g1984
I2
tp4957
a(g500
I1
tp4958
a(g2240
I1
tp4959
a(g584
I1
tp4960
a(g2369
I1
tp4961
a(g1248
I1
tp4962
a(g1258
I3
tp4963
a(g1463
I1
tp4964
a(g707
I1
tp4965
a(g1660
I1
tp4966
a(g1709
I1
tp4967
a(g370
I4
tp4968
asg20
(lp4969
(g2138
I1
tp4970
a(g379
I1
tp4971
a(g241
I1
tp4972
a(g1408
I1
tp4973
a(g158
I3
tp4974
a(g972
I3
tp4975
a(g52
I29
tp4976
a(g622
I2
tp4977
a(g798
I2
tp4978
a(g764
I1
tp4979
a(g665
I2
tp4980
a(g1477
I1
tp4981
a(g1324
I1
tp4982
a(g1698
I1
tp4983
a(g357
I1
tp4984
a(g1501
I1
tp4985
a(g142
I8
tp4986
a(g2162
I1
tp4987
a(g927
I1
tp4988
a(g1172
I1
tp4989
a(g276
I1
tp4990
a(g1996
I2
tp4991
a(g196
I2
tp4992
a(g323
I2
tp4993
a(g1238
I1
tp4994
a(g67
I47
tp4995
a(g884
I4
tp4996
a(g1312
I1
tp4997
a(g2027
I1
tp4998
a(g399
I1
tp4999
a(g103
I1
tp5000
a(g344
I1
tp5001
a(g697
I1
tp5002
a(g530
I1
tp5003
a(g227
I1
tp5004
a(g21
I1
tp5005
a(g491
I1
tp5006
a(g548
I2
tp5007
a(g39
I23
tp5008
a(g1949
I2
tp5009
a(g521
I2
tp5010
a(g1187
I1
tp5011
asg87
(lp5012
(g2327
I1
tp5013
a(g2178
I1
tp5014
a(g1348
I1
tp5015
a(g362
I17
tp5016
a(g966
I1
tp5017
a(g782
I1
tp5018
a(g307
I1
tp5019
a(g541
I1
tp5020
a(g1894
I1
tp5021
a(g988
I1
tp5022
a(g1417
I1
tp5023
a(g496
I1
tp5024
a(g589
I1
tp5025
a(g2366
I1
tp5026
a(g2342
I1
tp5027
a(g287
I1
tp5028
a(g894
I1
tp5029
a(g1262
I1
tp5030
a(g1383
I3
tp5031
a(g1454
I1
tp5032
a(g483
I1
tp5033
a(g659
I1
tp5034
a(g117
I1
tp5035
a(g1884
I1
tp5036
a(g391
I5
tp5037
a(g1192
I1
tp5038
a(g1391
I1
tp5039
a(g702
I2
tp5040
a(g2080
I1
tp5041
a(g374
I1
tp5042
a(g1663
I1
tp5043
a(g88
I1
tp5044
a(g1784
I1
tp5045
a(g1988
I1
tp5046
a(g1367
I1
tp5047
a(g177
I6
tp5048
a(g960
I1
tp5049
a(g938
I1
tp5050
a(g221
I15
tp5051
a(g2274
I1
tp5052
a(g1080
I1
tp5053
a(g2002
I1
tp5054
a(g1251
I1
tp5055
a(g2011
I1
tp5056
a(g1471
I1
tp5057
a(g632
I1
tp5058
a(g2404
I1
tp5059
a(g814
I1
tp5060
a(g889
I1
tp5061
asg73
(lp5062
(g1341
I1
tp5063
a(g75
I41
tp5064
a(g580
I1
tp5065
a(g955
I2
tp5066
a(g651
I1
tp5067
a(g1245
I1
tp5068
a(g300
I1
tp5069
a(g1470
I1
tp5070
a(g534
I1
tp5071
a(g892
I1
tp5072
a(g1992
I2
tp5073
a(g1981
I1
tp5074
a(g1363
I1
tp5075
a(g110
I1
tp5076
a(g76
I18
tp5077
a(g2318
I1
tp5078
a(g488
I1
tp5079
a(g2363
I1
tp5080
a(g695
I3
tp5081
a(g283
I1
tp5082
a(g1654
I2
tp5083
a(g933
I6
tp5084
a(g2400
I1
tp5085
a(g806
I6
tp5086
a(g1873
I1
tp5087
asg267
(lp5088
(g311
I4
tp5089
a(g1659
I1
tp5090
a(g582
I3
tp5091
a(g267
I4
tp5092
asg27
(lp5093
(g943
I1
tp5094
a(g235
I1
tp5095
a(g2422
I1
tp5096
a(g342
I4
tp5097
a(g156
I3
tp5098
a(g62
I3
tp5099
a(g274
I3
tp5100
a(g869
I3
tp5101
a(g809
I7
tp5102
a(g79
I26
tp5103
a(g583
I2
tp5104
a(g34
I17
tp5105
a(g1133
I1
tp5106
a(g112
I19
tp5107
a(g225
I32
tp5108
a(g956
I4
tp5109
a(g182
I43
tp5110
a(g178
I6
tp5111
a(g28
I10
tp5112
a(g248
I2
tp5113
a(g302
I13
tp5114
a(g106
I38
tp5115
asg13
(lp5116
(g1877
I1
tp5117
a(g646
I1
tp5118
a(g14
I1
tp5119
a(g314
I1
tp5120
a(g1685
I1
tp5121
a(g1966
I1
tp5122
a(g811
I1
tp5123
a(g1184
I1
tp5124
a(g2111
I1
tp5125
a(g970
I1
tp5126
a(g1032
I1
tp5127
a(g1825
I1
tp5128
a(g1249
I1
tp5129
a(g529
I1
tp5130
a(g567
I1
tp5131
a(g1551
I1
tp5132
a(g2230
I1
tp5133
a(g2249
I1
tp5134
a(g304
I1
tp5135
a(g1322
I1
tp5136
a(g331
I1
tp5137
a(g1748
I1
tp5138
a(g732
I1
tp5139
a(g2293
I1
tp5140
a(g1842
I1
tp5141
a(g1541
I1
tp5142
a(g1396
I1
tp5143
a(g1259
I1
tp5144
a(g796
I1
tp5145
a(g619
I1
tp5146
a(g1146
I1
tp5147
a(g687
I1
tp5148
a(g1452
I1
tp5149
a(g760
I1
tp5150
a(g261
I1
tp5151
a(g48
I1
tp5152
a(g1137
I1
tp5153
a(g1268
I1
tp5154
a(g718
I1
tp5155
a(g172
I1
tp5156
a(g269
I1
tp5157
a(g1492
I1
tp5158
a(g36
I1
tp5159
a(g127
I1
tp5160
a(g850
I1
tp5161
a(g1723
I1
tp5162
a(g1429
I1
tp5163
a(g1640
I1
tp5164
a(g480
I1
tp5165
a(g1004
I1
tp5166
a(g1735
I1
tp5167
a(g946
I1
tp5168
a(g64
I1
tp5169
a(g238
I1
tp5170
a(g1974
I1
tp5171
a(g936
I1
tp5172
a(g1334
I1
tp5173
a(g99
I1
tp5174
a(g513
I1
tp5175
a(g83
I1
tp5176
a(g114
I1
tp5177
a(g1815
I1
tp5178
asg84
(lp5179
(g2252
I1
tp5180
a(g1041
I1
tp5181
a(g95
I1
tp5182
a(g2241
I1
tp5183
a(g85
I1
tp5184
a(g1777
I20
tp5185
asg65
(lp5186
(g66
I3
tp5187
asg25
(lp5188
(g135
I74
tp5189
a(g1487
I1
tp5190
a(g26
I1
tp5191
a(g1479
I1
tp5192
a(g1382
I1
tp5193
a(g1191
I1
tp5194
a(g1499
I1
tp5195
a(g1042
I1
tp5196
a(g1727
I1
tp5197
a(g1904
I8
tp5198
a(g2273
I1
tp5199
a(g265
I1
tp5200
a(g53
I2
tp5201
a(g392
I5
tp5202
a(g1845
I1
tp5203
a(g837
I1
tp5204
a(g2088
I2
tp5205
a(g735
I2
tp5206
a(g1359
I1
tp5207
a(g2001
I1
tp5208
a(g1306
I1
tp5209
a(g1326
I1
tp5210
a(g1098
I1
tp5211
a(g1927
I2
tp5212
a(g781
I1
tp5213
a(g1544
I1
tp5214
a(g950
I5
tp5215
a(g104
I1
tp5216
a(g361
I8
tp5217
a(g801
I1
tp5218
a(g631
I1
tp5219
a(g2155
I1
tp5220
a(g2125
I1
tp5221
a(g222
I11
tp5222
asg29
(lp5223
(g692
I1
tp5224
a(g539
I1
tp5225
a(g41
I3
tp5226
a(g1570
I1
tp5227
a(g682
I1
tp5228
a(g1520
I1
tp5229
a(g485
I1
tp5230
a(g2351
I1
tp5231
a(g745
I1
tp5232
a(g1765
I1
tp5233
a(g2329
I1
tp5234
a(g1027
I1
tp5235
a(g1989
I1
tp5236
a(g874
I1
tp5237
a(g1150
I2
tp5238
a(g385
I1
tp5239
a(g2157
I1
tp5240
a(g784
I1
tp5241
a(g952
I1
tp5242
a(g1369
I2
tp5243
a(g1167
I2
tp5244
a(g856
I1
tp5245
a(g1906
I1
tp5246
a(g1557
I1
tp5247
a(g1385
I1
tp5248
a(g308
I4
tp5249
a(g1425
I1
tp5250
a(g1680
I1
tp5251
a(g712
I1
tp5252
a(g2113
I1
tp5253
a(g660
I1
tp5254
a(g1412
I1
tp5255
a(g213
I1
tp5256
a(g1729
I1
tp5257
a(g179
I2
tp5258
a(g297
I1
tp5259
a(g2210
I1
tp5260
a(g816
I1
tp5261
a(g899
I1
tp5262
a(g768
I2
tp5263
a(g591
I1
tp5264
a(g255
I7
tp5265
a(g1403
I1
tp5266
a(g1870
I1
tp5267
a(g1612
I1
tp5268
a(g1082
I1
tp5269
a(g137
I1
tp5270
a(g1854
I1
tp5271
a(g1144
I2
tp5272
a(g1643
I1
tp5273
a(g2082
I1
tp5274
a(g1295
I1
tp5275
a(g516
I1
tp5276
a(g1808
I1
tp5277
a(g1489
I2
tp5278
a(g1062
I1
tp5279
a(g2013
I3
tp5280
a(g1017
I5
tp5281
a(g495
I1
tp5282
a(g1651
I1
tp5283
a(g1194
I1
tp5284
a(g1006
I1
tp5285
a(g977
I1
tp5286
a(g1283
I1
tp5287
a(g940
I2
tp5288
a(g150
I1
tp5289
a(g337
I1
tp5290
a(g577
I2
tp5291
a(g1504
I1
tp5292
a(g1740
I1
tp5293
a(g1934
I1
tp5294
a(g1847
I1
tp5295
a(g908
I1
tp5296
a(g30
I1
tp5297
a(g71
I1
tp5298
a(g2035
I1
tp5299
a(g920
I2
tp5300
a(g1959
I1
tp5301
a(g2045
I1
tp5302
a(g1716
I1
tp5303
a(g999
I1
tp5304
a(g1777
I22
tp5305
a(g58
I2
tp5306
a(g1496
I1
tp5307
a(g1338
I1
tp5308
a(g792
I1
tp5309
a(g959
I1
tp5310
a(g1175
I2
tp5311
a(g1633
I1
tp5312
a(g803
I2
tp5313
a(g1215
I1
tp5314
a(g989
I1
tp5315
a(g1205
I1
tp5316
a(g1068
I1
tp5317
a(g1886
I1
tp5318
a(g1157
I2
tp5319
a(g438
I1
tp5320
a(g1537
I1
tp5321
a(g634
I1
tp5322
a(g724
I1
tp5323
a(g107
I1
tp5324
a(g1689
I2
tp5325
a(g642
I1
tp5326
a(g431
I1
tp5327
a(g231
I1
tp5328
a(g364
I1
tp5329
a(g2372
I1
tp5330
a(g506
I1
tp5331
a(g203
I2
tp5332
a(g450
I23
tp5333
a(g700
I9
tp5334
a(g1433
I1
tp5335
a(g737
I3
tp5336
a(g560
I1
tp5337
a(g245
I1
tp5338
a(g1253
I1
tp5339
a(g1941
I1
tp5340
a(g223
I2
tp5341
a(g1328
I1
tp5342
a(g1604
I1
tp5343
a(g461
I1
tp5344
a(g756
I1
tp5345
a(g272
I1
tp5346
a(g625
I1
tp5347
a(g1225
I1
tp5348
a(g527
I1
tp5349
a(g571
I1
tp5350
a(g2186
I1
tp5351
a(g280
I2
tp5352
a(g552
I3
tp5353
a(g350
I1
tp5354
a(g598
I1
tp5355
a(g610
I1
tp5356
a(g2101
I1
tp5357
a(g668
I1
tp5358
a(g165
I1
tp5359
a(g840
I1
tp5360
a(g1318
I1
tp5361
a(g475
I1
tp5362
astp5363
.
