(lp0
(dp1
S'name'
p2
S' N.Sabareesh'
p3
sS'forwards'
p4
(lp5
S'RT'
p6
asS'currency'
p7
(lp8
S'Rs 5'
p9
asS'url'
p10
(lp11
S'http://bit.ly/9RckBD'
p12
asS'bitly'
p13
I25
sS'long-url'
p14
S'http://www.suryafansclub.com/news/singam-collects-rs-5-crores-in-chennai/?utm_source=twitterfeed&utm_medium=twitter'
p15
sS'pub'
p16
S'09/28/10 00:58:05'
p17
sS'nick'
p18
S'aSabareeshba33g'
p19
sS'has_r'
p20
(lp21
sS'tag'
p22
(lp23
S'# 8217'
p24
asS'dialog'
p25
(lp26
S'@suryafanclub'
p27
asS'msg'
p28
S'RT @suryafanclub: Singam Collects Rs 5 Crores in Chennai!: Surya&#8217;s Singam which was released world wide on May 29th in nearly 600 sc... http://bit.ly/9RckBD'
p29
sS'phrase'
p30
(lp31
S'Singam Collects'
p32
aS'Crores'
p33
aS'Chennai'
p34
aS's Singam'
p35
aS'world'
p36
aS'May'
p37
aS'sc'
p38
asa(dp39
g2
S'TOIChennaiNews'
p40
sg10
(lp41
S'http://toi.in/9dFqnZ'
p42
asg13
I0
sg16
S'09/28/10 01:13:47'
p43
sg18
S'TOIChennaiNews'
p44
sg20
(lp45
sg28
S'Chennai girl raring to go past hurdles at the Games http://toi.in/9dFqnZ'
p46
sg30
(lp47
S'Chennai girl'
p48
aS'past hurdles'
p49
aS'Games'
p50
asa(dp51
g2
S'Bharath '
p52
sg10
(lp53
S'http://chennaitweets.blogspot.com/'
p54
asg13
I0
sg16
S'09/28/10 02:42:26'
p55
sg18
S'chennaitweet'
p56
sg20
(lp57
sg28
S'Chennai tweets welcomes you to Chennai , To update your self in whats happening in Chennai visit http://chennaitweets.blogspot.com/'
p58
sg30
(lp59
S'Chennai tweets'
p60
aS'Chennai'
p61
aS'To'
p62
aS'self'
p63
aS'whats'
p64
aS'Chennai visit'
p65
asa(dp66
g2
S'Bharath '
p67
sg10
(lp68
S'http://alturl.com/kwi8b'
p69
asg13
I0
sg16
S'09/28/10 02:43:49'
p70
sg18
S'chennaitweet'
p71
sg20
(lp72
I468
asg22
(lp73
S'# Chennaitweets'
p74
aS'# Chennai'
p75
aS'# Vintage'
p76
asg28
S'Chennai Vintage Cars in Chennai Trade center #Chennaitweets #Chennai #Vintage cars http://alturl.com/kwi8b'
p77
sg30
(lp78
S'Chennai Vintage Cars'
p79
aS'Chennai Trade center'
p80
aS'cars'
p81
asa(dp82
g2
S'Bharanidhar'
p83
sg10
(lp84
S'http://www.thehindu.com/news/cities/Chennai/article799375.ece'
p85
asg13
I0
sg16
S'09/28/10 03:48:12'
p86
sg18
S'bharanidhar'
p87
sg20
(lp88
I121
aI392
asg28
S'well..http://www.thehindu.com/news/cities/Chennai/article799375.ece?homepage=true thanks for whoever it is that initiated it..kudos'
p89
sg30
(lp90
S'homepage'
p91
aS'true thanks'
p92
aS'whoever'
p93
aS'kudos'
p94
asa(dp95
g2
S'Priyaa Iyer'
p96
sg10
(lp97
S'http://www.NoMoreQ.com'
p98
asg13
I0
sg16
S'09/28/10 04:04:43'
p99
sg18
S'priyaamahadevan'
p100
sg20
(lp101
I123
aI124
aI125
aI126
aI127
aI131
asg22
(lp102
S'# EndhiranTickets'
p103
aS'# Chennai'
p104
asg25
(lp105
S'@nishokiyer'
p106
aS'@priyaamahadevan'
p107
asg28
S'@nishokiyer @priyaamahadevan #EndhiranTickets are available online for Sri Lakshmi theatre in #Chennai at http://www.NoMoreQ.com'
p108
sg30
(lp109
S'available online'
p110
aS'Sri Lakshmi theatre'
p111
asa(dp112
g2
S'Venkatraman V'
p113
sg10
(lp114
S'http://t.co/No0sQaE'
p115
asg13
I0
sg16
S'09/28/10 04:08:31'
p116
sg18
S'venkatramanv'
p117
sg20
(lp118
sg28
S'Chennai Autos a law unto themselves but what good can Govt do as law enforcers own multiple autos and rent it out http://t.co/No0sQaE'
p119
sg30
(lp120
S'Chennai Autos'
p121
aS'law'
p122
aS'law enforcers'
p123
aS'own multiple autos'
p124
aS'rent'
p125
asa(dp126
g2
S'Chennai Super Kings'
p127
sg14
S'http://www.chennaisuperkings.com/blog/BlogView.aspx?BlogID=82'
p128
sg10
(lp129
S'http://bit.ly/c91F8R'
p130
asg13
I157
sg16
S'09/28/10 04:21:17'
p131
sg18
S'ChennaiIPL'
p132
sg20
(lp133
I867
asg28
S'The Wanderers at Johannesburg witnessed the Chennai Super Kings blow the final whistle. The journey for three...\nhttp://bit.ly/c91F8R'
p134
sg30
(lp135
S'Wanderers'
p136
aS'Johannesburg'
p137
aS'Chennai Super Kings blow'
p138
aS'final whistle'
p139
aS'journey'
p140
asa(dp141
g2
S'Saravanan Alagarsamy'
p142
sg10
(lp143
S'http://youtu.be/N2XEURELLos'
p144
asg13
I0
sg16
S'09/28/10 04:37:19'
p145
sg18
S'Saravanan07'
p146
sg20
(lp147
sg28
S'Beach Volley Ball WorldCup Theme Chennai - http://youtu.be/N2XEURELLos'
p148
sg30
(lp149
S'Volley Ball WorldCup Theme Chennai'
p150
asa(dp151
g2
S'Joy of Giving Week'
p152
sg10
(lp153
S'http://www.thehindu.com/news/cities/Chennai/article797398.ece'
p154
aS'http://fb.me/KcbAcoyM'
p155
asg13
I0
sg16
S'09/28/10 05:31:41'
p156
sg18
S'JoyofGivingWeek'
p157
sg20
(lp158
sg28
S'http://www.thehindu.com/news/cities/Chennai/article797398.ece http://fb.me/KcbAcoyM'
p159
sa(dp160
g2
S'Manoj_newbie'
p161
sg10
(lp162
S'http://newshunt.com/share/6532174'
p163
asg13
I0
sg16
S'09/28/10 06:11:02'
p164
sg18
S'manojtwitts'
p165
sg20
(lp166
I453
asg28
S'71% of senior citizens in Chennai face abuse   http://newshunt.com/share/6532174'
p167
sg30
(lp168
S'senior citizens'
p169
aS'Chennai face abuse'
p170
asa(dp171
g2
S'Dealivore'
p172
sg7
(lp173
S'Rs 100'
p174
aS'Rs 200'
p175
asg10
(lp176
S'http://fb.me/IcihITrU'
p177
asg13
I0
sg16
S'09/28/10 06:45:12'
p178
sg18
S'Dealivore'
p179
sg20
(lp180
sg28
S'Todays Chennai Deal\nRs 100 for Rs 200 Worth of Lunch Buffet at Green Chillies (24 Hours coffee shop of Ambica... http://fb.me/IcihITrU'
p181
sg30
(lp182
S'Todays Chennai Deal'
p183
aS'Worth'
p184
aS'Lunch Buffet'
p185
aS'Green Chillies'
p186
aS'Hours'
p187
aS'shop'
p188
aS'Ambica'
p189
asa(dp190
g2
S'Sabarish'
p191
sg10
(lp192
S'http://twitpic.com/2spz88'
p193
asg13
I0
sg16
S'09/28/10 07:08:08'
p194
sg18
S'drsabzz'
p195
sg20
(lp196
I290
asg22
(lp197
S'# chennai'
p198
asg28
S'White tiger @ Vandalur zoo #chennai.. http://twitpic.com/2spz88'
p199
sg30
(lp200
S'White tiger'
p201
aS'Vandalur zoo'
p202
asa(dp203
g2
S'Vinay Seshadri'
p204
sg10
(lp205
S'http://rtcl.at/cpgyBR'
p206
asg13
I0
sg16
S'09/28/10 08:38:35'
p207
sg18
S'ytvinay'
p208
sg20
(lp209
sg28
S'Ultimate Frisbee Tournament - Chennai Heat 2010 coming up next weekend. See u there! http://rtcl.at/cpgyBR'
p210
sg30
(lp211
S'Ultimate Frisbee Tournament'
p212
aS'Chennai Heat'
p213
aS'next weekend'
p214
aS'See u'
p215
asa(dp216
g2
S'Times of India'
p217
sg10
(lp218
S'http://toi.in/cka'
p219
asg13
I0
sg16
S'09/28/10 08:43:37'
p220
sg18
S'timesofindia'
p221
sg20
(lp222
I378
aI414
asg28
S'Chennai parents too fall for videsi tag http://toi.in/cka--Z'
p223
sg30
(lp224
S'Chennai parents'
p225
aS'videsi tag'
p226
asa(dp227
g2
S'Indivibe'
p228
sg10
(lp229
S'http://fb.me/KbeKVuhS'
p230
asg13
I0
sg16
S'09/28/10 09:08:16'
p231
sg18
S'indivibe'
p232
sg20
(lp233
sg28
S'Sunday October 3rd 2010: go:madras II Electronic Music Festival on the BEACH in Chennai feat. Jalebee Cartel Live,... http://fb.me/KbeKVuhS'
p234
sg30
(lp235
S'Sunday October'
p236
aS'madras II Electronic Music Festival'
p237
aS'BEACH'
p238
aS'Chennai feat'
p239
aS'Jalebee Cartel Live'
p240
asa(dp241
g2
S'Mohit Sharma'
p242
sg10
(lp243
S'http://tinyurl.com/26kyrgp'
p244
asg13
I0
sg16
S'09/28/10 09:11:40'
p245
sg18
S'_Mohit_Sharma'
p246
sg20
(lp247
sg28
S'NACIL picks Ramco aviation software: CHENNAI, INDIA: Ramco Systems; a provider in consulting, products, and ... http://tinyurl.com/26kyrgp'
p248
sg30
(lp249
S'NACIL picks Ramco aviation software'
p250
aS'CHENNAI'
p251
aS'INDIA'
p252
aS'Ramco Systems'
p253
aS'provider'
p254
aS'consulting'
p255
aS'products'
p256
asa(dp257
g2
S'Festivalsero.com'
p258
sg10
(lp259
S'http://goo.gl/fb/zK6di'
p260
asg13
I0
sg16
S'09/28/10 09:45:04'
p261
sg18
S'festivalsero'
p262
sg20
(lp263
sg22
(lp264
S'# 8230'
p265
aS'# salsa'
p266
aS'# festival'
p267
asg28
S'Chennai International Social Dance Festival 16 - 24 October 2010 Chennai&#8230; http://goo.gl/fb/zK6di #salsa #festival'
p268
sg30
(lp269
S'Chennai International Social Dance Festival'
p270
aS'October'
p271
asa(dp272
g2
S'nerve.in'
p273
sg10
(lp274
S'http://goo.gl/fb/ykIBP'
p275
asg13
I0
sg16
S'09/28/10 11:03:45'
p276
sg18
S'nervein'
p277
sg20
(lp278
sg22
(lp279
S'# news'
p280
aS'# chennai'
p281
asg28
S'Japanese delegation to sign MoU with Tamil Nadu this year http://goo.gl/fb/ykIBP #news #chennai'
p282
sg30
(lp283
S'Japanese delegation'
p284
aS'MoU'
p285
aS'Tamil Nadu'
p286
aS'year'
p287
asa(dp288
g2
S'nsdevaraj'
p289
sg10
(lp290
S'http://twitpic.com/2srdaq'
p291
asg13
I0
sg16
S'09/28/10 11:20:48'
p292
sg18
S'nsdevaraj'
p293
sg20
(lp294
I530
aI556
asg28
S'Java User Group Chennai Big Logo http://twitpic.com/2srdaq'
p295
sg30
(lp296
S'Java User Group Chennai Big Logo'
p297
asa(dp298
g2
S'ETMarketNews'
p299
sg14
S'http://economictimes.indiatimes.com/markets/real-estate/news-/Vascon-to-invest-Rs-2000-cr-in-Chennai-township-project/articleshow/6643719.cms'
p300
sg7
(lp301
S'Rs 2,000-cr'
p302
asg10
(lp303
S'http://bit.ly/bUl8Zs'
p304
asg13
I4
sg16
S'09/28/10 11:55:11'
p305
sg18
S'ETMarketNews'
p306
sg20
(lp307
I562
aI600
asg22
(lp308
S'# News'
p309
aS'# Markets'
p310
asg28
S'#News #Markets Vascon to invest Rs 2,000-cr in Chennai township project http://bit.ly/bUl8Zs'
p311
sg30
(lp312
S'Vascon'
p313
aS'Chennai township project'
p314
asa(dp315
g2
S'SemanticBot'
p316
sg10
(lp317
S'http://is.gd/fxve3'
p318
asg13
I0
sg16
S'09/28/10 13:10:47'
p319
sg18
S'SemanticBot'
p320
sg20
(lp321
sg22
(lp322
S'# SemNews'
p323
asg28
S'#SemNews :Call For Papers - UCC 2010 (Dec. 14-16, 2010, Chennai, India) http://is.gd/fxve3'
p324
sg30
(lp325
S'Call For Papers'
p326
aS'UCC'
p327
aS'Dec'
p328
aS'Chennai'
p329
aS'India'
p330
asa(dp331
g2
S'nerve.in'
p332
sg10
(lp333
S'http://goo.gl/fb/rZvUc'
p334
asg13
I0
sg16
S'09/28/10 13:11:42'
p335
sg18
S'nervein'
p336
sg20
(lp337
sg22
(lp338
S'# news'
p339
aS'# chennai'
p340
asg28
S'Electric vehicles to force auto ancillaries to rejig business http://goo.gl/fb/rZvUc #news #chennai'
p341
sg30
(lp342
S'Electric vehicles'
p343
aS'auto ancillaries'
p344
aS'business'
p345
asa(dp346
g2
S'Balaji Sowmyanarayan'
p347
sg4
(lp348
S'RT'
p349
aS'RT'
p350
asg10
(lp351
S'http://bit.ly/cK1VXp'
p352
asg13
I11
sg14
S'http://www.enidhi.net/2010/09/facebook-developer-garage-chennai-notes.html'
p353
sg16
S'09/28/10 13:29:20'
p354
sg18
S'labsji'
p355
sg20
(lp356
sg22
(lp357
S'# fdgchn'
p358
asg25
(lp359
S'@orangescape'
p360
aS'@enidhi'
p361
aS'@imagesh'
p362
aS'@rprakash'
p363
asg28
S'RT @orangescape: RT  @enidhi My Notes from #fdgchn Chennai Facebook Dev Garage  http://bit.ly/cK1VXp  @imagesh @rprakash'
p364
sg30
(lp365
S'My Notes'
p366
aS'Chennai Facebook Dev Garage'
p367
asa(dp368
g2
S'Aroon Kumar'
p369
sg10
(lp370
S'http://twurl.nl/yqzjsf'
p371
asg13
I0
sg16
S'09/28/10 13:50:05'
p372
sg18
S'aroonkumar123'
p373
sg20
(lp374
I688
asg28
S'CBI asked to be probe death threats to Jayalalitha - \r\n\r\nChennai, Sep 28 (IANS) The Tamil Nadu government Tuesday dec http://twurl.nl/yqzjsf'
p375
sg30
(lp376
S'CBI'
p377
aS'death threats'
p378
aS'Jayalalitha'
p379
aS'Chennai'
p380
aS'Sep'
p381
aS'IANS'
p382
aS'Tamil Nadu government Tuesday dec'
p383
asa(dp384
g2
S'IndiaExamResults.Net'
p385
sg10
(lp386
S'http://cli.gs/d21T3'
p387
asg13
I0
sg16
S'09/28/10 13:55:28'
p388
sg18
S'IndiaExResults'
p389
sg20
(lp390
sg28
S'Anna University (Chennai) Distance Education MCA Results August 2010 http://cli.gs/d21T3'
p391
sg30
(lp392
S'Anna University'
p393
aS'Chennai'
p394
aS'Distance Education MCA Results August'
p395
asa(dp396
g2
S'IndiaExamResults.Net'
p397
sg10
(lp398
S'http://cli.gs/hSYGS'
p399
asg13
I0
sg16
S'09/28/10 13:55:29'
p400
sg18
S'IndiaExResults'
p401
sg20
(lp402
sg28
S'Anna University (Chennai) Distance Education M.Sc Results August 2010 http://cli.gs/hSYGS'
p403
sg30
(lp404
S'Anna University'
p405
aS'Chennai'
p406
aS'Distance Education M.Sc Results August'
p407
asa(dp408
g2
S'Ping Pong'
p409
sg10
(lp410
S'http://yfrog.com/83n3mj'
p411
asg13
I0
sg16
S'09/28/10 14:54:06'
p412
sg18
S'livetimefe'
p413
sg20
(lp414
sg28
S"If you haven't got your &quot;Awww&quot; for the day. Here it is.  Blue Cross Chennai. Come Volunteer!!! http://yfrog.com/83n3mj"
p415
sg30
(lp416
S'" Awww'
p417
aS'day'
p418
aS'Blue Cross Chennai'
p419
aS'Come Volunteer'
p420
asa(dp421
g2
S'vencat'
p422
sg4
(lp423
S'RT'
p424
asg10
(lp425
S'http://twitpic.com/2ss4hl'
p426
asg13
I0
sg16
S'09/28/10 15:32:23'
p427
sg18
S'vencat'
p428
sg20
(lp429
sg25
(lp430
S'@krishashok'
p431
aS'@azaxacavabanama'
p432
asg28
S"Chennai has 'Fall' now? @krishashok: I like instruction nr 8 RT @azaxacavabanama: IIT Metras. Instructions http://twitpic.com/2ss4hl"
p433
sg30
(lp434
S'Chennai'
p435
aS'instruction nr'
p436
aS'IIT Metras'
p437
aS'Instructions'
p438
asa(dp439
g2
S'Automobile Planet'
p440
sg10
(lp441
S'http://goo.gl/fb/tWQMA'
p442
asg13
I0
sg16
S'09/28/10 15:33:46'
p443
sg18
S'Auto_Planet'
p444
sg20
(lp445
sg28
S'Honda City Price in Chennai http://goo.gl/fb/tWQMA'
p446
sg30
(lp447
S'Honda City Price'
p448
aS'Chennai'
p449
asa(dp450
g2
S'vadakkus'
p451
sg14
S'http://www.youtube.com/watch?v=dammjjh2mFU'
p452
sg10
(lp453
S'http://bit.ly/dt0e53'
p454
asg13
I18
sg16
S'09/28/10 15:47:25'
p455
sg18
S'vadakkus'
p456
sg20
(lp457
I771
asg22
(lp458
S'# Endhiran'
p459
aS'# Chennai'
p460
aS'# LegendOfRajni'
p461
aS'# Rajnikanth'
p462
aS'# MindBlowing'
p463
asg28
S'#Endhiran Reservation queue, Satyam Cinemas #Chennai at 6am!! http://bit.ly/dt0e53 #LegendOfRajni #Rajnikanth #MindBlowing'
p464
sg30
(lp465
S'Reservation queue'
p466
aS'Satyam Cinemas'
p467
asa(dp468
g2
S'Clear Moves Inc.'
p469
sg14
S'http://clearmoves.com/?p=23Common'
p470
sg10
(lp471
S'http://bit.ly/c47dTE'
p472
asg13
I3
sg16
S'09/28/10 15:56:24'
p473
sg18
S'clearmoves'
p474
sg20
(lp475
sg28
S'Common Wealth Games fiasco aside, India still poses great competitive threats. Observations from working in Chennai  http://bit.ly/c47dTE'
p476
sg30
(lp477
S'Common Wealth Games fiasco aside'
p478
aS'India'
p479
aS'competitive threats'
p480
aS'Observations'
p481
aS'Chennai'
p482
asa(dp483
g2
S'AJourneyRoundMySkull'
p484
sg14
S'http://privatelibrary.typepad.com/the_private_library/2010/09/the-night-life-of-trees-and-the-private-library.html'
p485
sg10
(lp486
S'http://bit.ly/9lxYVl'
p487
asg13
I6
sg16
S'09/28/10 16:14:13'
p488
sg18
S'roundmyskull'
p489
sg20
(lp490
sg25
(lp491
S'@PrivateLibrary'
p492
aS'@tarabooks'
p493
asg28
S"@PrivateLibrary on Chennai's amazing publisher Tara Books (@tarabooks)    http://bit.ly/9lxYVl"
p494
sg30
(lp495
S'Chennai'
p496
aS'amazing publisher Tara Books'
p497
asa(dp498
g2
S'FIVB'
p499
sg14
S'http://www.fivb.org/viewPressRelease.asp?No=26340&Language=en&utm_source=twitterfeed&utm_medium=twitter'
p500
sg10
(lp501
S'http://bit.ly/aOTI14'
p502
asg13
I2
sg16
S'09/28/10 16:14:50'
p503
sg18
S'FIVBVolleyball'
p504
sg20
(lp505
sg28
S'Malaysian pair excited to be in Chennai Main Draw: Chennai, India, September 28, 2010 - Malaysian pair... http://bit.ly/aOTI14 www.fivb.org'
p506
sg30
(lp507
S'Malaysian pair'
p508
aS'Chennai Main Draw'
p509
aS'Chennai'
p510
aS'India'
p511
aS'September'
p512
aS'Malaysian pair'
p513
asa(dp514
g2
S'nerve.in'
p515
sg10
(lp516
S'http://goo.gl/fb/AUtGx'
p517
asg13
I0
sg16
S'09/28/10 16:37:14'
p518
sg18
S'nervein'
p519
sg20
(lp520
sg22
(lp521
S'# news'
p522
aS'# chennai'
p523
asg28
S'Court orders closure of Sterlites copper smelter plant http://goo.gl/fb/AUtGx #news #chennai'
p524
sg30
(lp525
S'Court orders'
p526
aS'Sterlites copper smelter plant'
p527
asa(dp528
g2
S'Geex HQ'
p529
sg14
S'http://geexhq.com/software-freedom-day-2010/'
p530
sg10
(lp531
S'http://bit.ly/9E8Hxh'
p532
asg13
I4
sg16
S'09/28/10 17:09:58'
p533
sg18
S'geexhq'
p534
sg20
(lp535
I834
asg28
S'Software Freedom Day-2010 Celebration in Chennai (by ilugc &amp; jaya foss club) http://bit.ly/9E8Hxh'
p536
sg30
(lp537
S'Software Freedom'
p538
aS'Celebration'
p539
aS'Chennai'
p540
aS'ilugc'
p541
aS'jaya foss'
p542
asa(dp543
g2
S'Prosenjit Chakrabort'
p544
sg10
(lp545
S'http://in.yfittopostblog.com/2010/09/28/iim-ahmedabad-tops-list-of-b-schools-in-india/'
p546
asg13
I0
sg16
S'09/28/10 17:50:26'
p547
sg18
S'prosenjit_c'
p548
sg20
(lp549
sg28
S'LIBA, Chennai, top 10 B-schools in INDIA http://in.yfittopostblog.com/2010/09/28/iim-ahmedabad-tops-list-of-b-schools-in-india/'
p550
sg30
(lp551
S'LIBA'
p552
aS'Chennai'
p553
aS'B-schools'
p554
aS'INDIA'
p555
asa.