(lp0
(dp1
S'name'
p2
S'Thearchaeologicalbox'
p3
sS'long-url'
p4
S'http://www.thearchaeologicalbox.com/en/news/largest-stone-age-settlement-found-near-chennai'
p5
sS'url'
p6
(lp7
S'http://bit.ly/aHdaxi'
p8
asS'bitly'
p9
I1
sS'pub'
p10
S'09/26/10 00:19:19'
p11
sS'nick'
p12
S'ArchaeoBox'
p13
sS'has_r'
p14
(lp15
sS'msg'
p16
S'Largest stone age settlement found near Chennai - TheArchaeologicalBox.com http://bit.ly/aHdaxi'
p17
sS'phrase'
p18
(lp19
S'Largest stone age settlement'
p20
aS'Chennai'
p21
asa(dp22
g2
S'CalcuttaTube News'
p23
sg6
(lp24
S'http://t.co/Dq3e04e'
p25
asg9
I1
sg10
S'09/26/10 02:29:27'
p26
sg12
S'calcuttatube'
p27
sg14
(lp28
sS'dialog'
p29
(lp30
S'@calcuttatube'
p31
asg16
S'Thailand paint group mulls plant in Chennai http://t.co/Dq3e04e via @calcuttatube'
p32
sg18
(lp33
S'Thailand'
p34
aS'group mulls plant'
p35
aS'Chennai'
p36
asa(dp37
g2
S'BMW Z4Roadster'
p38
sS'forwards'
p39
(lp40
S'RT'
p41
asg6
(lp42
S'http://r.sm3.jp/xjy'
p43
aS'http://r.sm3.jp/xjz'
p44
asg9
I1
sg10
S'09/26/10 02:49:28'
p45
sg12
S'BMW_Z4'
p46
sg14
(lp47
sg16
S'RT http://r.sm3.jp/xjy Check this video out -- BMW Z4 @ Auto Expo 2010,Chennai http://r.sm3.jp/xjz'
p48
sg18
(lp49
S'Check'
p50
aS'video'
p51
aS'BMW Z4 @ Auto Expo'
p52
asa(dp53
g2
S'piyush'
p54
sg6
(lp55
S'http://nblo.gs/8kXBu'
p56
asg9
I1
sg10
S'09/26/10 03:48:50'
p57
sg12
S'pithwa'
p58
sg14
(lp59
sS'tag'
p60
(lp61
S'# 8211'
p62
asg16
S'India Search Summit Chennai &#8211; Search Marketing 2010 India http://nblo.gs/8kXBu'
p63
sg18
(lp64
S'India Search Summit Chennai'
p65
aS'Search Marketing'
p66
aS'India'
p67
asa(dp68
g2
S'mark grip'
p69
sS'long-url'
p70
S'http://www.google.com/url?sa=X&q=http://www.dnaindia.com/mumbai/report_enthiran-s-tickets-sold-out-within-minutes-in-tamil-nadu_1443382&ct=ga&cad=:s7:f1:v0:d2:i0:lt:e0:p0:t1285474424:&cd=rXgHN_lY334&usg=AFQjCNGn3JOezcIx5ISJRmxFj6_rhNMLEg&utm_source=twitterfeed&utm_medium=twitter'
p71
sg6
(lp72
S'http://bit.ly/baCbno'
p73
asg9
I2
sg10
S'09/26/10 04:13:54'
p74
sg12
S'mark_want'
p75
sg14
(lp76
sg16
S"Enthiran's tickets sold out within minutes in Tamil Nadu: By D Ram Raj | Place: Chennai | Agency: DNA Science fict... http://bit.ly/baCbno"
p77
sg18
(lp78
S'Enthiran'
p79
aS'tickets'
p80
aS'minutes'
p81
aS'Tamil Nadu'
p82
aS'D Ram Raj'
p83
aS'Place'
p84
aS'Chennai'
p85
aS'Agency'
p86
aS'DNA Science fict'
p87
asa(dp88
g2
S'Sarah Sedar'
p89
sg4
S'http://www.google.com/url?sa=X&q=http://expressbuzz.com/cities/chennai/colleges-lose-sleep-over-unqualified-staff/210004.html&ct=ga&cad=:s7:f1:v0:d2:i0:lt:e0:p0:t1285476020:&cd=yBhnG7_hSC8&usg=AFQjCNGYm_EfCcUj6H6Pbz-DL-kMcHZ_Yw&utm_source=twitterfeed&utm_medium=twitter'
p90
sg6
(lp91
S'http://bit.ly/aLKo16'
p92
asg9
I1
sg10
S'09/26/10 04:40:28'
p93
sg12
S'SarahS89117'
p94
sg14
(lp95
sg16
S"Colleges lose sleep over unqualified staff: CHENNAI: Madras University vice-chancellor G Thiruvasagam's announceme... http://bit.ly/aLKo16"
p96
sg18
(lp97
S'Colleges'
p98
aS'sleep'
p99
aS'unqualified staff'
p100
aS'CHENNAI'
p101
aS'Madras University vice-chancellor G Thiruvasagam'
p102
aS'announceme'
p103
asa(dp104
g2
S'Vidhi Gandhi'
p105
sg70
S'http://chordvine.com/dispatches/gomadras-announced'
p106
sg6
(lp107
S'http://bit.ly/ad3YIq'
p108
asg9
I13
sg10
S'09/26/10 04:50:43'
p109
sg12
S'Vidhii'
p110
sg14
(lp111
I211
aI435
aI436
asg16
S"Chennai's premiere dance music festival, Go:Madras announced! Go here for lineup details and all else: http://bit.ly/ad3YIq !"
p112
sg18
(lp113
S'Chennai'
p114
aS'premiere dance music festival'
p115
aS'Go'
p116
aS'Madras'
p117
aS'Go'
p118
aS'lineup details'
p119
asa(dp120
g2
S'Akib Jabed'
p121
sg70
S'http://m.cricinfo.com/s/2497/NewsV3?storyNo=478726&allinOne=true'
p122
sg6
(lp123
S'http://bit.ly/bZLCbu'
p124
asg9
I5
sg10
S'09/26/10 05:38:04'
p125
sg12
S'akib_jabed'
p126
sg14
(lp127
I283
aI299
aI303
aI371
aI440
aI470
aI486
aI495
aI505
aI563
aI600
aI602
aI649
aI654
aI657
aI669
aI673
aI743
aI806
aI819
aI823
aI905
aI911
asg16
S"Dhoni's Chennai seek perfect farewell http://bit.ly/bZLCbu"
p128
sg18
(lp129
S'Dhoni'
p130
aS'Chennai seek perfect farewell'
p131
asa(dp132
g2
S'Vinoth Chandar'
p133
sg70
S'http://www.flickr.com/photos/indianartistgallery/5025275472/in/pool-97785665@N00'
p134
sg6
(lp135
S'http://bit.ly/dliREx'
p136
asg9
I4
sg10
S'09/26/10 05:50:02'
p137
sg12
S'Vinoth27'
p138
sg14
(lp139
sg60
(lp140
S'# Paint'
p141
aS'# Drawing'
p142
aS'# art'
p143
aS'# photography'
p144
asg16
S'#Paint #Drawing Indian Woman in my pen drawing - line drawing - Chennai Animation Artist... http://bit.ly/dliREx #art #photography'
p145
sg18
(lp146
S'Indian Woman'
p147
aS'pen'
p148
aS'line drawing'
p149
aS'Chennai Animation Artist'
p150
asa(dp151
g2
S'Upendra chaudhary'
p152
sg70
S'http://expressbuzz.com/cities/chennai/untouchability-in-chennai-yes-shows-survey/209762.html'
p153
sg6
(lp154
S'http://bit.ly/d5CwCY'
p155
asg9
I3
sg10
S'09/26/10 06:44:34'
p156
sg12
S'Upendra2k2'
p157
sg14
(lp158
sg29
(lp159
S'@addthis'
p160
asg16
S'untouchability-in-chennai-yes-shows-survey: http://bit.ly/d5CwCY via @addthis'
p161
sg18
(lp162
S'untouchability-in-chennai-yes-shows-survey'
p163
asa(dp164
g2
S'The Automotive India'
p165
sg6
(lp166
S'http://fb.me/D19l3TOX'
p167
asg9
I1
sg10
S'09/26/10 08:19:36'
p168
sg12
S'theautomotive'
p169
sg14
(lp170
sg16
S"The Automotive India's ANNIVERSARY OFFICIAL CHENNAI MEGA MEET is Just Around the Corner, Make Sure you don't miss... http://fb.me/D19l3TOX"
p171
sg18
(lp172
S'Automotive India'
p173
aS'ANNIVERSARY OFFICIAL CHENNAI MEGA MEET'
p174
aS'Just Around'
p175
aS'Corner'
p176
aS'Make Sure'
p177
asa(dp178
g2
S'tnewsindia'
p179
sg6
(lp180
S'http://ow.ly/19aipS'
p181
asg9
I1
sg10
S'09/26/10 08:21:41'
p182
sg12
S'tnewsindia'
p183
sg14
(lp184
sg60
(lp185
S'# india'
p186
aS'# news'
p187
asg29
(lp188
S'@DNA'
p189
asg16
S'@DNA #india #news Rack panel collapses in Chennai-bound aircraft, none injured http://ow.ly/19aipS'
p190
sg18
(lp191
S'Rack panel collapses'
p192
aS'Chennai-bound aircraft'
p193
aS'none'
p194
asa(dp195
g2
S'Sheik Nizamuddin'
p196
sg39
(lp197
S'RT'
p198
asg6
(lp199
S'http://bit.ly/cgeKLZ'
p200
asg9
I5
sg70
S'http://www.google.com/url?sa=X&q=http://movies.ndtv.com/movie_story.aspx%3FSection%3DMovies%26ID%3DENTEN20100154445%26subcatg%3DMOVIESINDIA%26keyword%3Dregional%26nid%3D54904&ct=ga&cad=:s7:f1:v0:d2:i0:lt:e0:p0:t1285491409:&cd=rwid4R7jvk4&usg=AFQjCNH92eOf9a39Mbr1Nrag1-sCRpKWbQ'
p201
sg10
S'09/26/10 09:14:33'
p202
sg12
S'sheikn'
p203
sg14
(lp204
sg29
(lp205
S'@FastandFree'
p206
asg16
S"RT @FastandFree: Rajini's Endhiran: A sell out in Chennai http://bit.ly/cgeKLZ"
p207
sg18
(lp208
S'Rajini'
p209
aS'Endhiran'
p210
aS'sell'
p211
aS'Chennai'
p212
asa(dp213
g2
S'karpaganetwork'
p214
sg6
(lp215
S'http://ow.ly/19aj1b'
p216
asg9
I1
sg10
S'09/26/10 09:23:12'
p217
sg12
S'karpaganetwork'
p218
sg14
(lp219
sg16
S'H_NP: Encroachments in Velachery removed - The Highways Department, with the assistance of Chennai Corporation and p... http://ow.ly/19aj1b'
p220
sg18
(lp221
S'H_NP'
p222
aS'Encroachments'
p223
aS'Velachery'
p224
aS'Highways Department'
p225
aS'assistance'
p226
aS'Chennai Corporation'
p227
asa(dp228
g2
S'Swine Flu'
p229
sg4
S'http://www.bioportfolio.com/news/article/158350/Four-More-Swine-Flu-Deaths-In-Madhya-Pradesh.html?utm_source=twitterfeed&utm_medium=twitter&utm_campaign=swineflu'
p230
sg6
(lp231
S'http://bit.ly/bCFmea'
p232
asg9
I1
sg10
S'09/26/10 10:05:46'
p233
sg12
S'SwineFluFlash'
p234
sg14
(lp235
sg16
S'Four more swine flu deaths in Madhya Pradesh: Chennai Online  Bhopal, Sep 26 Four more persons succumbed to H1N1 v... http://bit.ly/bCFmea'
p236
sg18
(lp237
S'more swine flu deaths'
p238
aS'Madhya Pradesh'
p239
aS'Chennai Online Bhopal'
p240
aS'Sep'
p241
aS'more persons'
p242
aS'H1N1 v'
p243
asa(dp244
g2
S'Mohit Sharma'
p245
sg6
(lp246
S'http://tinyurl.com/2aqhsvf'
p247
asg9
I1
sg10
S'09/26/10 10:06:41'
p248
sg12
S'_Mohit_Sharma'
p249
sg14
(lp250
sg16
S'Jaya seeks immediate closure of mineral water company: Chennai, Sep 25 : Accusing the ruling DMK in Tamil Na... http://tinyurl.com/2aqhsvf'
p251
sg18
(lp252
S'Jaya'
p253
aS'immediate closure'
p254
aS'mineral water company'
p255
aS'Chennai'
p256
aS'Sep'
p257
aS'Accusing'
p258
aS'ruling DMK'
p259
aS'Tamil Na'
p260
asa(dp261
g2
S'Automobile Planet'
p262
sg6
(lp263
S'http://goo.gl/fb/rfCtE'
p264
asg9
I1
sg10
S'09/26/10 10:28:50'
p265
sg12
S'Auto_Planet'
p266
sg14
(lp267
sg16
S'Tata Indigo Manza Price in Chennai http://goo.gl/fb/rfCtE'
p268
sg18
(lp269
S'Tata Indigo Manza Price'
p270
aS'Chennai'
p271
asa(dp272
g2
S'Gaurav Mishra '
p273
sg70
S'http://gauravmishra.wordpress.com/2010/09/26/osidays-2010-css3/'
p274
sg6
(lp275
S'http://bit.ly/9AP3MP'
p276
asg9
I8
sg10
S'09/26/10 12:06:14'
p277
sg12
S'gauravmishr'
p278
sg14
(lp279
sg60
(lp280
S'# osidays'
p281
asg16
S'OSI Days 2010 (The Chennai experience) from wp blog http://bit.ly/9AP3MP #osidays'
p282
sg18
(lp283
S'OSI Days'
p284
aS'Chennai experience'
p285
aS'wp blog'
p286
asa(dp287
g2
S'Samarpan Found. News'
p288
sg6
(lp289
S'http://tinyurl.com/2789ak9'
p290
asg9
I1
sg10
S'09/26/10 12:34:36'
p291
sg12
S'focusoutwards'
p292
sg14
(lp293
sg16
S'See new pictures of the Mosquito eradication / Fogging project in Chennai click here: http://tinyurl.com/2789ak9'
p294
sg18
(lp295
S'See'
p296
aS'new pictures'
p297
aS'Mosquito eradication'
p298
aS'Fogging project'
p299
aS'Chennai click'
p300
asa(dp301
g2
S'LaurieMcCulloch'
p302
sg4
S'http://www.google.com/url?sa=X&q=http://www.youtube.com/%3Fv%3D-OKc8_OiV8c&ct=ga&cad=:s7:f1:v0:d2:i1:lt:e0:p0:t1285510100:&cd=8hB2v6M2UBY&usg=AFQjCNHl3NXpdGaTSXwVLUAA6GDh7UNNyw'
p303
sg6
(lp304
S'http://bit.ly/aj8EQs'
p305
asg9
I1
sg10
S'09/26/10 14:08:25'
p306
sg12
S'Geek_Feed'
p307
sg14
(lp308
sg16
S'WAP: YouTube - RF at Chennai : WAP-4 vs WAM-4 http://bit.ly/aj8EQs'
p309
sg18
(lp310
S'WAP'
p311
aS'YouTube'
p312
aS'RF'
p313
aS'Chennai'
p314
asa(dp315
g2
S'Sojo Varughese'
p316
sg39
(lp317
S'RT'
p318
asg6
(lp319
S'http://bit.ly/99cYZ5'
p320
asg9
I1
sg4
S'http://expressbuzz.com/cities/chennai/untouchability-in-chennai-yes-shows-survey/209762.html?ref=nf'
p321
sg10
S'09/26/10 18:08:44'
p322
sg12
S'sojovarughese'
p323
sg14
(lp324
sg29
(lp325
S'@TheMachoMaestro'
p326
aS'@addthis'
p327
asg16
S'RT @TheMachoMaestro: untouchability-in-chennai-yes-shows-survey: http://bit.ly/99cYZ5 via @addthis'
p328
sa.