(lp0
(dp1
S'name'
p2
S'Friends Forever'
p3
sS'long-url'
p4
S'http://alagukanthavel.blogspot.com/2010/09/chennai-super-kings-vs-victorian.html'
p5
sS'url'
p6
(lp7
S'http://bit.ly/c6xDng'
p8
asS'bitly'
p9
I2
sS'pub'
p10
S'09/19/10 01:36:41'
p11
sS'nick'
p12
S'akv_params'
p13
sS'has_r'
p14
(lp15
sS'msg'
p16
S'Chennai Super Kings vs Victorian Bushrangers Highlights Videos,Photos | SA 2010 CLT20 Live Streaming http://bit.ly/c6xDng'
p17
sS'phrase'
p18
(lp19
S'Chennai Super Kings'
p20
aS'Victorian Bushrangers Highlights Videos,Photos'
p21
aS'SA'
p22
aS'CLT20 Live Streaming'
p23
asa(dp24
g2
S'Winnie john wilson'
p25
sg4
S'http://www.thesportscampus.com/201009187636/domestic-t20/victoria-bushrangers-beat-chennai-super-kings-in-super-over'
p26
sg6
(lp27
S'http://bit.ly/bElFty'
p28
asg9
I4
sg10
S'09/19/10 01:37:52'
p29
sg12
S'winniewlsn'
p30
sg14
(lp31
I35
asg16
S'Victoria Bushrangers beat Chennai Super Kings in Super Over thriller http://bit.ly/bElFty'
p32
sg18
(lp33
S'Victoria Bushrangers'
p34
aS'Chennai Super Kings'
p35
aS'Super Over thriller'
p36
asa(dp37
g2
S'Swine Flu Protection'
p38
sg4
S'http://www.google.com/url?sa=X&q=http://timesofindia.indiatimes.com/city/chennai/Six-city-corpn-labs-to-provide-H1N1-vaccines/articleshow/6583116.cms&ct=ga&cad=:s7:f1:v0:d2:i0:lt:e0:p0:t1284861661:&cd=NDB9IwjOu5I&usg=AFQjCNHR2CXenDNdDFdhb8f4NW0aJvNw9g'
p39
sg6
(lp40
S'http://bit.ly/4ngDZN'
p41
aS'http://bit.ly/9EpO8a'
p42
asg9
I2
sg10
S'09/19/10 02:01:40'
p43
sg12
S'swine_flu_pro'
p44
sg14
(lp45
I28
asS'r'
p46
I28
sg16
S'http://bit.ly/4ngDZN Six city corpn labs to provide H1N1 vaccines: CHENNAI: Taking note of the second wave of H1N1... http://bit.ly/9EpO8a'
p47
sg18
(lp48
S'city corpn labs'
p49
aS'H1N1 vaccines'
p50
aS'CHENNAI'
p51
aS'Taking note'
p52
aS'second wave'
p53
aS'H1N1'
p54
asa(dp55
g2
S'influenza.ws'
p56
sg4
S'http://www.google.com/url?sa=X&q=http://timesofindia.indiatimes.com/city/chennai/Six-city-corpn-labs-to-provide-H1N1-vaccines/articleshow/6583116.cms&ct=ga&cad=:s1:f1:v0:d2:i0:lt:e0:p0:t1284863655:&cd=o4RS924S0jQ&usg=AFQjCNHR2CXenDNdDFdhb8f4NW0aJvNw9g&utm_source=www.influenza.ws&utm_medium=twitter'
p57
sg6
(lp58
S'http://bit.ly/cqhjVj'
p59
asg9
I2
sg10
S'09/19/10 02:34:19'
p60
sg12
S'Influenzavirusx'
p61
sg14
(lp62
sg16
S'www.influenza.ws Six city corpn labs to provide H1N1 vaccines http://bit.ly/cqhjVj'
p63
sg18
(lp64
S'www.influenza.ws'
p65
aS'city corpn labs'
p66
aS'H1N1 vaccines'
p67
asa(dp68
g2
S'Brenda Small'
p69
sg4
S'http://www.google.com/url?sa=X&q=http://timesofindia.indiatimes.com/city/chennai/Living-Legend-Of-Carnatic-Music-Turns-80/articleshow/6581757.cms&ct=ga&cad=:s7:f1:v0:d2:i0:lt:e0:p0:t1284864853:&cd=avgs9YjUuag&usg=AFQjCNFPEtsYKrt4iU9atma4f4fItXmsyQ&utm_source=twitterfeed&utm_medium=twitter'
p70
sg6
(lp71
S'http://bit.ly/cafuC2'
p72
asg9
I2
sg10
S'09/19/10 02:54:16'
p73
sg12
S'socialspeedster'
p74
sg14
(lp75
I59
asg16
S'Living Legend Of Carnatic Music Turns 80: CHENNAI: His music is ageless, so it was fitting that on his 80th birthd... http://bit.ly/cafuC2'
p76
sg18
(lp77
S'Legend Of Carnatic Music Turns'
p78
aS'CHENNAI'
p79
aS'His music'
p80
aS'ageless'
p81
aS'80th birthd'
p82
asa(dp83
g2
S'ibnlive'
p84
sg4
S'http://ibnlive.in.com/generalnewsfeed/news/mary-kom-defends-world-chship-title/335425.html'
p85
sg6
(lp86
S'http://bit.ly/cETxs1'
p87
asg9
I35
sg10
S'09/19/10 03:22:34'
p88
sg12
S'ibnlive'
p89
sg14
(lp90
I164
asg16
S"And while Chennai lose in the super over, India's very own Mary Kom defends her world boxing title http://bit.ly/cETxs1"
p91
sg18
(lp92
S'Chennai lose'
p93
aS'super'
p94
aS'India'
p95
aS'own Mary Kom'
p96
aS'world'
p97
aS'title'
p98
asa(dp99
g2
S'BreakingNewsOnline'
p100
sg4
S'http://www.breakingnewsonline.net/cricket/4066-victoria-bushrangers-beat-chennai-super-kings-in-clt20.html'
p101
sg6
(lp102
S'http://bit.ly/dr7BZz'
p103
asg9
I3
sg10
S'09/19/10 04:10:25'
p104
sg12
S'A1BreakingNews'
p105
sg14
(lp106
sS'dialog'
p107
(lp108
S'@addthis'
p109
asg16
S'Victoria Bushrangers beat Chennai Super Kings in CLT20: http://bit.ly/dr7BZz via @addthis'
p110
sg18
(lp111
S'Victoria Bushrangers'
p112
aS'Chennai Super Kings'
p113
aS'CLT20'
p114
asa(dp115
g2
S'Namitha T'
p116
sg4
S'http://feedproxy.google.com/~r/RateVin/~3/gX3CTYY7tkw/story.php'
p117
sg6
(lp118
S'http://bit.ly/dAtWr3'
p119
asg9
I2
sg10
S'09/19/10 04:19:28'
p120
sg12
S'namitha26'
p121
sg14
(lp122
sg16
S'CLT20 2010: Chennai Super Kings Tied With Victoria Bushrangers: Victoria Won In Super Over http://bit.ly/dAtWr3'
p123
sg18
(lp124
S'CLT20'
p125
aS'Chennai Super Kings Tied With Victoria Bushrangers'
p126
aS'Victoria Won In Super Over'
p127
asa(dp128
g2
S'Sarim Zafar'
p129
sg4
S'http://clt-lb-1-1012766854.eu-west-1.elb.amazonaws.com/CLT20/videos.cl?photoId=157&cat=MR'
p130
sg6
(lp131
S'http://bit.ly/cctgcY'
p132
asg9
I3
sg10
S'09/19/10 04:35:50'
p133
sg12
S'LiveSports11'
p134
sg14
(lp135
sS'tag'
p136
(lp137
S'# SuperOver'
p138
aS'# Chennai'
p139
aS'# SuperKings'
p140
aS'# Victoria'
p141
aS'# Bushrangers'
p142
aS'# CLT20'
p143
aS'# Cricket'
p144
asg16
S'Highlights of the #SuperOver b/w #Chennai #SuperKings and #Victoria #Bushrangers http://bit.ly/cctgcY  #CLT20 #Cricket'
p145
sg18
(lp146
S'Highlights'
p147
aS'b/w'
p148
asa(dp149
g2
S'IndiaNews247'
p150
sg4
S'http://www.espnstar.com/cricket/news/detail/item501695?utm_source=twitterfeed&utm_medium=twitter'
p151
sg6
(lp152
S'http://bit.ly/aKu3iJ'
p153
asg9
I2
sg10
S'09/19/10 04:40:14'
p154
sg12
S'IndiaNews247'
p155
sg14
(lp156
I161
asg16
S'Dhoni: Victoria got a perfect start: A disappointed  Chennai Super Kings captain MS Dhoni said that a good opening... http://bit.ly/aKu3iJ'
p157
sg18
(lp158
S'Dhoni'
p159
aS'Victoria'
p160
aS'perfect start'
p161
aS'disappointed Chennai Super Kings captain MS Dhoni'
p162
aS'good opening'
p163
asa(dp164
g2
S'In India'
p165
sg4
S'http://www.mmail.com.my/content/49728-indian-film-enthiran-hit-world-screen-oct-1'
p166
sg6
(lp167
S'http://bit.ly/9TCms8'
p168
asg9
I3
sg10
S'09/19/10 05:02:47'
p169
sg12
S'InIndia'
p170
sg14
(lp171
sg16
S"CHENNAI : The much-awaited South Indian thriller 'Enthiran' is all set for its world release on Oct 1, Press Trust... http://bit.ly/9TCms8"
p172
sg18
(lp173
S'CHENNAI'
p174
aS"much-awaited South Indian thriller 'Enthiran"
p175
aS'set'
p176
aS'world release'
p177
aS'Oct'
p178
aS'Press Trust'
p179
asa(dp180
g2
S'DeepWarriors'
p181
sg4
S'http://deepwarriors.com/clt20-match-results-victoria-bushrangers-beat-chennai-super-kings/?utm_source=twitterfeed&utm_medium=twitter'
p182
sg6
(lp183
S'http://bit.ly/cuUv2c'
p184
asg9
I2
sg10
S'09/19/10 05:23:07'
p185
sg12
S'DeepWarriors'
p186
sg14
(lp187
sg16
S'CLT20 Match Results: Victoria Bushrangers Beat Chennai Super Kings http://bit.ly/cuUv2c'
p188
sg18
(lp189
S'CLT20 Match Results'
p190
aS'Victoria Bushrangers Beat Chennai Super Kings'
p191
asa(dp192
g2
S'Ringtopia'
p193
sg4
S'http://gosteri.org/X3NVSGtxem9JODA=-q/chennai-super-kings-loses-out-in-super-over.html?utm_source=twitterfeed&utm_medium=twitter'
p194
sg6
(lp195
S'http://bit.ly/a0vfkr'
p196
asg9
I6
sg10
S'09/19/10 05:51:44'
p197
sg12
S'Ringtopia'
p198
sg14
(lp199
I212
aI213
aI214
aI215
asg16
S'Chennai Super Kings loses out in Super Over: \nTV5 News @ 11AM 19th September 2010 http://bit.ly/a0vfkr'
p200
sg18
(lp201
S'Chennai Super Kings'
p202
aS'Super Over'
p203
aS'TV5 News @'
p204
aS'September'
p205
asa(dp206
g2
S'Anto Vimal Ratharaj'
p207
sg4
S'http://timesofindia.indiatimes.com/city/chennai/Children-excited-about-Anna-Centenary-Library-on-day-one/articleshow/6568830.cms'
p208
sg6
(lp209
S'http://bit.ly/akO9BO'
p210
asg9
I3
sg10
S'09/19/10 05:56:06'
p211
sg12
S'antovimal'
p212
sg14
(lp213
sg107
(lp214
S'@rbmbharathi'
p215
asg16
S'@rbmbharathi oh ok, heard it the first time, but was just amazed to read about the new sophisticated library http://bit.ly/akO9BO'
p216
sg18
(lp217
S'oh ok'
p218
aS'heard'
p219
aS'first time'
p220
aS'sophisticated library'
p221
asa(dp222
g2
S'Brit Asia'
p223
sg4
S'http://twitter.com/inindia/statuses/24909559713?utm_source=twitterfeed&utm_medium=twitter'
p224
sg6
(lp225
S'http://bit.ly/9eYiim'
p226
asg9
I2
sg10
S'09/19/10 05:56:35'
p227
sg12
S'britasia'
p228
sg14
(lp229
sg16
S"inindia: CHENNAI : The much-awaited South Indian thriller 'Enthiran' is all set for its world release on Oct 1, Pr... http://bit.ly/9eYiim"
p230
sg18
(lp231
S'inindia'
p232
aS'CHENNAI'
p233
aS"much-awaited South Indian thriller 'Enthiran"
p234
aS'set'
p235
aS'world release'
p236
aS'Oct'
p237
aS'Pr'
p238
asa(dp239
g2
S'Sports Kaori Z3'
p240
sg4
S'http://sports.sushi-chan.net/car-racing/154685.html'
p241
sg6
(lp242
S'http://bit.ly/9L2rvt'
p243
asg9
I2
sg10
S'09/19/10 06:35:49'
p244
sg12
S'sportskaoriz3'
p245
sg14
(lp246
I361
asg16
S'Hamilton enthrals Chennai fans - Express Buzz http://bit.ly/9L2rvt'
p247
sg18
(lp248
S'Hamilton enthrals Chennai fans'
p249
aS'Express Buzz'
p250
asa(dp251
g2
S'India Today'
p252
sg4
S'http://indiatoday.intoday.in/site/Video/113266/44/Videos/chennai-ambushed-in-super-over.html?utm_source=twitterfeed&utm_medium=twitter'
p253
sg6
(lp254
S'http://bit.ly/bGHmTw'
p255
asg9
I6
sg10
S'09/19/10 08:26:28'
p256
sg12
S'india_today'
p257
sg14
(lp258
sg16
S'VIDEO - Chennai lose in Super Over http://bit.ly/bGHmTw'
p259
sg18
(lp260
S'VIDEO'
p261
aS'Chennai lose'
p262
aS'Super Over'
p263
asa(dp264
g2
S'Arvind Subu'
p265
sS'forwards'
p266
(lp267
S'RT'
p268
asg6
(lp269
S'http://bit.ly/cVKvR0'
p270
asg9
I45
sg4
S'http://www.chennaisuperkings.com/CL/news/NewsContent.aspx?NewsID=313'
p271
sg10
S'09/19/10 08:40:09'
p272
sg12
S'ara_subu'
p273
sg14
(lp274
sg107
(lp275
S'@ChennaiIPL'
p276
asg16
S'RT @ChennaiIPL: Port Elizabeth: The Victoria Bushrangers snatched a dramatic Super Over win against the Chennai Super Kings to stay...\nhttp://bit.ly/cVKvR0'
p277
sg18
(lp278
S'Port Elizabeth'
p279
aS'Victoria Bushrangers'
p280
aS'dramatic Super Over'
p281
aS'Chennai Super Kings'
p282
asa(dp283
g2
S'cricket20'
p284
sg4
S'http://www.cricket20.com/news/article.asp?NewsID=5771&utm_source=twitterfeed&utm_medium=twitter'
p285
sg6
(lp286
S'http://bit.ly/9mp2IR'
p287
asg9
I3
sg10
S'09/19/10 09:52:39'
p288
sg12
S'cricket_20'
p289
sg14
(lp290
sg16
S'Dhoni disappointed with Super Over defeat: Chennai Super Kings skipper MS Dhoni was disappointed with his sides he... http://bit.ly/9mp2IR'
p291
sg18
(lp292
S'Dhoni'
p293
aS'Super Over defeat'
p294
aS'Chennai Super Kings skipper MS Dhoni'
p295
aS'sides'
p296
asa(dp297
g2
S'Rajmahendra ( Raj )'
p298
sg4
S'http://www.facebook.com/album.php?aid=38346&id=133359730009404&fbid=159374417407935'
p299
sg6
(lp300
S'http://bit.ly/ceNRrJ'
p301
asg9
I12
sg10
S'09/19/10 10:03:19'
p302
sg12
S'rajmahendra'
p303
sg14
(lp304
I540
aI541
aI542
aI543
aI544
aI546
asg136
(lp305
S'# SoftwareFreedomDay'
p306
asg16
S'Pics from Chennai #SoftwareFreedomDay  http://bit.ly/ceNRrJ'
p307
sg18
(lp308
S'Pics'
p309
aS'Chennai'
p310
asa(dp311
g2
S'FAHIM AHMAD'
p312
sg4
S'http://feedproxy.google.com/~r/ndtv/Lsgd/~3/kfLxMHDwUEo/chennai-girl-becomes-first-woman-to-raise-sword-of-honour-52902'
p313
sg6
(lp314
S'http://bit.ly/dzPnhe'
p315
asg9
I2
sg10
S'09/19/10 10:34:29'
p316
sg12
S'fahimangel'
p317
sg14
(lp318
sg136
(lp319
S'# 8216'
p320
aS'# 8217'
p321
asg16
S'Chennai girl becomes first woman to raise &#8216;Sword of Honour&#8217; http://bit.ly/dzPnhe'
p322
sg18
(lp323
S'Chennai girl'
p324
aS'first woman'
p325
aS'Sword'
p326
aS'Honour&'
p327
asa(dp328
g2
S'Atul Jain'
p329
sg4
S'http://m.cricinfo.com/s/2497/NewsV3?storyNo=477689&allinOne=true'
p330
sg6
(lp331
S'http://bit.ly/cdIxSF'
p332
asg9
I3
sg10
S'09/19/10 10:57:31'
p333
sg12
S'Atuljains'
p334
sg14
(lp335
I662
asg16
S'Bad luck for chennai.\nYou cant blame any body for super over. http://bit.ly/cdIxSF'
p336
sg18
(lp337
S'Bad luck'
p338
aS'chennai'
p339
aS'body'
p340
aS'super'
p341
asa(dp342
g2
S'Champions League T20'
p343
sg266
(lp344
S'RT'
p345
asg6
(lp346
S'http://bit.ly/9OfTQy'
p347
asg9
I34
sg4
S'http://cricket.com.au/?s=news-display&id=21856'
p348
sg10
S'09/19/10 11:14:40'
p349
sg12
S'CLtwentytwenty'
p350
sg14
(lp351
I670
asg107
(lp352
S'@CricketAus'
p353
asg16
S'RT @CricketAus: Vics beat Chennai in Super over: Three super over sixes from David Hussey have fired Victoria to a thrilling victo... http://bit.ly/9OfTQy'
p354
sg18
(lp355
S'Vics beat Chennai'
p356
aS'Super'
p357
aS'super'
p358
aS'sixes'
p359
aS'David Hussey'
p360
aS'Victoria'
p361
aS'thrilling victo'
p362
asa(dp363
g2
S'Alexandre Cossenza'
p364
sg4
S'http://globoesporte.globo.com/platb/saqueevoleio/2010/09/19/mais-uma-chance-que-passa/'
p365
sg6
(lp366
S'http://bit.ly/arL15u'
p367
asg9
I156
sg10
S'09/19/10 11:24:19'
p368
sg12
S'saqueevoleio'
p369
sg14
(lp370
I640
aI664
aI790
asg16
S'Mais uma chance que passa. Post do dia, para quem acordou assustado com a derrota brasileira em Chennai: http://bit.ly/arL15u'
p371
sg18
(lp372
S'Mais uma chance que passa'
p373
aS'Post'
p374
aS'dia'
p375
aS'para quem acordou assustado com'
p376
aS'derrota brasileira em Chennai'
p377
asa(dp378
g2
S'Tom Jones'
p379
sg4
S'http://www.thehindubusinessline.com/businessline/blnus/15191710.htm'
p380
sg6
(lp381
S'http://bit.ly/c7IB2E'
p382
asg9
I2
sg10
S'09/19/10 12:02:25'
p383
sg12
S'microsoftbiz'
p384
sg14
(lp385
sg16
S'Microsoft announces new set of developer tools: CHENNAI: Leader in software for personal and business computing Mi... http://bit.ly/c7IB2E'
p386
sg18
(lp387
S'Microsoft announces'
p388
aS'new set'
p389
aS'developer tools'
p390
aS'CHENNAI'
p391
aS'Leader'
p392
aS'software'
p393
aS'business computing Mi'
p394
asa(dp395
g2
S'Ritesh Khare'
p396
sg4
S'http://googletrends.curtainrodsshop.com/mahesh-bhupathi-brazil-lead-india-2-0-in-davis-cup-tennis/'
p397
sg6
(lp398
S'http://bit.ly/buEdbN'
p399
asg9
I2
sg10
S'09/19/10 12:12:53'
p400
sg12
S'riteshkhare'
p401
sg14
(lp402
sg136
(lp403
S'# 8211'
p404
asg16
S'mahesh bhupathi &#8211; Brazil lead India 2-0 in Davis Cup tennis: CHENNAI, India (AFP) Brazil won two tense five-set ma... http://bit.ly/buEdbN'
p405
sg18
(lp406
S'mahesh bhupathi'
p407
aS'Brazil lead India'
p408
aS'Davis Cup'
p409
aS'CHENNAI'
p410
aS'India'
p411
aS'AFP'
p412
aS'Brazil'
p413
aS'five-set ma'
p414
asa(dp415
g2
S' 2010 CommonWealth'
p416
sg4
S'http://blog.taragana.com/sports/2010/09/19/davis-cup-india-stun-brazil-stay-in-world-group-138507/?utm_source=twitterfeed&utm_medium=twitter&utm_campaign=DTN+Delhi+2010%3A'
p417
sg6
(lp418
S'http://bit.ly/dsqFjc'
p419
asg9
I3
sg10
S'09/19/10 12:37:29'
p420
sg12
S'DTNCommonWealth'
p421
sg14
(lp422
I731
asg16
S'DTN Delhi 2010: Davis Cup: India stun Brazil, stay in World Group: CHENNAI - India completed a magnificent and his... http://bit.ly/dsqFjc'
p423
sg18
(lp424
S'DTN Delhi'
p425
aS'Davis Cup'
p426
aS'India stun Brazil'
p427
aS'stay'
p428
aS'World Group'
p429
aS'CHENNAI'
p430
aS'India'
p431
aS'magnificent'
p432
asa(dp433
g2
S'Rajmahendra ( Raj )'
p434
sg4
S'http://groups.google.com/group/scala-user-group-india'
p435
sg6
(lp436
S'http://bit.ly/bmRpUV'
p437
asg9
I2
sg10
S'09/19/10 12:57:16'
p438
sg12
S'rajmahendra'
p439
sg14
(lp440
sg107
(lp441
S'@scalatribes'
p442
asg16
S'@scalatribes Please add my new indian group for scala  Scala User Group - India http://bit.ly/bmRpUV point it to Chennai, india'
p443
sg18
(lp444
S'Please add'
p445
aS'new indian group'
p446
aS'scala Scala User Group'
p447
aS'India'
p448
aS'point'
p449
aS'Chennai'
p450
aS'india'
p451
asa(dp452
g2
S'080808news'
p453
sg4
S'http://feeds.reuters.com/~r/reuters/sportsNews/~3/P6tj-OZCOPw/idUSTRE68I0WR20100919'
p454
sg6
(lp455
S'http://bit.ly/97S1Nx'
p456
asg9
I5
sg10
S'09/19/10 12:59:21'
p457
sg12
S'080808news'
p458
sg14
(lp459
I750
asg16
S'Reuters Sports: Resurgent India beat Brazil to return to world group: CHENNAI (Reuters) - India returned to the Da... http://bit.ly/97S1Nx'
p460
sg18
(lp461
S'Reuters Sports'
p462
aS'Resurgent India'
p463
aS'Brazil'
p464
aS'group'
p465
aS'CHENNAI'
p466
aS'Reuters'
p467
aS'India'
p468
aS'Da'
p469
asa(dp470
g2
S'euronews pure'
p471
sg4
S'http://feeds.reuters.com/~r/reuters/sportsNews/~3/P6tj-OZCOPw/idUSTRE68I0WR20100919?utm_source=twitterfeed&utm_medium=twitter'
p472
sg6
(lp473
S'http://bit.ly/a1cwHu'
p474
asg9
I3
sg10
S'09/19/10 12:59:22'
p475
sg12
S'euronewspure'
p476
sg14
(lp477
I745
aI746
aI747
aI749
aI756
asg16
S'Resurgent India beat Brazil to return to world group: CHENNAI (Reuters) - India returned to the Davis Cup world gr... http://bit.ly/a1cwHu'
p478
sg18
(lp479
S'Resurgent India'
p480
aS'Brazil'
p481
aS'group'
p482
aS'CHENNAI'
p483
aS'Reuters'
p484
aS'India'
p485
aS'Davis Cup world gr'
p486
asa(dp487
g2
S'Gaurav Happy Tiwari'
p488
sg4
S'http://timesofindia.com/india/Chennai-woman-1st-to-win-best-cadet-award/articleshow/6568769.cms'
p489
sg6
(lp490
S'http://bit.ly/aD3Hvz'
p491
asg9
I2
sg10
S'09/19/10 13:22:31'
p492
sg12
S'giitjee'
p493
sg14
(lp494
sg136
(lp495
S'# India'
p496
aS'# fact'
p497
aS'# woman'
p498
aS'# News'
p499
aS'# TOI'
p500
asg107
(lp501
S'@bitly'
p502
asg16
S'Chennai woman is 1st to win best cadet award.:) http://bit.ly/aD3Hvz #India #fact #woman #News #TOI via @bitly'
p503
sg18
(lp504
S'Chennai woman'
p505
aS'best cadet award'
p506
asa(dp507
g2
S'Iza Mohd Isa'
p508
sg4
S'http://feedproxy.google.com/~r/tmi/news/allnews/~3/Kgg8ibsQUZ0/?utm_source=twitterfeed&utm_medium=twitter'
p509
sg6
(lp510
S'http://bit.ly/cbBoys'
p511
asg9
I2
sg10
S'09/19/10 13:29:07'
p512
sg12
S'iza_mhdisa'
p513
sg14
(lp514
I772
asg136
(lp515
S'# 8212'
p516
asg16
S'Resurgent India beat Brazil to return to world group: CHENNAI, Sept 19 &#8212; India returned to the Davis Cup world gro... http://bit.ly/cbBoys'
p517
sg18
(lp518
S'Resurgent India'
p519
aS'Brazil'
p520
aS'group'
p521
aS'CHENNAI'
p522
aS'Sept'
p523
aS'India'
p524
aS'Davis Cup world gro'
p525
asa(dp526
g2
S'daniel thomas'
p527
sg266
(lp528
S'RT'
p529
asg6
(lp530
S'http://bit.ly/bN4OfR'
p531
asg9
I6
sg4
S'http://www.themalaysianinsider.com/sports/article/resurgent-india-beat-brazil-to-return-to-world-group/?utm_source=twitterfeed&utm_medium=twitter'
p532
sg10
S'09/19/10 13:29:57'
p533
sg12
S'dantom0710'
p534
sg14
(lp535
sg136
(lp536
S'# 8212'
p537
asg107
(lp538
S'@tm_insider'
p539
asg16
S'RT @tm_insider: Resurgent India beat Brazil to return to world group: CHENNAI, Sept 19 &#8212; India returned to the Davis Cup world gro... http://bit.ly/bN4OfR'
p540
sg18
(lp541
S'Resurgent India'
p542
aS'Brazil'
p543
aS'group'
p544
aS'CHENNAI'
p545
aS'Sept'
p546
aS'India'
p547
aS'Davis Cup world gro'
p548
asa(dp549
g2
S'Lakshmi Salelkar'
p550
sg266
(lp551
S'RT'
p552
asg6
(lp553
S'http://bit.ly/9hXCAT'
p554
asg9
I7
sg4
S'http://blog.cskfansite.com/2010/09/chennai-super-kings-falter-against.html'
p555
sg10
S'09/19/10 14:02:07'
p556
sg12
S'LakS_Sal3lkar'
p557
sg14
(lp558
sg107
(lp559
S'@superkings'
p560
asg16
S'RT @superkings: Chennai Super Kings falter against Hussey &amp; Finch blitzkrieg http://bit.ly/9hXCAT www.cskfansite.com'
p561
sg18
(lp562
S'Chennai Super Kings falter'
p563
aS'Hussey'
p564
aS'Finch blitzkrieg'
p565
asa(dp566
g2
S'WN Tennis'
p567
sg4
S'http://article.wn.com/view/2010/09/19/India_return_to_world_group/?utm_source=twitterfeedtennis&utm_medium=twitter'
p568
sg6
(lp569
S'http://bit.ly/bF3Nid'
p570
asg9
I2
sg10
S'09/19/10 14:09:36'
p571
sg12
S'WNTennis'
p572
sg14
(lp573
sg136
(lp574
S'# 160'
p575
asg16
S'&#160;India return to world group: Chennai - India returned to the Davis Cup world group on Sunday after staging a rema... http://bit.ly/bF3Nid'
p576
sg18
(lp577
S'India return'
p578
aS'world group'
p579
aS'Chennai'
p580
aS'India'
p581
aS'Davis Cup world group'
p582
aS'Sunday'
p583
aS'rema'
p584
asa(dp585
g2
S'Intrinsecus'
p586
sg4
S'http://timesofindia.indiatimes.com/city/chennai/Road-workers-stumble-upon-ancient-grinding-stone-in-Pallavaram-/articleshow/6581764.cms'
p587
sg6
(lp588
S'http://bit.ly/9lKHlb'
p589
asg9
I2
sg10
S'09/19/10 14:37:40'
p590
sg12
S'Intrinsecus'
p591
sg14
(lp592
sg16
S'India - Road workers stumble upon ancient grinding stone in Pallavaram ... http://bit.ly/9lKHlb'
p593
sg18
(lp594
S'India'
p595
aS'Road workers'
p596
aS'ancient grinding stone'
p597
aS'Pallavaram'
p598
asa(dp599
g2
S"Rianna's Fund"
p600
sg4
S'http://www.riannasfund.org/Annai%20Fathima.htm'
p601
sg6
(lp602
S'http://bit.ly/agWpGD'
p603
aS'http://plixi.com/p/46016399'
p604
asg9
I32
sg10
S'09/19/10 14:49:46'
p605
sg12
S'RiannasFund'
p606
sg14
(lp607
I860
asg16
S'Latest photo just received of some of the children at Annai Fathima, Chennai. http://bit.ly/agWpGD http://plixi.com/p/46016399'
p608
sg18
(lp609
S'Latest photo'
p610
aS'children'
p611
aS'Annai Fathima'
p612
aS'Chennai'
p613
asa(dp614
g2
S'The Slice'
p615
sg4
S'http://the-slice.com/2010/09/davis-cup-india-wins-tie-over-brazil-in-chennai/'
p616
sg6
(lp617
S'http://bit.ly/9PEhCn'
p618
asg9
I3
sg10
S'09/19/10 15:30:48'
p619
sg12
S'TheSliceTweets'
p620
sg14
(lp621
sg136
(lp622
S'# davis'
p623
asg107
(lp624
S'@daviscup'
p625
aS'@maheshbhupathi'
p626
aS'@rohanbopanna'
p627
aS'@sdevvarman'
p628
asg16
S'Congrats to Team India on their @daviscup win: @maheshbhupathi, @rohanbopanna, @sdevvarman and Leander Paes! #davis cup http://bit.ly/9PEhCn'
p629
sg18
(lp630
S'Congrats'
p631
aS'Team India'
p632
aS'win'
p633
aS'Leander Paes'
p634
asa(dp635
g2
S'IT News Network'
p636
sg4
S'http://feedproxy.google.com/~r/itevent/~3/LbO-UBFxIU4/pmp-training-in-chennai?utm_source=twitterfeed&utm_medium=twitter'
p637
sg6
(lp638
S'http://bit.ly/9zqhjN'
p639
asg9
I3
sg10
S'09/19/10 15:32:51'
p640
sg12
S'ITNewsNet'
p641
sg14
(lp642
I873
asg136
(lp643
S'# IT'
p644
aS'# Events'
p645
asg16
S'#IT #Events PMP Training in Chennai: [ October 2, 2010 to October 3, 2010. ] Queensway Park, Chennai, India\n\nWe ha... http://bit.ly/9zqhjN'
p646
sg18
(lp647
S'PMP Training'
p648
aS'Chennai'
p649
aS'October'
p650
aS'October'
p651
aS'Queensway Park'
p652
aS'Chennai'
p653
aS'India We ha'
p654
asa(dp655
g2
S'The Hindu'
p656
sg4
S'http://www.thehindu.com/news/cities/Chennai/article697369.ece'
p657
sg6
(lp658
S'http://bit.ly/9pB2cz'
p659
asg9
I12
sg10
S'09/19/10 20:07:28'
p660
sg12
S'Thehindu'
p661
sg14
(lp662
sg16
S'Lalgudi Jayaraman honoured http://bit.ly/9pB2cz'
p663
sg18
(lp664
S'Lalgudi Jayaraman'
p665
asa(dp666
g2
S'Donovan '
p667
sg4
S'http://www.google.com/url?sa=X&q=http://www.thehindu.com/news/cities/Chennai/article699253.ece&ct=ga&cad=:s7:f1:v0:d2:i0:lt:e0:p0:t1284931606:&cd=7hB3khzpSiY&usg=AFQjCNFKXCHQ6IeVxN745VqEPJMVEuJvaA'
p668
sg6
(lp669
S'http://bit.ly/9WGHv3'
p670
asg9
I2
sg10
S'09/19/10 21:26:50'
p671
sg12
S'wisree'
p672
sg14
(lp673
sg16
S'A(H1N1) vaccines at reduced rates http://bit.ly/9WGHv3'
p674
sg18
(lp675
S'H1N1'
p676
aS'vaccines'
p677
aS'rates'
p678
asa(dp679
g2
S'New H1N1'
p680
sg4
S'http://www.google.com/url?sa=X&q=http://www.thehindu.com/news/cities/Chennai/article699253.ece&ct=ga&cad=:s1:f1:v0:d2:i0:lt:e0:p0:t1284935261:&cd=PyF_AaQ0E0A&usg=AFQjCNFKXCHQ6IeVxN745VqEPJMVEuJvaA&utm_source=twitterfeed&utm_medium=twitter'
p681
sg6
(lp682
S'http://bit.ly/d5kPlG'
p683
asg9
I2
sg10
S'09/19/10 22:27:45'
p684
sg12
S'New_H1N1'
p685
sg14
(lp686
sg16
S'A(H1N1) vaccines at reduced rates http://bit.ly/d5kPlG'
p687
sg18
(lp688
S'H1N1'
p689
aS'vaccines'
p690
aS'rates'
p691
asa(dp692
g2
S'Swine Flu Protection'
p693
sg4
S'http://www.google.com/url?sa=X&q=http://www.thehindu.com/news/cities/Chennai/article699253.ece&ct=ga&cad=:s7:f1:v0:d2:i0:lt:e0:p0:t1284935261:&cd=pRx6jvQPEMg&usg=AFQjCNFKXCHQ6IeVxN745VqEPJMVEuJvaA'
p694
sg6
(lp695
S'http://bit.ly/4ngDZN'
p696
aS'http://bit.ly/bsOtAD'
p697
asg9
I2
sg10
S'09/19/10 22:27:45'
p698
sg12
S'swine_flu_pro'
p699
sg14
(lp700
I1103
asg46
I1103
sg16
S'http://bit.ly/4ngDZN A(H1N1) vaccines at reduced rates: The Hindu PRE-EMPTIVE: A person receives nasal dose of A(H... http://bit.ly/bsOtAD'
p701
sg18
(lp702
S'H1N1'
p703
aS'vaccines'
p704
aS'rates'
p705
aS'Hindu'
p706
aS'person'
p707
aS'nasal dose'
p708
asa(dp709
g2
S'NewsDig.com'
p710
sg4
S'http://newsdig.com/business/victoria-bushrangers-wins-in-the-super-over/'
p711
sg6
(lp712
S'http://bit.ly/bwGrJv'
p713
asg9
I2
sg10
S'09/19/10 22:46:55'
p714
sg12
S'newsdig'
p715
sg14
(lp716
sg16
S'The match between Chennai Super Kings (CSK) and Victoria Bushrangers went down to the wire with both teams scoring... http://bit.ly/bwGrJv'
p717
sg18
(lp718
S'match'
p719
aS'Chennai Super Kings'
p720
aS'CSK'
p721
aS'Victoria Bushrangers'
p722
aS'wire'
p723
aS'teams'
p724
asa(dp725
g2
S'Live H1N1'
p726
sg4
S'http://www.thehindu.com/news/cities/Chennai/article699253.ece'
p727
sg6
(lp728
S'http://bit.ly/9r7aug'
p729
asg9
I7
sg10
S'09/19/10 23:25:40'
p730
sg12
S'live_h1n1'
p731
sg14
(lp732
sg136
(lp733
S'# H1N1'
p734
aS'# vaccines'
p735
asg16
S'A(#H1N1) #vaccines at reduced rates - The Hindu : http://bit.ly/9r7aug'
p736
sg18
(lp737
S'rates'
p738
aS'Hindu'
p739
asa(dp740
g2
S'Saminathan'
p741
sg4
S'http://www.thesportscampus.com/201009197644/domestic-t20/clt20-preview-chevrolet-warriors-vs-chennai-super-kings'
p742
sg6
(lp743
S'http://bit.ly/aMoCdH'
p744
asg9
I3
sg10
S'09/19/10 23:39:41'
p745
sg12
S'Saminathanece'
p746
sg14
(lp747
sg16
S'CLT20 Preview: Chevrolet Warriors vs. Chennai Super Kings http://bit.ly/aMoCdH'
p748
sg18
(lp749
S'CLT20 Preview'
p750
aS'Chevrolet Warriors vs. Chennai Super Kings'
p751
asa(dp752
g2
S'influenza.ws'
p753
sg4
S'http://www.google.com/url?sa=X&q=http://www.thehindu.com/news/cities/Chennai/article699253.ece&ct=ga&cad=:s1:f1:v0:d2:i0:lt:e0:p0:t1284939682:&cd=awH2eIH-q6Q&usg=AFQjCNFKXCHQ6IeVxN745VqEPJMVEuJvaA&utm_source=www.influenza.ws&utm_medium=twitter'
p754
sg6
(lp755
S'http://bit.ly/b0TNQr'
p756
asg9
I3
sg10
S'09/19/10 23:41:29'
p757
sg12
S'Influenzavirusx'
p758
sg14
(lp759
sg16
S'www.influenza.ws A(H1N1) vaccines at reduced rates http://bit.ly/b0TNQr'
p760
sg18
(lp761
S'www.influenza.ws'
p762
aS'H1N1'
p763
aS'vaccines'
p764
aS'rates'
p765
asa.
