(lp0
(dp1
S'name'
p2
S'athahar'
p3
sS'long-url'
p4
S'http://cricket.ndtv.com/storypage.aspx?id=SPOEN20100153456&nid=52588'
p5
sS'url'
p6
(lp7
S'http://bit.ly/aGdBP0'
p8
asS'bitly'
p9
I11
sS'pub'
p10
S'09/17/10 01:39:00'
p11
sS'nick'
p12
S'athahar'
p13
sS'has_r'
p14
(lp15
I922
asS'dialog'
p16
(lp17
S'@LalitKModi'
p18
asS'msg'
p19
S"@LalitKModi BCCI official shouldn't be IPL owner: Court, Setback for chennai owner! http://bit.ly/aGdBP0"
p20
sS'phrase'
p21
(lp22
S'BCCI official'
p23
aS'IPL owner'
p24
aS'Court'
p25
aS'Setback'
p26
aS'chennai owner'
p27
asa(dp28
g2
S'rediff.com'
p29
sg4
S'http://news.rediff.com/slide-show/2010/sep/17/slide-show-1-readers-ganpati-pics.htm?utm_source=twitterfeed&utm_medium=twitter'
p30
sg6
(lp31
S'http://bit.ly/acQjKr'
p32
asg9
I3
sg10
S'09/17/10 03:38:38'
p33
sg12
S'RealRediffCom'
p34
sg14
(lp35
I84
asg19
S"Readers' Ganpati pics: From Chennai to Sydney: We have asked our readers to send us their images of Lord Ganesha. ... http://bit.ly/acQjKr"
p36
sg21
(lp37
S'Readers'
p38
aS'Ganpati pics'
p39
aS'Chennai'
p40
aS'Sydney'
p41
aS'readers'
p42
aS'images'
p43
aS'Lord Ganesha'
p44
asa(dp45
g2
S'Karthik'
p46
sg4
S'http://www.hindu.com/2010/09/17/stories/2010091760850100.htm'
p47
sg6
(lp48
S'http://bit.ly/bJHT86'
p49
asg9
I5
sg10
S'09/17/10 04:20:02'
p50
sg12
S'karth81'
p51
sg14
(lp52
sg19
S'When Chennai becomes Gurgaon/Delhi http://bit.ly/bJHT86'
p53
sg21
(lp54
S'Chennai'
p55
aS'Gurgaon/Delhi'
p56
asa(dp57
g2
S'JLLIndia_Realty'
p58
sg4
S'http://feedproxy.google.com/~r/Business-Standard-Companies-Industry-All/~3/9IMBWz27i98/storypage_c.php'
p59
sS'currency'
p60
(lp61
S'Rs 1,000'
p62
asg6
(lp63
S'http://bit.ly/8ZprUa'
p64
asg9
I3
sg10
S'09/17/10 04:51:03'
p65
sg12
S'JLLIndia_Realty'
p66
sg14
(lp67
sS'tag'
p68
(lp69
S'# chennai'
p70
aS'# property'
p71
asg19
S'Vijay Shanthi plans Rs 1,000 cr residential project #chennai #property http://bit.ly/8ZprUa'
p72
sg21
(lp73
S'Vijay Shanthi'
p74
aS'cr'
p75
aS'residential project'
p76
asa(dp77
g2
S'A T'
p78
sg4
S'http://timesofindia.indiatimes.com/india/Chennai-woman-1st-to-win-best-cadet-award/articleshow/6568769.cms'
p79
sg6
(lp80
S'http://bit.ly/d8SDq0'
p81
asg9
I34
sg10
S'09/17/10 05:14:39'
p82
sg12
S'tyagiG'
p83
sg14
(lp84
I186
aI229
aI451
asg19
S"Chennai woman 1st to win best cadet award 'Sword of Honour' http://bit.ly/d8SDq0"
p85
sg21
(lp86
S'Chennai woman'
p87
aS"best cadet award 'Sword"
p88
aS'Honour'
p89
asa(dp90
g2
S'Geex HQ'
p91
sS'forwards'
p92
(lp93
S'RT'
p94
asg6
(lp95
S'http://bit.ly/9442r2'
p96
asg9
I6
sg4
S'http://geexhq.com/software-freedom-day-2010-celebration-in-chennai/'
p97
sg10
S'09/17/10 05:21:37'
p98
sg12
S'geexhq'
p99
sg14
(lp100
I190
aI192
aI197
aI204
asg19
S'Software Freedom Day 2010 Celebration in Chennai http://bit.ly/9442r2 (plz RT)'
p101
sg21
(lp102
S'Software Freedom Day'
p103
aS'Celebration'
p104
aS'Chennai'
p105
aS'plz'
p106
asa(dp107
g2
S''
p108
sg4
S'http://www.newkerala.com/news2/fullnews-43262.html'
p109
sg6
(lp110
S'http://bit.ly/9AWs7P'
p111
asg9
I4
sg10
S'09/17/10 05:43:40'
p112
sg12
S'suineflu'
p113
sg14
(lp114
I254
asg68
(lp115
S'# #'
p116
asg19
S'swineflu)##swineflu Jaya demands swine flu vaccines free of cost for people: Chennai, Sep 16 : Opposition AIADMK General Sec... http://bit.ly/9AWs7P'
p117
sg21
(lp118
S'swineflu'
p119
aS'swineflu Jaya demands'
p120
aS'flu vaccines'
p121
aS'cost'
p122
aS'people'
p123
aS'Chennai'
p124
aS'Sep'
p125
aS'Opposition AIADMK General Sec'
p126
asa(dp127
g2
S'RudrapurBizReview'
p128
sg4
S'https://www.mckinseyquarterly.com/Transportation/Strategy_Analysis/Transforming_Indias_logistics_infrastructure_2670'
p129
sg6
(lp130
S'http://bit.ly/c21BNq'
p131
asg9
I5
sg10
S'09/17/10 06:02:07'
p132
sg12
S'RudrapurBizRev'
p133
sg14
(lp134
I245
asg19
S"McKinsey report on India's logistics scenario, released at AutoSCM 2010 in Chennai a few weeks ago is avaialble here - http://bit.ly/c21BNq"
p135
sg21
(lp136
S'McKinsey report'
p137
aS'India'
p138
aS'logistics scenario'
p139
aS'AutoSCM'
p140
aS'Chennai'
p141
aS'few weeks'
p142
asa(dp143
g2
S'e24Business'
p144
sg4
S'http://news.in.msn.com/business/article.aspx?cp-documentid=4393196&utm_source=e24business.com&utm_medium=twitter'
p145
sg6
(lp146
S'http://bit.ly/9v1eW4'
p147
asg9
I2
sg10
S'09/17/10 06:14:51'
p148
sg12
S'e24business'
p149
sg14
(lp150
sg19
S'Business News - Subhiksha promoter sends legal notice to Azim Premji: Chennai/ Bangalore: R Subramanian, the manag... http://bit.ly/9v1eW4'
p151
sg21
(lp152
S'Business News'
p153
aS'Subhiksha promoter sends'
p154
aS'legal notice'
p155
aS'Azim Premji'
p156
aS'Chennai/ Bangalore'
p157
aS'R Subramanian'
p158
aS'manag'
p159
asa(dp160
g2
S'elayamathy'
p161
sg4
S'http://timesofindia.indiatimes.com/city/chennai/Man-held-for-printing-slain-LTTE-chiefs-pic/articleshow/6568836.cms'
p162
sg6
(lp163
S'http://bit.ly/aVXqgJ'
p164
asg9
I5
sg10
S'09/17/10 06:41:37'
p165
sg12
S'elayamathy'
p166
sg14
(lp167
I1201
asg19
S'Will mere display of the pictures of LTTE leader amount to soliciting support for a banned organisation? http://bit.ly/aVXqgJ'
p168
sg21
(lp169
S'Will'
p170
aS'display'
p171
aS'pictures'
p172
aS'LTTE leader amount'
p173
aS'soliciting support'
p174
aS'banned organisation'
p175
asa(dp176
g2
S'Sriganesh Raman'
p177
sg4
S'http://kbalakumar.com/2010/09/15/crank-news-govt-prohibits-inflation/'
p178
sg6
(lp179
S'http://bit.ly/aE1dxm'
p180
asg9
I14
sg10
S'09/17/10 06:43:15'
p181
sg12
S'sriganeshr'
p182
sg14
(lp183
sg16
(lp184
S'@TimHarford'
p185
aS'@kbalakumar'
p186
asg19
S'Hi @TimHarford do read this funny piece on economics &amp; inflation by @kbalakumar, an editor of an evening-er in Chennai http://bit.ly/aE1dxm'
p187
sg21
(lp188
S'Hi'
p189
aS'funny piece'
p190
aS'economics'
p191
aS'inflation'
p192
aS'editor'
p193
aS'Chennai'
p194
asa(dp195
g2
S'India Today'
p196
sg4
S'http://indiatoday.intoday.in/site/Video/112980/42/Videos/chennai-speeding-car-kills-two.html?utm_source=twitterfeed&utm_medium=twitter'
p197
sg6
(lp198
S'http://bit.ly/c3GIrq'
p199
asg9
I4
sg10
S'09/17/10 07:57:41'
p200
sg12
S'india_today'
p201
sg14
(lp202
sg19
S'VIDEO - Chennai: Speeding car kills two http://bit.ly/c3GIrq'
p203
sg21
(lp204
S'VIDEO'
p205
aS'Chennai'
p206
aS'Speeding car kills'
p207
asa(dp208
g2
S'Berita Malaysia News'
p209
sg4
S'http://www.malaysianews.net/story/686104?utm_source=twitterfeed&utm_medium=twitter'
p210
sg6
(lp211
S'http://bit.ly/cY25U8'
p212
asg9
I2
sg10
S'09/17/10 08:08:24'
p213
sg12
S'myberita'
p214
sg14
(lp215
I407
asg19
S"Chennai-based Wife of Indian lawyer millionaire missing in Malaysia claims she's broke http://bit.ly/cY25U8"
p216
sg21
(lp217
S'Chennai-based Wife'
p218
aS'Indian lawyer millionaire'
p219
aS'Malaysia'
p220
aS'broke'
p221
asa(dp222
g2
S'msiaSunNews'
p223
sg4
S'http://story.malaysiasun.com/index.php/ct/9/cid/48cba686fe041718/id/686104/cs/1/'
p224
sg6
(lp225
S'http://bit.ly/aLUaUl'
p226
asg9
I2
sg10
S'09/17/10 08:26:17'
p227
sg12
S'msiaSunNews'
p228
sg14
(lp229
sg19
S"Chennai-based Wife of Indian lawyer millionaire missing in Malaysia claims she's broke http://bit.ly/aLUaUl"
p230
sg21
(lp231
S'Chennai-based Wife'
p232
aS'Indian lawyer millionaire'
p233
aS'Malaysia'
p234
aS'broke'
p235
asa(dp236
g2
S"Foster's"
p237
sg4
S'http://www.fostersblog.in/'
p238
sg6
(lp239
S'http://bit.ly/auLr8k'
p240
asg9
I132
sg10
S'09/17/10 08:30:01'
p241
sg12
S'art_of_chilling'
p242
sg14
(lp243
sg19
S"Check out what our Chennai Super Kings' players say in the latest videos uploaded on our blog!! http://bit.ly/auLr8k"
p244
sg21
(lp245
S'Check'
p246
aS'Chennai Super Kings'
p247
aS'players'
p248
aS'latest videos'
p249
aS'blog'
p250
asa(dp251
g2
S'Chennai Super Kings'
p252
sg4
S'http://www.chennaisuperkings.com/news/NewsContent.aspx?NewsID=311'
p253
sg6
(lp254
S'http://bit.ly/aeUcg3'
p255
asg9
I51
sg10
S'09/17/10 08:49:44'
p256
sg12
S'ChennaiIPL'
p257
sg14
(lp258
I588
asg19
S'Chennai: Former England all-rounder and Chennai Super Kings star, Andrew Flintoff finally gave up on his prolonged...\nhttp://bit.ly/aeUcg3'
p259
sg21
(lp260
S'Chennai'
p261
aS'Former England all-rounder'
p262
aS'Chennai Super Kings star'
p263
aS'Andrew Flintoff'
p264
aS'prolonged'
p265
asa(dp266
g2
S'kaprasanna'
p267
sg4
S'http://timesofindia.indiatimes.com/city/chennai/Veerappan-nephew-picked-up-from-near-Karunanidhis-house/articleshow/6568841.cms'
p268
sg6
(lp269
S'http://bit.ly/cHmPa3'
p270
asg9
I6
sg10
S'09/17/10 09:13:57'
p271
sg12
S'kaprasanna'
p272
sg14
(lp273
sg19
S"Veerappan's nephew held from near Karunanidhi's house. And no, he wasn't there to steal K's dark glasses. ;) http://bit.ly/cHmPa3"
p274
sg21
(lp275
S'Veerappan'
p276
aS'nephew'
p277
aS'Karunanidhi'
p278
aS'house'
p279
aS'dark glasses'
p280
asa(dp281
g2
S'Pratham Books'
p282
sg4
S'http://blog.hippocampus.in/2010/09/16/this-weekend-at-hippocampus-chennai-18th-september-2010/'
p283
sg6
(lp284
S'http://bit.ly/cCWb0z'
p285
asg9
I15
sg10
S'09/17/10 09:54:32'
p286
sg12
S'prathambooks'
p287
sg14
(lp288
I555
asg16
(lp289
S'@hippocampus2010'
p290
asg19
S'This weekend @hippocampus2010 Chennai - Join them for a fun filled hour of Science &amp; Magic with Aunty Padma http://bit.ly/cCWb0z'
p291
sg21
(lp292
S'weekend'
p293
aS'Chennai'
p294
aS'Join'
p295
aS'fun'
p296
aS'hour'
p297
aS'Science'
p298
aS'Magic'
p299
aS'Aunty Padma'
p300
asa(dp301
g2
S'Sukesh Das'
p302
sg4
S'http://osidays.com/'
p303
sg6
(lp304
S'http://bit.ly/9g2qDk'
p305
asg9
I33
sg10
S'09/17/10 10:26:59'
p306
sg12
S'sukeshdas'
p307
sg14
(lp308
sg19
S'Going to Chennai for attending Open Source India Conference representing Bridge India..http://bit.ly/9g2qDk'
p309
sg21
(lp310
S'Chennai'
p311
aS'Open Source India Conference'
p312
aS'Bridge India'
p313
asa(dp314
g2
S'Samrat Shergil'
p315
sg4
S'http://www.thesportscampus.com/201009167583/twenty-20/clt20-preview-superkings-bushrangers'
p316
sg6
(lp317
S'http://bit.ly/chJcIY'
p318
asg9
I2
sg10
S'09/17/10 10:31:05'
p319
sg12
S'Samratshergiltm'
p320
sg14
(lp321
I774
aI1028
asg19
S'CLT20 Preview: Chennai Super Kings vs. Victoria Bushrangers http://bit.ly/chJcIY'
p322
sg21
(lp323
S'CLT20 Preview'
p324
aS'Chennai Super Kings vs. Victoria Bushrangers'
p325
asa(dp326
g2
S'NetIndian'
p327
sg4
S'http://netindian.in/news/2010/09/17/0007917/air-india-connect-chennai-bangalore-agatti'
p328
sg6
(lp329
S'http://bit.ly/dhOmTY'
p330
asg9
I2
sg10
S'09/17/10 10:38:05'
p331
sg12
S'netindian'
p332
sg14
(lp333
sg68
(lp334
S'# India'
p335
aS'# News'
p336
asg19
S'Air India to connect Chennai, Bangalore to Agatti http://bit.ly/dhOmTY #India #News'
p337
sg21
(lp338
S'Air India'
p339
aS'Chennai'
p340
aS'Bangalore'
p341
aS'Agatti'
p342
asa(dp343
g2
S'Jeff Koyen'
p344
sg4
S'http://sify.com/news/chennai-girl-makes-army-history-imagegallery-others-kjqlc9eacgh.html'
p345
sg6
(lp346
S'http://bit.ly/c3dZCI'
p347
asg9
I3
sg10
S'09/17/10 13:17:46'
p348
sg12
S'jeffkoyen'
p349
sg14
(lp350
sg19
S"Indian Army awards top-of-class 'Sword of Honour' to female cadet for 1st time ever http://bit.ly/c3dZCI"
p351
sg21
(lp352
S'Indian Army awards'
p353
aS"top-of-class 'Sword"
p354
aS'Honour'
p355
aS'cadet'
p356
aS'time'
p357
asa(dp358
g2
S'ET Industry News'
p359
sg4
S'http://economictimes.indiatimes.com/news/news-by-industry/transportation/airlines-/-aviation/Air-India-to-launch-Chennai-Agatti-service-from-Sep-24/articleshow/6573547.cms'
p360
sg6
(lp361
S'http://bit.ly/d3PdvY'
p362
asg9
I2
sg10
S'09/17/10 13:49:59'
p363
sg12
S'ETIndustryNews'
p364
sg14
(lp365
sg68
(lp366
S'# News'
p367
aS'# IndustryNews'
p368
asg19
S'#News #IndustryNews Air India to launch Chennai-Agatti service from Sep 24 http://bit.ly/d3PdvY'
p369
sg21
(lp370
S'Air India'
p371
aS'Chennai-Agatti service'
p372
aS'Sep'
p373
asa(dp374
g2
S'Amalesh Singh'
p375
sg4
S'http://feedproxy.google.com/~r/ndtv/Lsgd/~3/kfLxMHDwUEo/chennai-girl-becomes-first-woman-to-raise-sword-of-honour-52902'
p376
sg6
(lp377
S'http://bit.ly/9Qs856'
p378
asg9
I2
sg10
S'09/17/10 14:27:02'
p379
sg12
S'amaleshsingh'
p380
sg14
(lp381
sg68
(lp382
S'# 8216'
p383
aS'# 8217'
p384
asg19
S'Chennai girl becomes first woman to raise &#8216;Sword of Honour&#8217; http://bit.ly/9Qs856'
p385
sg21
(lp386
S'Chennai girl'
p387
aS'first woman'
p388
aS'Sword'
p389
aS'Honour&'
p390
asa(dp391
g2
S'Victoria H'
p392
sg4
S'http://www.google.com/url?sa=X&q=http://timesofindia.indiatimes.com/city/chennai/Children-excited-about-Anna-Centenary-Library-on-day-one/articleshow/6568830.cms&ct=ga&cad=:s7:f1:v0:d2:i0:lt:e0:p0:t1284734411:&cd=2GkQBDyTgVU&usg=AFQjCNEhKS2bh_yTrKXP0xMdiBkTM8DlFw&utm_source=twitterfeed&utm_medium=twitter'
p393
sg6
(lp394
S'http://bit.ly/aGwv7g'
p395
asg9
I2
sg10
S'09/17/10 14:40:19'
p396
sg12
S'no1healthtips'
p397
sg14
(lp398
sg19
S'Children excited about Anna Centenary Library on day one http://bit.ly/aGwv7g'
p399
sg21
(lp400
S'Children'
p401
aS'Anna Centenary Library'
p402
aS'day'
p403
asa(dp404
g2
S'New H1N1'
p405
sg4
S'http://www.google.com/url?sa=X&q=http://expressbuzz.com/cities/chennai/jaya-suggests-free-swine-flu-shots/207591.html&ct=ga&cad=:s1:f1:v0:d2:i0:lt:e0:p0:t1284742084:&cd=pL__s_DgzcY&usg=AFQjCNGHRddGm3VU1a8BOmJD2ABK9azFDA&utm_source=twitterfeed&utm_medium=twitter'
p406
sg6
(lp407
S'http://bit.ly/aiPHAd'
p408
asg9
I2
sg10
S'09/17/10 16:48:17'
p409
sg12
S'New_H1N1'
p410
sg14
(lp411
sg19
S'Jaya suggests free swine flu shots http://bit.ly/aiPHAd'
p412
sg21
(lp413
S'Jaya'
p414
aS'free swine flu shots'
p415
asa(dp416
g2
S'Kaushik TG'
p417
sg4
S'http://www.thehindu.com/news/states/tamil-nadu/article646182.ece'
p418
sg6
(lp419
S'http://bit.ly/9T44fu'
p420
asg9
I14
sg10
S'09/17/10 17:56:06'
p421
sg12
S'cowmaaa'
p422
sg14
(lp423
sg19
S'The man who transformed a Chennai slum into a wonderful colony for 3500 people. And a temple renovator. http://bit.ly/9T44fu'
p424
sg21
(lp425
S'man'
p426
aS'Chennai slum'
p427
aS'wonderful colony'
p428
aS'people'
p429
aS'temple renovator'
p430
asa(dp431
g2
S'The Hindu'
p432
sg4
S'http://feedproxy.google.com/~r/hinduonnet/~3/OXeQhkZ3mhE/2010091855571600.htm?utm_term=india%2C+news%2C+newspaper%2C+the+hindu&utm_content=Breaking+news+from+the+Hindu%2C+India%27s+national+newspaper&utm_source=twitterfeed&utm_medium=twitter&utm_campaign=hinduonnet'
p433
sg6
(lp434
S'http://bit.ly/dx3eF8'
p435
asg9
I2
sg10
S'09/17/10 20:02:02'
p436
sg12
S'hinduonnet'
p437
sg14
(lp438
sg19
S'Breaking News! - Lewis Hamilton thrills Chennai fans: \n    \n http://bit.ly/dx3eF8'
p439
sg21
(lp440
S'News'
p441
aS'Lewis Hamilton'
p442
aS'Chennai fans'
p443
asa(dp444
g2
S'Live H1N1'
p445
sg4
S'http://www.deccanchronicle.com/chennai/free-swine-flu-vaccine-shots-tn-poor-756'
p446
sg6
(lp447
S'http://bit.ly/dgxBga'
p448
asg9
I2
sg10
S'09/17/10 21:15:44'
p449
sg12
S'live_h1n1'
p450
sg14
(lp451
sg68
(lp452
S'# swineflu'
p453
aS'# vaccine'
p454
asg19
S'Free #swineflu #vaccine shots for TN poor - Deccan Chronicle : http://bit.ly/dgxBga'
p455
sg21
(lp456
S'Free'
p457
aS'shots'
p458
aS'TN poor'
p459
aS'Deccan Chronicle'
p460
asa(dp461
g2
S'Racing Grand Prix'
p462
sg4
S'http://www.google.com/url?sa=X&q=http://www.f1indiablog.in/2010/09/lewis-is-in-india-today.html&ct=ga&cad=:s7:f1:v0:d2:i2:lt:e0:p0:t1284761035:&cd=-gjp9FKYqjg&usg=AFQjCNFxD0hSTphuxtC7k13cVuGGA8T4fw&utm_source=twitterfeed&utm_medium=twitter'
p463
sg6
(lp464
S'http://bit.ly/acnDtn'
p465
asg9
I3
sg10
S'09/17/10 22:32:52'
p466
sg12
S'RacingGrandPrix'
p467
sg14
(lp468
sg19
S"Lewis Hamilton is in India today !! | Formula 1 Blog: Lewis Hamilton is in Chennai today.Vodafone - one of India's... http://bit.ly/acnDtn"
p469
sg21
(lp470
S'Lewis Hamilton'
p471
aS'India today'
p472
aS'Formula'
p473
aS'Blog'
p474
aS'Lewis Hamilton'
p475
aS'Chennai today.Vodafone'
p476
aS'India'
p477
asa(dp478
g2
S'kashyap parsaniya'
p479
sg4
S'http://timesofindia.indiatimes.com/india/61-yr-old-woman-falls-from-train-into-sea-survives/articleshow/6576572.cms?utm_source=twitterfeed&utm_medium=twitter'
p480
sg6
(lp481
S'http://bit.ly/biGmKd'
p482
asg9
I5
sg10
S'09/17/10 22:34:52'
p483
sg12
S'kshypptl'
p484
sg14
(lp485
sg19
S'A sixty-one-year-old woman from Haryana, who was travelling from Rameswaram to Chennai, had a miraculous escape af... http://bit.ly/biGmKd'
p486
sg21
(lp487
S'sixty-one-year-old woman'
p488
aS'Haryana'
p489
aS'Rameswaram'
p490
aS'Chennai'
p491
aS'miraculous escape af'
p492
asa(dp493
g2
S'Vehix Car'
p494
sg4
S'http://www.google.com/url?sa=X&q=http://www.hindu.com/2010/09/18/stories/2010091855571600.htm&ct=ga&cad=:s7:f1:v0:d2:i0:lt:e0:p0:t1284762089:&cd=D_phlN1dKMU&usg=AFQjCNEIU-P6VEHiz4xETIr8dRIU6R4Mbw&utm_source=twitterfeed&utm_medium=twitter'
p495
sg6
(lp496
S'http://bit.ly/cenpDj'
p497
asg9
I2
sg10
S'09/17/10 23:22:06'
p498
sg12
S'VehixCar'
p499
sg14
(lp500
sg19
S'Lewis Hamilton thrills Chennai fans http://bit.ly/cenpDj'
p501
sg21
(lp502
S'Lewis Hamilton'
p503
aS'Chennai fans'
p504
asa.
