(lp0
(dp1
S'name'
p2
S'lloyd lobo'
p3
sS'long-url'
p4
S'http://timesofindia.indiatimes.com/sports/cricket/series-tournaments/clt20/top-stories/Chennai-Super-Kings-beat-Warriors-to-win-Champions-League-T20-title/articleshow/6632732.cms'
p5
sS'url'
p6
(lp7
S'http://bit.ly/aQ5nb3'
p8
asS'bitly'
p9
I13
sS'pub'
p10
S'09/27/10 00:58:28'
p11
sS'nick'
p12
S'lloydlobo1'
p13
sS'has_r'
p14
(lp15
I121
aI691
asS'msg'
p16
S'Chennai Super Kings win Champions League T20 title http://bit.ly/aQ5nb3'
p17
sS'phrase'
p18
(lp19
S'Chennai Super Kings win Champions League T20 title'
p20
asa(dp21
g2
S'Chennai Super Kings'
p22
sg4
S'http://www.chennaisuperkings.com/cl/news/NewsContent.aspx?NewsID=321'
p23
sg6
(lp24
S'http://bit.ly/cFq5So'
p25
asg9
I195
sg10
S'09/27/10 01:03:50'
p26
sg12
S'ChennaiIPL'
p27
sg14
(lp28
I59
aI105
aI171
aI464
aI828
aI847
aI907
asg16
S'Johannesburg: The Chennai Super Kings ascended the World T20 throne and the coronation took place at the Wanderers... http://bit.ly/cFq5So'
p29
sg18
(lp30
S'Johannesburg'
p31
aS'Chennai Super Kings'
p32
aS'World T20 throne'
p33
aS'coronation'
p34
aS'place'
p35
aS'Wanderers'
p36
asa(dp37
g2
S'vinod velayudhan'
p38
sg6
(lp39
S'http://post.ly/104Yg'
p40
asg9
I0
sg10
S'09/27/10 02:05:07'
p41
sg12
S'vinodvv'
p42
sg14
(lp43
sg16
S'Sunday morning - Sholavaram old aerodrome Photo shoot- Chennai http://post.ly/104Yg'
p44
sg18
(lp45
S'Sunday morning'
p46
aS'Sholavaram'
p47
aS'old aerodrome Photo shoot- Chennai'
p48
asa(dp49
g2
S'Prem Rao'
p50
sg6
(lp51
S'http://fb.me/F7fBcD5E'
p52
asg9
I0
sg10
S'09/27/10 02:48:28'
p53
sg12
S'premrao'
p54
sg14
(lp55
sg16
S"Some friends have suggested a book reading at Chennai. It's still far away but a nice thought! After all, I did my... http://fb.me/F7fBcD5E"
p56
sg18
(lp57
S'friends'
p58
aS'book reading'
p59
aS'Chennai'
p60
aS'nice thought'
p61
aS'After'
p62
asa(dp63
g2
S'Aroon Kumar'
p64
sg6
(lp65
S'http://twurl.nl/epxbue'
p66
asg9
I0
sg10
S'09/27/10 03:56:29'
p67
sg12
S'aroonkumar123'
p68
sg14
(lp69
I302
asg16
S'Stuffed lasagne with forest mushroom and truffle, anybody? - \r\n\r\nBy V. Jagannathan - - - -\r\n\r\nChennai, Sep 27 (IANS)  http://twurl.nl/epxbue'
p70
sg18
(lp71
S'Stuffed lasagne'
p72
aS'forest mushroom'
p73
aS'truffle'
p74
aS'anybody'
p75
aS'V. Jagannathan'
p76
aS'Chennai'
p77
aS'Sep'
p78
aS'IANS'
p79
asa(dp80
g2
S'The Madras Way'
p81
sg6
(lp82
S'http://t.co/u2RQhxP'
p83
asg9
I0
sg10
S'09/27/10 04:17:40'
p84
sg12
S'vaidynath'
p85
sg14
(lp86
sg16
S'Audio recording of the lecture by Alan Rusbridger, Editor, The Guardian, in Chennai on September 18\r\n http://t.co/u2RQhxP'
p87
sg18
(lp88
S'Audio recording'
p89
aS'lecture'
p90
aS'Alan Rusbridger'
p91
aS'Editor'
p92
aS'The Guardian'
p93
aS'Chennai'
p94
aS'September'
p95
asa(dp96
g2
S'Rajiv Srivatsa'
p97
sg4
S'http://telljeeves.blogspot.com/2010/09/ode-to-chennai-super-kings.html'
p98
sg6
(lp99
S'http://bit.ly/8Y4ty1'
p100
asg9
I35
sg10
S'09/27/10 04:21:11'
p101
sg12
S'telljeeves'
p102
sg14
(lp103
I348
asg16
S'An ode to Chennai Super Kings, the Champions! - http://bit.ly/8Y4ty1'
p104
sg18
(lp105
S'ode'
p106
aS'Chennai Super Kings'
p107
aS'Champions'
p108
asa(dp109
g2
S'Spiritual Worlds'
p110
sg4
S'http://article.wn.com/view/2010/09/27/Even_as_office_boy_I_stayed_close_to_cinema_Award_winner_Pan/?utm_source=twitterfeed&utm_medium=twitter'
p111
sg6
(lp112
S'http://bit.ly/9MWf46'
p113
asg9
I2
sg10
S'09/27/10 04:50:33'
p114
sg12
S'SpiritualWorlds'
p115
sg14
(lp116
I408
asg16
S'Entertainment: Even as office boy, I stayed close to cinema: Award winner Pandiraj: Chennai, Sep 27 (IANS) Monday,... http://bit.ly/9MWf46'
p117
sg18
(lp118
S'Entertainment'
p119
aS'office boy'
p120
aS'Award winner Pandiraj'
p121
aS'Chennai'
p122
aS'Sep'
p123
aS'IANS'
p124
aS'Monday'
p125
asa(dp126
g2
S'Pooja...'
p127
sg6
(lp128
S'http://is.gd/fv5pk'
p129
asg9
I0
sg10
S'09/27/10 05:30:15'
p130
sg12
S'pooja1712'
p131
sg14
(lp132
sS'tag'
p133
(lp134
S'# Chennai'
p135
asS'dialog'
p136
(lp137
S'@MarriottIntl'
p138
aS'@CourtyardHotels'
p139
aS'@vbanagiri'
p140
asg16
S"dinner jazz music fundraiser for kids welfare @MarriottIntl's @CourtyardHotels in #Chennai: http://is.gd/fv5pk @vbanagiri pls pass word :)"
p141
sg18
(lp142
S'dinner jazz music fundraiser'
p143
aS'kids'
p144
aS'pls'
p145
aS'word'
p146
asa(dp147
g2
S'Joy of Giving Week'
p148
sg6
(lp149
S'http://fb.me/GIarhGpT'
p150
asg9
I0
sg10
S'09/27/10 06:16:40'
p151
sg12
S'JoyofGivingWeek'
p152
sg14
(lp153
sg16
S'The Hindu : Tamil Nadu / Chennai News : Celebrating the spirit of giving http://fb.me/GIarhGpT'
p154
sg18
(lp155
S'Hindu'
p156
aS'Tamil Nadu / Chennai News'
p157
aS'Celebrating'
p158
aS'spirit'
p159
asa(dp160
g2
S'archaeology'
p161
sg4
S'http://archaeologyexcavations.blogspot.com/2010/09/largest-stone-age-settlement-found-near.html'
p162
sg6
(lp163
S'http://bit.ly/aEvU9v'
p164
asg9
I2
sg10
S'09/27/10 06:22:34'
p165
sg12
S'archaeology_dig'
p166
sg14
(lp167
sg16
S'Largest stone age settlement found near Chennai http://bit.ly/aEvU9v'
p168
sg18
(lp169
S'Largest stone age settlement'
p170
aS'Chennai'
p171
asa(dp172
g2
S'Zopag'
p173
sg6
(lp174
S'http://tinyurl.com/2cape8q'
p175
asg9
I0
sg10
S'09/27/10 06:36:35'
p176
sg12
S'zopag'
p177
sg14
(lp178
sg16
S'Delta India to set up a plant in Chennai http://tinyurl.com/2cape8q'
p179
sg18
(lp180
S'Delta India'
p181
aS'plant'
p182
aS'Chennai'
p183
asa(dp184
g2
S'Meera San'
p185
sg4
S'http://www.flickr.com/photos/sanmeera/sets/72157625043077660/'
p186
sg6
(lp187
S'http://bit.ly/9VSKgd'
p188
asg9
I4
sg10
S'09/27/10 06:46:08'
p189
sg12
S'sanmeera'
p190
sg14
(lp191
sg16
S'Chennai Traffic http://bit.ly/9VSKgd'
p192
sg18
(lp193
S'Chennai Traffic'
p194
asa(dp195
g2
S'Vijayaraj P'
p196
sS'forwards'
p197
(lp198
S'RT'
p199
asg6
(lp200
S'http://yfrog.com/i3w49zj'
p201
asg9
I0
sg10
S'09/27/10 06:48:01'
p202
sg12
S'vijayrajp'
p203
sg14
(lp204
I725
asg136
(lp205
S'@sangeethsivan'
p206
asg16
S'RT @sangeethsivan: A board seen on one of the Bar in Chennai... HOPE THEY HAVE FRANCHISES ACROSS INDIA !!! http://yfrog.com/i3w49zj'
p207
sg18
(lp208
S'board'
p209
aS'Bar'
p210
aS'Chennai'
p211
aS'HOPE THEY HAVE FRANCHISES ACROSS INDIA'
p212
asa(dp213
g2
S'Louis'
p214
sg4
S'http://www.chennaiheat.com/?page_id=15'
p215
sg6
(lp216
S'http://bit.ly/9NRL1j'
p217
asg9
I5
sg10
S'09/27/10 06:48:01'
p218
sg12
S'islapyou'
p219
sg14
(lp220
sg16
S'whoah. Chennai Heat 2010 is FREE. no tournament fees! check that out. http://bit.ly/9NRL1j'
p221
sg18
(lp222
S'whoah'
p223
aS'Chennai Heat'
p224
aS'FREE'
p225
aS'tournament fees'
p226
aS'check'
p227
asa(dp228
g2
S'Kunal Bilakhia'
p229
sg197
(lp230
S'RT'
p231
asg6
(lp232
S'http://bit.ly/cHRQJQ'
p233
asg9
I87
sg4
S'http://cricket.yahoo.com/photos/Final--Chennai-Super-Kings-vs-Warriors_12855203569722'
p234
sg10
S'09/27/10 06:50:14'
p235
sg12
S'KunalBilakhia'
p236
sg14
(lp237
I596
aI603
asg133
(lp238
S'# T20'
p239
aS'# cricket'
p240
asg136
(lp241
S'@YahooCricket'
p242
asg16
S'RT @YahooCricket: Watch all the best pictures from the CLT20 finals between Chennai and the Warriors http://bit.ly/cHRQJQ #T20 #cricket'
p243
sg18
(lp244
S'best pictures'
p245
aS'CLT20 finals'
p246
aS'Chennai'
p247
aS'Warriors'
p248
asa(dp249
g2
S'Aljazeera Sport'
p250
sg4
S'http://english.aljazeera.net//sport/2010/09/201092765036388832.html?utm_source=twitterfeed&utm_medium=twitter'
p251
sg6
(lp252
S'http://bit.ly/bOkhIy'
p253
asg9
I3
sg10
S'09/27/10 07:21:02'
p254
sg12
S'Aljazeera_Sport'
p255
sg14
(lp256
I644
asg16
S"Dhoni hails Super Kings win: Chennai captain says winning Champions League 'an emotional moment' with breakup of t... http://bit.ly/bOkhIy"
p257
sg18
(lp258
S'Dhoni hails Super Kings win'
p259
aS'Chennai captain'
p260
aS"Champions League 'an"
p261
aS'emotional moment'
p262
aS'breakup'
p263
asa(dp264
g2
S'Pooja  M'
p265
sg6
(lp266
S'http://lnkd.in/-d9tGa'
p267
asg9
I0
sg10
S'09/27/10 07:29:12'
p268
sg12
S'poojagsna'
p269
sg14
(lp270
sg133
(lp271
S'# 8230'
p272
asg16
S"Green Energy World Expo'2010 - 14-16 October,Chennai Trade Centre,Chennai ,India. Join us for more details contact me &#8230;http://lnkd.in/-d9tGa"
p273
sg18
(lp274
S"Green Energy World Expo'2010"
p275
aS'October,Chennai Trade Centre,Chennai ,India'
p276
aS'Join'
p277
aS'more details'
p278
asa(dp279
g2
S'FiberNews'
p280
sg4
S'http://www.google.com/url?sa=X&q=http://www.thehindu.com/business/article740806.ece&ct=ga&cad=:s7:f1:v0:d2:i1:lt:e0:p0:t1285572986:&cd=kKQzcchMA2Y&usg=AFQjCNF6nG62Q8hcNwV2cGFlSMRUVQ4Y7Q'
p281
sg6
(lp282
S'http://bit.ly/98ufro'
p283
asg9
I2
sg10
S'09/27/10 07:37:10'
p284
sg12
S'FiberNews'
p285
sg14
(lp286
I875
aI876
asg16
S'The Hindu Business News BSNL FTTH facility soon: The FibretotheHomeFTTH facility provided by BSNL Chennai Telephon... http://bit.ly/98ufro'
p287
sg18
(lp288
S'Hindu Business News BSNL FTTH facility'
p289
aS'FibretotheHomeFTTH facility'
p290
aS'BSNL Chennai Telephon'
p291
asa(dp292
g2
S'INDIA Breaking News'
p293
sg6
(lp294
S'http://ow.ly/19aZe7'
p295
asg9
I0
sg10
S'09/27/10 09:25:09'
p296
sg12
S'INBreakingNews'
p297
sg14
(lp298
sg16
S'Inaugural Chennai-Madurai flight lands at Madurai http://ow.ly/19aZe7'
p299
sg18
(lp300
S'Inaugural Chennai-Madurai'
p301
aS'lands'
p302
aS'Madurai'
p303
asa(dp304
g2
S'The Alternative'
p305
sg4
S'http://thealternative.in/articles/shooting-for-ladakh'
p306
sg6
(lp307
S'http://bit.ly/bPUKki'
p308
asg9
I7
sg10
S'09/27/10 09:39:24'
p309
sg12
S'_thealternative'
p310
sg14
(lp311
I1211
asg16
S'New- Shooting for Ladakh: a photo display in Blore and now in Chennai to raise funds and rebuild Leh before winter  : http://bit.ly/bPUKki'
p312
sg18
(lp313
S'New- Shooting'
p314
aS'Ladakh'
p315
aS'photo display'
p316
aS'Blore'
p317
aS'Chennai'
p318
aS'funds'
p319
aS'Leh'
p320
aS'winter'
p321
asa(dp322
g2
S'india vision'
p323
sg6
(lp324
S'http://dlvr.it/60XPZ'
p325
asg9
I0
sg10
S'09/27/10 09:51:02'
p326
sg12
S'indiavisioncom'
p327
sg14
(lp328
sg16
S'Volkswagen-JK Tyre Polo Cup India 2010 begins in Chennai http://dlvr.it/60XPZ'
p329
sg18
(lp330
S'Volkswagen-JK Tyre Polo Cup India'
p331
aS'Chennai'
p332
asa(dp333
g2
S'kamalpreet'
p334
sg197
(lp335
S'RT'
p336
asg6
(lp337
S'http://bit.ly/9AP3MP'
p338
asg9
I15
sg4
S'http://gauravmishra.wordpress.com/2010/09/26/osidays-2010-css3/'
p339
sg10
S'09/27/10 10:26:48'
p340
sg12
S'kamalpreetkaur'
p341
sg14
(lp342
sg133
(lp343
S'# osidays'
p344
asg136
(lp345
S'@gauravmishr'
p346
asg16
S'RT @gauravmishr: OSI Days 2010 (The Chennai experience) from wp blog http://bit.ly/9AP3MP #osidays'
p347
sg18
(lp348
S'OSI Days'
p349
aS'Chennai experience'
p350
aS'wp blog'
p351
asa(dp352
g2
S'iStoreIndia'
p353
sg6
(lp354
S'http://fb.me/JZ3b59PK'
p355
asg9
I0
sg10
S'09/27/10 11:05:05'
p356
sg12
S'iStoreIndia'
p357
sg14
(lp358
I1461
asg16
S'I posted 2 photos on Facebook in the album &quot;iPhoto Contest - Chennai&quot; http://fb.me/JZ3b59PK'
p359
sg18
(lp360
S'photos'
p361
aS'Facebook'
p362
aS'album'
p363
aS'iPhoto Contest'
p364
aS'Chennai'
p365
asa(dp366
g2
S'malik khan'
p367
sg6
(lp368
S'http://goo.gl/fb/fgZjU'
p369
asg9
I0
sg10
S'09/27/10 11:26:26'
p370
sg12
S'being_malik'
p371
sg14
(lp372
sg133
(lp373
S'# business'
p374
aS'# news'
p375
asg16
S'#business #news To Chennai by train... - The Hindu http://goo.gl/fb/fgZjU'
p376
sg18
(lp377
S'Chennai'
p378
aS'train'
p379
aS'Hindu'
p380
asa(dp381
g2
S'SHAH RUKH KHAN'
p382
sg6
(lp383
S'http://goo.gl/fb/MwmNe'
p384
asg9
I0
sg10
S'09/27/10 11:35:57'
p385
sg12
S'AMSRK_'
p386
sg14
(lp387
sg133
(lp388
S'# 8230'
p389
asg16
S'Reforms panel fails to advise govt on checking corruption TNN, Sep 26, 2010, 03.47am IST CHENNAI: The much-touted&#8230; http://goo.gl/fb/MwmNe'
p390
sg18
(lp391
S'Reforms'
p392
aS'fails'
p393
aS'govt'
p394
aS'checking corruption TNN'
p395
aS'Sep'
p396
aS'IST CHENNAI'
p397
aS'much-touted&'
p398
asa(dp399
g2
S'Fashion and You'
p400
sg4
S'http://adithisammasews.blogspot.com/2010/09/fashion-you-thats-fashion-for-me.html'
p401
sg6
(lp402
S'http://bit.ly/czYnSV'
p403
asg9
I7
sg10
S'09/27/10 12:03:20'
p404
sg12
S'FashionandYou'
p405
sg14
(lp406
sg16
S'CONGRATS Lakshmi Rajesh from Chennai!!! She has won a Voucher of Rs. 1000 for blogging about us. Check out her blog - http://bit.ly/czYnSV'
p407
sg18
(lp408
S'CONGRATS Lakshmi Rajesh'
p409
aS'Chennai'
p410
aS'Voucher'
p411
aS'blogging'
p412
aS'Check'
p413
aS'blog'
p414
asa(dp415
g2
S'Swine Flu Protection'
p416
sg4
S'http://www.google.com/url?sa=X&q=http://www.thehindu.com/news/cities/Chennai/article798992.ece&ct=ga&cad=:s7:f1:v0:d2:i0:lt:e0:p0:t1285589200:&cd=dO6ymVLhswY&usg=AFQjCNHlBfWEgbDrQl5ixG28vDuR5TjbQw'
p417
sg6
(lp418
S'http://bit.ly/4ngDZN'
p419
aS'http://bit.ly/9bKnmp'
p420
asg9
I2
sg10
S'09/27/10 12:08:05'
p421
sg12
S'swine_flu_pro'
p422
sg14
(lp423
I1065
asS'r'
p424
I1065
sg16
S'http://bit.ly/4ngDZN Chennai in the grip of A(H1N1): Three districts in Tamil Nadu have contributed the bulk of A(... http://bit.ly/9bKnmp'
p425
sg18
(lp426
S'Chennai'
p427
aS'grip'
p428
aS'H1N1'
p429
aS'districts'
p430
aS'Tamil Nadu'
p431
aS'bulk'
p432
asa(dp433
g2
S'shweta '
p434
sg6
(lp435
S'http://t.co/eooOblq'
p436
asg9
I0
sg10
S'09/27/10 12:55:13'
p437
sg12
S'schwetts'
p438
sg14
(lp439
sg136
(lp440
S'@youtube'
p441
asg16
S"Check this video out -- Chennai's auto drivers feed 500 people. Brand building i think ;)http://t.co/eooOblq via @youtube"
p442
sg18
(lp443
S'Check'
p444
aS'video'
p445
aS'Chennai'
p446
aS'auto drivers'
p447
aS'people'
p448
aS'Brand building'
p449
asa(dp450
g2
S'Abhijeet Bohra'
p451
sg6
(lp452
S'http://fb.me/K1hdmntm'
p453
asg9
I0
sg10
S'09/27/10 13:02:54'
p454
sg12
S'djbeat2ab'
p455
sg14
(lp456
sg16
S'DJ Beat2 Live@ Blend, Taj Mount Road, Chennai ... Full Power!! http://fb.me/K1hdmntm'
p457
sg18
(lp458
S'DJ Beat2 Live@ Blend'
p459
aS'Taj Mount Road'
p460
aS'Chennai'
p461
aS'Full Power'
p462
asa(dp463
g2
S'Karthik Kumar'
p464
sg6
(lp465
S'http://fb.me/AxaDb7it'
p466
asg9
I0
sg10
S'09/27/10 13:05:02'
p467
sg12
S'evamkarthik'
p468
sg14
(lp469
sg16
S'Chennai - Oct end :) http://fb.me/AxaDb7it'
p470
sg18
(lp471
S'Chennai'
p472
aS'Oct end'
p473
asa(dp474
g2
S'Viswanath Reddy L'
p475
sg6
(lp476
S'http://goo.gl/fb/YG0VX'
p477
asg9
I0
sg10
S'09/27/10 15:26:13'
p478
sg12
S'lvr_viswanath'
p479
sg14
(lp480
sg133
(lp481
S'# CTS'
p482
aS'# placementpapers'
p483
asg16
S'#CTS Fresher Placement Pattern 18 September 2010, Chennai http://goo.gl/fb/YG0VX #placementpapers'
p484
sg18
(lp485
S'Fresher Placement Pattern'
p486
aS'September'
p487
aS'Chennai'
p488
asa(dp489
g2
S'ChennaiParkour.com'
p490
sg6
(lp491
S'http://ow.ly/19bgPu'
p492
asg9
I0
sg10
S'09/27/10 15:27:00'
p493
sg12
S'chennaiparkour'
p494
sg14
(lp495
sg16
S"Website update: Video for April Beginners Camp - I'm happy to announce that Chennai Parkour's Annual Beginners two d... http://ow.ly/19bgPu"
p496
sg18
(lp497
S'Website'
p498
aS'Video'
p499
aS'April Beginners Camp'
p500
aS'announce'
p501
aS'Chennai Parkour'
p502
aS'Annual Beginners'
p503
asa(dp504
g2
S'Malini Horiuchi'
p505
sg4
S'http://therestaurantfairy.com/?p=3260'
p506
sg6
(lp507
S'http://bit.ly/cV7L3l'
p508
asg9
I9
sg10
S'09/27/10 15:27:50'
p509
sg12
S'restaurantfairy'
p510
sg14
(lp511
sg136
(lp512
S'@AddToAny'
p513
asg16
S'Review for The Non-Veg. Restaurant at The Cosmopolitan Club in Chennai, India http://bit.ly/cV7L3l via @AddToAny'
p514
sg18
(lp515
S'Review'
p516
aS'Restaurant'
p517
aS'Cosmopolitan Club'
p518
aS'Chennai'
p519
aS'India'
p520
asa(dp521
g2
S'Indian Cars Bikes'
p522
sg4
S'http://www.indiancarsbikes.in/motorcycles/tvs-rockz-125cc-moped-spied-chennai-20253/?utm_source=twitterfeed&utm_medium=twitter'
p523
sg6
(lp524
S'http://bit.ly/cWlPiO'
p525
asg9
I2
sg10
S'09/27/10 15:46:24'
p526
sg12
S'Indiancarsbikes'
p527
sg14
(lp528
sg16
S'TVS Rockz 125cc moped spied in Chennai http://bit.ly/cWlPiO'
p529
sg18
(lp530
S'TVS Rockz'
p531
aS'Chennai'
p532
asa(dp533
g2
S'Re: Mind India'
p534
sg6
(lp535
S'http://t.co/n9i9cid'
p536
asg9
I0
sg10
S'09/27/10 16:41:18'
p537
sg12
S'RemindIndia'
p538
sg14
(lp539
sg133
(lp540
S'# Chennai'
p541
aS'# NGO'
p542
aS'# mentalhealth'
p543
aS'# india'
p544
aS'# disability'
p545
aS'# rehabilitation'
p546
aS'# homeless'
p547
aS'# destitute'
p548
asg16
S'Rescue to reuniting... in a week! http://t.co/n9i9cid #Chennai #NGO\r\n#mentalhealth #india #disability #rehabilitation #homeless #destitute'
p549
sg18
(lp550
S'Rescue'
p551
aS'week'
p552
asa(dp553
g2
S'Outsourcing-Eqentia'
p554
sg6
(lp555
S'http://eqent.me/bcjC3D'
p556
asg9
I0
sg10
S'09/27/10 23:25:41'
p557
sg12
S'outsourcingEq'
p558
sg14
(lp559
sg16
S'BPO co WNS to add 1,000 seats each in Chennai, Mumbai http://eqent.me/bcjC3D'
p560
sg18
(lp561
S'BPO'
p562
aS'WNS'
p563
aS'seats'
p564
aS'Chennai'
p565
aS'Mumbai'
p566
asa.