(lp0
(dp1
S'name'
p2
S'cheap'
p3
sS'long-url'
p4
S'http://www.google.com/url?sa=X&q=http://thebollywoodactress.com/endhiran-online-ticket-bookings-endhiranendhiran-online-ticket-40-chennai-theatres-list/&ct=ga&cad=:s7:f1:v0:d2:i2:lt:e0:p0:t1284772524:&cd=7RIMcIgbhJ0&usg=AFQjCNHtUP8nJYVNePgEqwC40C3RrkFCPg&utm_source=twitterfeed&utm_medium=twitter'
p5
sS'url'
p6
(lp7
S'http://bit.ly/bLU0BP'
p8
asS'bitly'
p9
I9
sS'pub'
p10
S'09/18/10 01:45:21'
p11
sS'nick'
p12
S'cheapwithus'
p13
sS'has_r'
p14
(lp15
sS'msg'
p16
S'Endhiran Online Ticket Bookings Endhiran|Endhiran Online Ticket 40 ...: Endhiran Showing 40 Chennai Theatres List:... http://bit.ly/bLU0BP'
p17
sS'phrase'
p18
(lp19
S'Endhiran Online Ticket Bookings Endhiran'
p20
aS'Endhiran Online Ticket'
p21
aS'Endhiran Showing'
p22
aS'Chennai Theatres List'
p23
asa(dp24
g2
S'IndiaNews247'
p25
sg4
S'http://www.espnstar.com/cricket/news/detail/item500790?utm_source=twitterfeed&utm_medium=twitter'
p26
sg6
(lp27
S'http://bit.ly/b4iHTA'
p28
asg9
I2
sg10
S'09/18/10 02:36:01'
p29
sg12
S'IndiaNews247'
p30
sg14
(lp31
I44
asg16
S'Unbeaten Chennai take on Victoria: IPL champions Chennai Super Kings face their toughest test yet when they take o... http://bit.ly/b4iHTA'
p32
sg18
(lp33
S'Unbeaten Chennai'
p34
aS'Victoria'
p35
aS'IPL champions Chennai Super Kings face'
p36
aS'toughest test'
p37
asa(dp38
g2
S'Ron Simon'
p39
sg4
S'http://www.google.com/url?sa=X&q=http://www.deccanchronicle.com/chennai/free-swine-flu-vaccine-shots-tn-poor-756&ct=ga&cad=:s7:f1:v0:d2:i0:lt:e0:p0:t1284779307:&cd=GydV2dyJKA4&usg=AFQjCNHBwEpJ91UdcFz5KlKwtIzuolfrBw'
p40
sg6
(lp41
S'http://bit.ly/aGa5Ps'
p42
asg9
I2
sg10
S'09/18/10 03:08:36'
p43
sg12
S'ronsimon'
p44
sg14
(lp45
sg16
S'Free swine flu vaccine shots for TN poor: ... chief minister M Karunanidhi on Friday announced that all poor peopl... http://bit.ly/aGa5Ps'
p46
sg18
(lp47
S'Free swine flu vaccine shots'
p48
aS'TN poor'
p49
aS'chief minister M Karunanidhi'
p50
aS'Friday'
p51
aS'poor peopl'
p52
asa(dp53
g2
S'Gulf News'
p54
sg4
S'http://gulfnews.com/life-style/travel/scoring-a-perfect-ten-1.683032'
p55
sg6
(lp56
S'http://bit.ly/9apGWx'
p57
asg9
I19
sg10
S'09/18/10 03:34:55'
p58
sg12
S'gulf_news'
p59
sg14
(lp60
sg16
S"From Chennai to Kochi, South India's temples, food and resorts leave guests asking for more http://bit.ly/9apGWx"
p61
sg18
(lp62
S'Chennai'
p63
aS'Kochi'
p64
aS'South India'
p65
aS'temples'
p66
aS'food'
p67
aS'resorts'
p68
aS'guests'
p69
asa(dp70
g2
S'Fleximoms, India'
p71
sS'forwards'
p72
(lp73
S'RT'
p74
asg6
(lp75
S'http://bit.ly/aeUiZA'
p76
asg9
I34
sg4
S'http://timesofindia.indiatimes.com/india/Chennai-woman-1st-to-win-best-cadet-award/articleshow/6568769.cms'
p77
sg10
S'09/18/10 04:34:34'
p78
sg12
S'Fleximoms'
p79
sg14
(lp80
I145
aI740
aI927
asS'dialog'
p81
(lp82
S'@CatalystInc'
p83
asg16
S'RT @CatalystInc Congrats to A. Divya, 1st female Indian cadet to receive &quot;Sword of Honor&quot; in history of Indian Army http://bit.ly/aeUiZA'
p84
sg18
(lp85
S'Congrats'
p86
aS'A. Divya'
p87
aS'Indian cadet'
p88
aS'Sword'
p89
aS'Honor'
p90
aS'history'
p91
aS'Indian Army'
p92
asa(dp93
g2
S'ScienceMagNews'
p94
sg4
S'http://www.sciencemagnews.com/fuzzy-thinking-could-spot-heart-disease-risk.html?utm_source=twitterfeed&utm_medium=twitter'
p95
sg6
(lp96
S'http://bit.ly/d2zZBm'
p97
asg9
I3
sg10
S'09/18/10 04:52:45'
p98
sg12
S'ScienceMagNews'
p99
sg14
(lp100
sg16
S'Fuzzy Thinking Could Spot Heart Disease Risk: Khanna Nehemiah of the Anna University Chennai, India, and colleague... http://bit.ly/d2zZBm'
p101
sg18
(lp102
S'Fuzzy Thinking Could Spot Heart Disease Risk'
p103
aS'Khanna Nehemiah'
p104
aS'Anna University Chennai'
p105
aS'India'
p106
asa(dp107
g2
S''
p108
sg4
S'http://www.newspolitan.com/forum/art/india/chennai/GE2TGN3RG23ECVC1'
p109
sg6
(lp110
S'http://bit.ly/d87nQm'
p111
asg9
I5
sg10
S'09/18/10 05:11:14'
p112
sg12
S'pawanhegde'
p113
sg14
(lp114
sS'tag'
p115
(lp116
S'# 961'
p117
aS'# 940'
p118
aS'# 969'
p119
aS'# 940'
p120
aS'# 951'
p121
aS'# 9679'
p122
aS'# Woman'
p123
aS'# IncredibleIndia'
p124
asg16
S'9679; &#961;&#940;&#969;&#940;&#951; &#9679;)#Woman pilgrim slips into sea from running train,husband rescues her : : http://bit.ly/d87nQm #IncredibleIndia'
p125
sg18
(lp126
S'pilgrim slips'
p127
aS'sea'
p128
aS'train,husband rescues'
p129
asa(dp130
g2
S'Alpesh Karodiwal'
p131
sg4
S'http://feedproxy.google.com/~r/oneindia-cricket/~3/anNJQGrC2Ps/airtelclt20-chennai-super-kings-victorian-bushrang.html?utm_source=twitterfeed&utm_medium=twitter'
p132
sg6
(lp133
S'http://bit.ly/aSXWZY'
p134
asg9
I2
sg10
S'09/18/10 05:54:52'
p135
sg12
S'SEO_PROFESIONAL'
p136
sg14
(lp137
sg16
S'Super Kings Vs Victorian Bushrangers: Preview: Port Elizabeth: Chennai Super Kings will be looking ... http://bit.ly/aSXWZY alpeshkarodiwal'
p138
sg18
(lp139
S'Super Kings Vs Victorian Bushrangers'
p140
aS'Preview'
p141
aS'Port Elizabeth'
p142
aS'Chennai Super Kings'
p143
asa(dp144
g2
S'Chennai Super Kings'
p145
sg4
S'http://www.chennaisuperkings.com/blog/BlogView.aspx?BlogID=75'
p146
sg6
(lp147
S'http://bit.ly/9r1hlz'
p148
asg9
I41
sg10
S'09/18/10 06:19:12'
p149
sg12
S'ChennaiIPL'
p150
sg14
(lp151
I500
asg16
S'Chennai Super Kings run in to Australian T20 champions, the Victoria Bishrangers next; possibly, the biggest test....\nhttp://bit.ly/9r1hlz'
p152
sg18
(lp153
S'Chennai Super Kings run'
p154
aS'Australian T20 champions'
p155
aS'Victoria Bishrangers'
p156
aS'biggest test'
p157
asa(dp158
g2
S'SHRM India'
p159
sg4
S'http://www.istdchennai.org/?page_id=1041'
p160
sg6
(lp161
S'http://bit.ly/shrmindia_geny'
p162
asg9
I122
sg10
S'09/18/10 06:25:01'
p163
sg12
S'SHRMindia'
p164
sg14
(lp165
I303
aI355
aI473
aI496
asg115
(lp166
S'# shrmindia'
p167
aS'# chennai'
p168
aS'# 8216'
p169
aS'# 8217'
p170
asg16
S'Call &amp; Register at 72000 00022 / 33 / 44 for #shrmindia conference in #chennai on &#8216;Leading in GenY Era&#8217;. http://bit.ly/shrmindia_geny'
p171
sg18
(lp172
S'Call'
p173
aS'Register'
p174
aS'conference'
p175
aS'Leading'
p176
aS'GenY Era&'
p177
asa(dp178
g2
S'Andy Burton'
p179
sg4
S'http://www.google.com/url?sa=X&q=http://www.indiaglitz.com/channels/tamil/article/60173.html&ct=ga&cad=:s7:f1:v0:d2:i0:lt:e0:p0:t1284793582:&cd=bvnOqeYdcNU&usg=AFQjCNFuD-a_kXwMkqJ3KhPEDINBlHbGLw&utm_source=twitterfeed&utm_medium=twitter&utm_campaign=Formula+1&utm_term=Formula+One+Racing&utm_content=F1'
p180
sg6
(lp181
S'http://bit.ly/9Sj8nP'
p182
asg9
I2
sg10
S'09/18/10 07:06:26'
p183
sg12
S'Andy_Burton'
p184
sg14
(lp185
sg16
S'Vikram rides with F-1 Champion Lewis Hamilton: Formula One racing champion Lewis Hamilton was in Chennai on Thursd... http://bit.ly/9Sj8nP'
p186
sg18
(lp187
S'Vikram'
p188
aS'Champion Lewis Hamilton'
p189
aS'Formula'
p190
aS'champion Lewis Hamilton'
p191
aS'Chennai'
p192
aS'Thursd'
p193
asa(dp194
g2
S"Foster's"
p195
sg4
S'http://www.chennaihub.com/pool-parlours-in-chennai.html'
p196
sg6
(lp197
S'http://bit.ly/bqq4qn'
p198
asg9
I15
sg10
S'09/18/10 09:00:02'
p199
sg12
S'art_of_chilling'
p200
sg14
(lp201
I814
asg16
S'Want to chill out with some extravagant pool? Is pool your sport of leisure and chill out means? Check this out. http://bit.ly/bqq4qn'
p202
sg18
(lp203
S'Want'
p204
aS'extravagant pool'
p205
aS'pool'
p206
aS'sport'
p207
aS'leisure'
p208
aS'chill'
p209
aS'means'
p210
aS'Check'
p211
asa(dp212
g2
S'Sivasubramanian M'
p213
sg72
(lp214
S'RT'
p215
asg6
(lp216
S'http://bit.ly/igf10core'
p217
asg9
I7
sg4
S'http://isocmadras.blogspot.com/2010/09/igf-dynamic-coalition-on-core-internet.html'
p218
sg10
S'09/18/10 09:02:06'
p219
sg12
S'ShivaIndia'
p220
sg14
(lp221
sg115
(lp222
S'# igf2010'
p223
aS'# isoc'
p224
asg81
(lp225
S'@isocchennai'
p226
asg16
S'RT @isocchennai: Recording of the Isoc Chennai Dynamic Coalition Meeting on Core Internet Values at IGF10 at Vilnius http://bit.ly/igf10core  #igf2010 #isoc'
p227
sg18
(lp228
S'Recording'
p229
aS'Isoc Chennai Dynamic Coalition Meeting'
p230
aS'Core Internet Values'
p231
aS'IGF10'
p232
aS'Vilnius'
p233
asa(dp234
g2
S'Anandhu'
p235
sg4
S'http://hindia.in/tamilnews/2010/09/18/ioc-to-launch-5-kg-commercial-lpg-cylinders-in-chennai-on-monday/'
p236
sg6
(lp237
S'http://bit.ly/aLcRx9'
p238
asg9
I11
sg10
S'09/18/10 09:29:11'
p239
sg12
S'anandhu005'
p240
sg14
(lp241
I529
aI530
aI534
asg16
S'IOC to launch 5-kg commercial LPG cylinders in Chennai on Monday\nhttp://bit.ly/aLcRx9'
p242
sg18
(lp243
S'IOC'
p244
aS'commercial LPG cylinders'
p245
aS'Chennai'
p246
aS'Monday'
p247
asa(dp248
g2
S'Gulf Daily News'
p249
sg4
S'http://www.gulf-daily-news.com/NewsDetails.aspx?storyid=287137&utm_source=twitterfeed&utm_medium=twitter'
p250
sg6
(lp251
S'http://bit.ly/c0jzmd'
p252
asg9
I2
sg10
S'09/18/10 09:29:14'
p253
sg12
S'gdnonline'
p254
sg14
(lp255
sg16
S'Brazil take lead against India after five-set thrillers: CHENNAI: Brazil won two tense five-set marathons against ... http://bit.ly/c0jzmd'
p256
sg18
(lp257
S'Brazil'
p258
aS'lead'
p259
aS'India'
p260
aS'five-set thrillers'
p261
aS'CHENNAI'
p262
aS'Brazil'
p263
aS'five-set marathons'
p264
asa(dp265
g2
S' 2010 CommonWealth'
p266
sg4
S'http://sify.com/news/army-values-person-s-merit-not-gender-v-k-singh-news-national-kjsp7tegbdc.html?utm_source=twitterfeed&utm_medium=twitter&utm_campaign=DTN+Delhi+2010%3A'
p267
sg6
(lp268
S'http://bit.ly/duA2fq'
p269
asg9
I2
sg10
S'09/18/10 10:27:03'
p270
sg12
S'DTNCommonWealth'
p271
sg14
(lp272
sg16
S"DTN Delhi 2010: Army values person's merit, not gender: V K Singh: Chennai: Chief of Army Staff Gen V K Singh on S... http://bit.ly/duA2fq"
p273
sg18
(lp274
S'DTN Delhi'
p275
aS'Army values person'
p276
aS'merit'
p277
aS'V K Singh'
p278
aS'Chennai'
p279
aS'Chief'
p280
aS'Army Staff Gen V K Singh'
p281
asa(dp282
g2
S'Teresa'
p283
sg4
S'http://hindu.com/2007/11/27/stories/2007112759390200.htm'
p284
sg6
(lp285
S'http://bit.ly/9AeNLQ'
p286
asg9
I3
sg10
S'09/18/10 10:49:28'
p287
sg12
S'louella'
p288
sg14
(lp289
sg16
S'Archive - Four-day Polish film festival in Chennai gets under way  http://bit.ly/9AeNLQ'
p290
sg18
(lp291
S'Polish film festival'
p292
aS'Chennai gets'
p293
aS'way'
p294
asa(dp295
g2
S'patrick galvin'
p296
sg4
S'http://www.google.com/url?sa=X&q=http://videosfromindia.smashits.com/view/15241/indian-grand-prix-would-be-spectacular-hamilton&ct=ga&cad=:s7:f1:v0:d2:i2:lt:e0:p0:t1284808068:&cd=P3lFvDF3oi8&usg=AFQjCNGacbMQ5kQC4XLD0Tah8rz3aC4Hdg&utm_source=twitterfeed&utm_medium=twitter'
p297
sg6
(lp298
S'http://bit.ly/bIeAV4'
p299
asg9
I3
sg10
S'09/18/10 11:07:56'
p300
sg12
S'itspatgal1'
p301
sg14
(lp302
sg16
S'Indian Grand Prix would be spectacular: Hamilton - VideosFromIndia ...: Chennai, September 18 (ANI): Performing br... http://bit.ly/bIeAV4'
p303
sg18
(lp304
S'Indian Grand Prix'
p305
aS'Hamilton'
p306
aS'VideosFromIndia'
p307
aS'Chennai'
p308
aS'September'
p309
aS'ANI'
p310
aS'br'
p311
asa(dp312
g2
S'B2B Projects India'
p313
sg4
S'http://in.news.yahoo.com/20/20100918/1416/tnl-two-more-letter-threats-to-jaya.html'
p314
sg6
(lp315
S'http://bit.ly/9frOK4'
p316
asg9
I2
sg10
S'09/18/10 12:20:22'
p317
sg12
S'b2bprojects'
p318
sg14
(lp319
sg16
S'News India: Two more letter threats to Jaya: Chennai, Sep 18 (PTI) AIADMK-backed Jaya TV today said\nit had receive... http://bit.ly/9frOK4'
p320
sg18
(lp321
S'News India'
p322
aS'more letter threats'
p323
aS'Jaya'
p324
aS'Chennai'
p325
aS'Sep'
p326
aS'PTI'
p327
aS'AIADMK-backed Jaya TV today'
p328
aS'receive'
p329
asa(dp330
g2
S'Manorama Online'
p331
sg4
S'http://feedproxy.google.com/~r/MathrubhumiEnglish/~3/E6EPX8m4S5M/story.php'
p332
sg6
(lp333
S'http://bit.ly/drF7aF'
p334
asg9
I2
sg10
S'09/18/10 12:45:23'
p335
sg12
S'manoramaonline'
p336
sg14
(lp337
sg16
S'A-I to connect Agatti with Chennai, Bangalore http://bit.ly/drF7aF'
p338
sg18
(lp339
S'A-I'
p340
aS'Agatti'
p341
aS'Chennai'
p342
aS'Bangalore'
p343
asa(dp344
g2
S'Oracle FAQ Forum'
p345
sg4
S'http://www.orafaq.com/forum/index.php?t=rview&th=161644'
p346
sg6
(lp347
S'http://bit.ly/dB64pQ'
p348
asg9
I3
sg10
S'09/18/10 13:18:20'
p349
sg12
S'orafaq_forum'
p350
sg14
(lp351
sg16
S'IMFT-Chennai Hyderabad Mainframe Training, Mainframe Institute Chennai: Mainframe Training Chennai, Hyderabad - ma... http://bit.ly/dB64pQ'
p352
sg18
(lp353
S'IMFT-Chennai Hyderabad Mainframe Training'
p354
aS'Mainframe Institute Chennai'
p355
aS'Mainframe Training Chennai'
p356
aS'Hyderabad'
p357
aS'ma'
p358
asa(dp359
g2
S'Ann Anh'
p360
sg4
S'http://sify.com/finance/asia-s-largest-conference-on-open-source-begins-chennai-on-sunday-news-news-kjsradibhdh.html'
p361
sg6
(lp362
S'http://bit.ly/9Di8Qz'
p363
asg9
I2
sg10
S'09/18/10 13:21:21'
p364
sg12
S'Ann_Anh'
p365
sg14
(lp366
sg16
S"&quot;Asia's largest conference on Open Source begins Chennai on Sunday&quot; ( http://bit.ly/9Di8Qz )"
p367
sg18
(lp368
S'" Asia'
p369
aS'largest conference'
p370
aS'Open Source'
p371
aS'Chennai'
p372
aS'Sunday'
p373
asa(dp374
g2
S'Sorav Jain '
p375
sg4
S'http://www.facebook.com/album.php?aid=221489&id=696235950&l=20908ed17b'
p376
sg6
(lp377
S'http://bit.ly/deIVP9'
p378
asg9
I43
sg10
S'09/18/10 14:15:20'
p379
sg12
S'SORAVJAIN'
p380
sg14
(lp381
I808
aI1153
asg115
(lp382
S'# Chennai'
p383
aS'# Tieunc'
p384
asg16
S'The Tie #Chennai Un-Conference pics are here http://bit.ly/deIVP9 #Tieunc'
p385
sg18
(lp386
S'Tie'
p387
aS'Un-Conference pics'
p388
asa(dp389
g2
S'ecoATM Stations'
p390
sg4
S'http://www.techeye.net/business/chennai-india-being-used-as-e-waste-dumping-ground'
p391
sg6
(lp392
S'http://bit.ly/biSYFP'
p393
asg9
I11
sg10
S'09/18/10 14:42:02'
p394
sg12
S'ecoATM'
p395
sg14
(lp396
sg16
S'Chennai, India being used as e-waste dumping ground: http://bit.ly/biSYFP'
p397
sg18
(lp398
S'Chennai'
p399
aS'India'
p400
aS'e-waste dumping ground'
p401
asa(dp402
g2
S'Racing Grand Prix'
p403
sg4
S'http://www.google.com/url?sa=X&q=http://timesofindia.indiatimes.com/life-style/parties/chennai/-Lewis-Hamilton-meets-fans/articleshow/6580045.cms&ct=ga&cad=:s7:f1:v0:d2:i0:lt:e0:p0:t1284820946:&cd=kBfD8Wwx9G8&usg=AFQjCNHiNtCoki49OtWCSGjE_7G7igk4YA&utm_source=twitterfeed&utm_medium=twitter'
p404
sg6
(lp405
S'http://bit.ly/cVhuZL'
p406
asg9
I2
sg10
S'09/18/10 14:42:29'
p407
sg12
S'RacingGrandPrix'
p408
sg14
(lp409
sg16
S'Lewis Hamilton meets fans: After thrilling fans on the race track in Sriperumbudur, the suave 25-year-old British ... http://bit.ly/cVhuZL'
p410
sg18
(lp411
S'Lewis Hamilton meets fans'
p412
aS'thrilling fans'
p413
aS'race track'
p414
aS'Sriperumbudur'
p415
aS'suave'
p416
aS'British'
p417
asa(dp418
g2
S'cricket20'
p419
sg4
S'http://www.cricket20.com/news/article.asp?NewsID=5768&utm_source=twitterfeed&utm_medium=twitter'
p420
sg6
(lp421
S'http://bit.ly/bVbp5O'
p422
asg9
I2
sg10
S'09/18/10 15:32:40'
p423
sg12
S'cricket_20'
p424
sg14
(lp425
sg16
S'Super Kings win the toss, elect to bat first: Chennai Super Kings skipper MS Dhoni has won the toss and elected to... http://bit.ly/bVbp5O'
p426
sg18
(lp427
S'Super Kings win'
p428
aS'toss'
p429
aS'elect'
p430
aS'Chennai Super Kings skipper MS Dhoni'
p431
aS'toss'
p432
asa(dp433
g2
S'Saminathan'
p434
sg4
S'http://m.cricinfo.com/s/2497/NewsV3?storyNo=477625&allinOne=true'
p435
sg6
(lp436
S'http://bit.ly/d9BDUg'
p437
asg9
I3
sg10
S'09/18/10 15:32:47'
p438
sg12
S'Saminathanece'
p439
sg14
(lp440
sg16
S'Hussey in for Hayden, Chennai bat http://bit.ly/d9BDUg'
p441
sg18
(lp442
S'Hussey'
p443
aS'Hayden'
p444
aS'Chennai bat'
p445
asa(dp446
g2
S'Amitesh Chandan'
p447
sg4
S'http://card.cricket.timesofindia.indiatimes.com/flashsc.cms?matchid=1090&utm_source=twitterfeed&utm_medium=twitter'
p448
sg6
(lp449
S'http://bit.ly/bLAJCf'
p450
asg9
I4
sg10
S'09/18/10 16:32:45'
p451
sg12
S'ammujee'
p452
sg14
(lp453
I985
aI986
aI987
asg16
S'Live: Chennai opt to bat against Victoria: Chennai Super Kings captain MS Dhoni won the toss and chose to bat agai... http://bit.ly/bLAJCf'
p454
sg18
(lp455
S'Chennai opt'
p456
aS'Victoria'
p457
aS'Chennai Super Kings captain MS Dhoni'
p458
aS'toss'
p459
aS'agai'
p460
asa(dp461
g2
S'Cricket India'
p462
sg4
S'http://card.cricket.timesofindia.indiatimes.com/flashsc.cms?matchid=1090'
p463
sg6
(lp464
S'http://bit.ly/b2uUco'
p465
asg9
I3
sg10
S'09/18/10 16:32:45'
p466
sg12
S'Cricketinindia'
p467
sg14
(lp468
I1322
asg16
S'Live: Chennai opt to bat against Victoria http://bit.ly/b2uUco'
p469
sg18
(lp470
S'Chennai opt'
p471
aS'Victoria'
p472
asa(dp473
g2
S'DTN India'
p474
sg4
S'http://card.cricket.timesofindia.indiatimes.com/flashsc.cms?matchid=1090&utm_source=twitterfeed&utm_medium=twitter&utm_campaign=DTN+India%3A'
p475
sg6
(lp476
S'http://bit.ly/aA3SYo'
p477
asg9
I3
sg10
S'09/18/10 16:32:46'
p478
sg12
S'DTNIndia'
p479
sg14
(lp480
sg16
S'DTN India: Live: Chennai opt to bat against Victoria: Chennai Super Kings captain MS Dhoni won the toss and chose ... http://bit.ly/aA3SYo'
p481
sg18
(lp482
S'DTN India'
p483
aS'Chennai opt'
p484
aS'Victoria'
p485
aS'Chennai Super Kings captain MS Dhoni'
p486
aS'toss'
p487
asa(dp488
g2
S' thomas joy'
p489
sg4
S'http://timesofindia.indiatimes.com/city/chennai/Veerappan-nephew-picked-up-from-near-Karunanidhis-house/articleshow/6568841.cms'
p490
sg6
(lp491
S'http://bit.ly/c5aGoC'
p492
asg9
I6
sg10
S'09/18/10 18:18:25'
p493
sg12
S'thomascochin77'
p494
sg14
(lp495
sg16
S"Veerappan kin held from near Karunanidhi's house http://bit.ly/c5aGoC"
p496
sg18
(lp497
S'Veerappan kin'
p498
aS'Karunanidhi'
p499
aS'house'
p500
asa(dp501
g2
S'Crichotline sam'
p502
sg4
S'http://feedproxy.google.com/~r/CRICHOTLINE/~3/NgPZ8XF1BKs/?utm_source=twitterfeed&utm_medium=twitter'
p503
sg6
(lp504
S'http://bit.ly/bDJUEs'
p505
asg9
I2
sg10
S'09/18/10 19:29:22'
p506
sg12
S'crich0tline'
p507
sg14
(lp508
I1331
asg115
(lp509
S'# 8211'
p510
asg16
S'CricHotLine.com : Victoria Bushrangers vs Chennai Super Kings Match 13 CL T20 (2010) Post Match Presentation &#8211; Por... http://bit.ly/bDJUEs'
p511
sg18
(lp512
S'CricHotLine.com'
p513
aS'Victoria Bushrangers'
p514
aS'Chennai Super Kings Match'
p515
aS'CL T20'
p516
aS'Post Match Presentation'
p517
aS'Por'
p518
asa(dp519
g2
S'C. Mohan'
p520
sg4
S'http://www.facebook.com/album.php?aid=72445&id=1040704767&l=2d96072ef4'
p521
sg6
(lp522
S'http://bit.ly/L80Pro'
p523
aS'http://bit.ly/L80P18'
p524
asg9
I383
sg10
S'09/18/10 19:48:19'
p525
sg12
S'seemohan'
p526
sg14
(lp527
I1346
asS'r'
p528
I1346
sg16
S"Enjoyed 1st day of Lalgudi80 celebrations http://bit.ly/L80Pro at Chennai's Music Academy - my photos at http://bit.ly/L80P18 - more coming!"
p529
sg18
(lp530
S'Enjoyed'
p531
aS'day'
p532
aS'Lalgudi80 celebrations'
p533
aS'Chennai'
p534
aS'Music Academy'
p535
aS'photos'
p536
asa(dp537
g2
S'Cricket, Twenty20'
p538
sg4
S'http://www.cricketworld.com//2010_champions_league_twenty20/article/?aid=25575&utm_source=twitterfeed&utm_medium=twitter'
p539
sg6
(lp540
S'http://bit.ly/cvdo3N'
p541
asg9
I2
sg10
S'09/18/10 20:03:08'
p542
sg12
S'The_Cricketers'
p543
sg14
(lp544
I1366
aI1396
asg115
(lp545
S'# cricket'
p546
asg16
S'#cricket \\n\\t\\t\\tSuper Over Needed For Victoria To Beat Chennai\\n\\t\\t\\t: Victoria held their nerve to beat Chennai... http://bit.ly/cvdo3N'
p547
sg18
(lp548
S'tSuper Over Needed For Victoria To Beat Chennai \\ n'
p549
aS'Victoria'
p550
aS'nerve'
p551
aS'Chennai'
p552
asa(dp553
g2
S'Chennai Super Kings'
p554
sg4
S'http://www.chennaisuperkings.com/CL/news/NewsContent.aspx?NewsID=313'
p555
sg6
(lp556
S'http://bit.ly/cVKvR0'
p557
asg9
I45
sg10
S'09/18/10 20:04:25'
p558
sg12
S'ChennaiIPL'
p559
sg14
(lp560
sg16
S'Port Elizabeth: The Victoria Bushrangers snatched a dramatic Super Over win against the Chennai Super Kings to stay...\nhttp://bit.ly/cVKvR0'
p561
sg18
(lp562
S'Port Elizabeth'
p563
aS'Victoria Bushrangers'
p564
aS'dramatic Super Over'
p565
aS'Chennai Super Kings'
p566
asa(dp567
g2
S'carbonmeme'
p568
sg4
S'http://www.thehindu.com/news/cities/Chennai/article697370.ece'
p569
sg6
(lp570
S'http://bit.ly/ddUGac'
p571
asg9
I3
sg10
S'09/18/10 20:35:50'
p572
sg12
S'carbonmeme'
p573
sg14
(lp574
I1434
asg16
S'The Hindu: Projects with focus on social relevance http://bit.ly/ddUGac'
p575
sg18
(lp576
S'Hindu'
p577
aS'Projects'
p578
aS'focus'
p579
aS'social relevance'
p580
asa(dp581
g2
S'Sky News Sport'
p582
sg4
S'http://www.skynews.com.au/sport/article.aspx?id=515095&articleID='
p583
sg6
(lp584
S'http://bit.ly/a83sPd'
p585
asg9
I3
sg10
S'09/18/10 21:03:29'
p586
sg12
S'SkyNewsOzSport'
p587
sg14
(lp588
sg16
S'Bushrangers throw semi-final race open: The Victoria Bushrangers have beaten the Chennai Super Kings in a Super Ov... http://bit.ly/a83sPd'
p589
sg18
(lp590
S'Bushrangers'
p591
aS'semi-final race'
p592
aS'Victoria Bushrangers'
p593
aS'Chennai Super Kings'
p594
aS'Super Ov'
p595
asa(dp596
g2
S'In India'
p597
sg4
S'http://www.thehindu.com/2010/09/19/stories/2010091962141200.htm'
p598
sg6
(lp599
S'http://bit.ly/adcKCz'
p600
asg9
I3
sg10
S'09/18/10 21:31:42'
p601
sg12
S'InIndia'
p602
sg14
(lp603
sg16
S'Lionel Tarassenko. CHENNAI: Like William Blake once hoped, it is possible to hold infinity in your palm. At least,... http://bit.ly/adcKCz'
p604
sg18
(lp605
S'Lionel Tarassenko'
p606
aS'CHENNAI'
p607
aS'Like William Blake'
p608
aS'infinity'
p609
aS'palm'
p610
asa(dp611
g2
S'Racing Grand Prix'
p612
sg4
S'http://www.google.com/url?sa=X&q=http://movies.indiatimes.com/news-gossip/news/Vikram-rides-with-F-1-Champion-Lewis-Hamilton/articleshow/6579707.cms&ct=ga&cad=:s7:f1:v0:d2:i0:lt:e0:p0:t1284847530:&cd=7bnznu-OEM4&usg=AFQjCNElrAg0qVidp9vrvnN_1wWdbBssdg&utm_source=twitterfeed&utm_medium=twitter'
p613
sg6
(lp614
S'http://bit.ly/aO4coa'
p615
asg9
I2
sg10
S'09/18/10 22:05:35'
p616
sg12
S'RacingGrandPrix'
p617
sg14
(lp618
sg16
S'Vikram rides with F-1 Champion Lewis Hamilton: Formula One racing champion Lewis Hamilton was in Chennai on Thursd... http://bit.ly/aO4coa'
p619
sg18
(lp620
S'Vikram'
p621
aS'Champion Lewis Hamilton'
p622
aS'Formula'
p623
aS'champion Lewis Hamilton'
p624
aS'Chennai'
p625
aS'Thursd'
p626
asa(dp627
g2
S'Cricket Australia'
p628
sg4
S'http://cricket.com.au/?s=news-display&id=21856'
p629
sg6
(lp630
S'http://bit.ly/9OfTQy'
p631
asg9
I34
sg10
S'09/18/10 23:21:52'
p632
sg12
S'CricketAus'
p633
sg14
(lp634
sg16
S'Vics beat Chennai in Super over: Three super over sixes from David Hussey have fired Victoria to a thrilling victo... http://bit.ly/9OfTQy'
p635
sg18
(lp636
S'Vics'
p637
aS'Chennai'
p638
aS'Super'
p639
aS'super'
p640
aS'sixes'
p641
aS'David Hussey'
p642
aS'Victoria'
p643
aS'thrilling victo'
p644
asa.
