(lp0
(dp1
S'r'
p2
I13
sS'name'
p3
S''
p4
sS'long-url'
p5
S'http://timesofindia.indiatimes.com/city/chennai/Ganesh-idols-immersed/articleshow/6587941.cms'
p6
sS'url'
p7
(lp8
S'http://bit.ly/aCLZOg'
p9
aS'http://bit.ly/aT19GW&'
p10
asS'bitly'
p11
I4
sS'site'
p12
(lp13
Vibnlive.in.com
p14
aVtimesofindia.indiatimes.com
p15
asS'pub'
p16
S'09/20/10 01:27:02'
p17
sS'nick'
p18
S'RNM_News'
p19
sS'has_r'
p20
(lp21
I13
asS'tag'
p22
(lp23
S'# 12540'
p24
aS'# 12491'
p25
aS'# 12531'
p26
aS'# 12464'
p27
aS'# 12491'
p28
aS'# 12517'
p29
aS'# 12540'
p30
aS'# 12512'
p31
aS'# 12531'
p32
aS'# 12496'
p33
aS'# 12452'
p34
aS'# &'
p35
aS'# 20687'
p36
aS'# 12398'
p37
aS'# 38957'
p38
aS'# 12398'
p39
aS'# 31070'
p40
aS'# 27096'
p41
aS'# 12460'
p42
aS'# 12493'
p43
aS'# 12540'
p44
aS'# 12471'
p45
aS'# 12515'
p46
aS'# 12398'
p47
aS'# 12362'
p48
aS'# 31085'
p49
aS'# 12426'
p50
aS'# 12398'
p51
aS'# 12375'
p52
aS'# 12417'
p53
aS'# 12367'
p54
aS'# 12367'
p55
aS'# 12426'
p56
aS'# 12391'
p57
aS'# 12289'
p58
aS'# 12460'
p59
aS'# 12493'
p60
aS'# 12540'
p61
aS'# 12471'
p62
aS'# 12515'
p63
aS'# 20687'
p64
aS'# 32004'
p65
aS'# 20307'
p66
aS'# 12364'
p67
aS'# 28023'
p68
aS'# 12408'
p69
aS'# 12290'
p70
aS'# 12304'
p71
aS'# 35441'
p72
aS'# 38988'
p73
aS'# 12398'
p74
aS'# 12491'
p75
aS'# 12517'
p76
aS'# 12540'
p77
aS'# 12473'
p78
aS'# 12305'
p79
aS'# 12304'
p80
aS'# 12452'
p81
aS'# 12531'
p82
aS'# 12489'
p83
aS'# 12491'
p84
aS'# 12517'
p85
aS'# 12540'
p86
aS'# 12473'
p87
aS'# 12305'
p88
aS'# news'
p89
aS'# india'
p90
asS'dialog'
p91
(lp92
S'@RNM&'
p93
asS'msg'
p94
S'12514;&#12540;&#12491;&#12531;&#12464;&#12491;&#12517;&#12540;&#12512;&#12531;&#12496;&#12452;)#&#20687;&#12398;&#38957;&#12398;&#31070;&#27096;&#12460;&#12493;&#12540;&#12471;&#12515;&#12398;&#12362;&#31085;&#12426;&#12398;&#12375;&#12417;&#12367;&#12367;&#12426;&#12391;&#12289;&#12460;&#12493;&#12540;&#12471;&#12515;&#20687;&#32004;900&#20307;&#12364;&#28023;&#12408;&#12290;\n[2010/9/19] &#12304;&#35441;&#38988;&#12398;&#12491;&#12517;&#12540;&#12473;&#12305;http://bit.ly/aCLZOg http://bit.ly/aT19GW&#12304;&#12452;&#12531;\n&#12489;&#12491;&#12517;&#12540;&#12473;@RNM&#12305;#news #india'
p95
sS'linkTitle'
p96
(lp97
VGanesh idols immersion passes
p98
aVChennai
p99
aVIBN Live News
p100
asS'meta-keywords'
p101
(lp102
Vidols
p103
aVganesh idols
p104
asa(dp105
g3
S'Varadharajan K'
p106
sS'forwards'
p107
(lp108
S'RT'
p109
asg7
(lp110
S'http://bit.ly/9pB2cz'
p111
asg11
I12
sg5
S'http://www.thehindu.com/news/cities/Chennai/article697369.ece'
p112
sg12
(lp113
Vwww.thehindu.com
p114
asg16
S'09/20/10 02:46:40'
p115
sg18
S'VaradhKrish'
p116
sg20
(lp117
sg91
(lp118
S'@the_hindu'
p119
asg94
S'RT @the_hindu: Lalgudi Jayaraman honoured http://bit.ly/9pB2cz'
p120
sS'phrase'
p121
(lp122
S'Lalgudi Jayaraman'
p123
asg96
(lp124
VHindu
p125
aVCities
p126
aVChennai
p127
aVLalgudi Jayaraman
p128
asa(dp129
g3
S'Live H1N1'
p130
sg5
S'http://expressbuzz.com/cities/chennai/h1n1-shots-to-be-availabe-at-5-places-from-today/208301.html'
p131
sg7
(lp132
S'http://bit.ly/d5aRm6'
p133
asg11
I2
sg12
(lp134
Vexpressbuzz.com
p135
asg16
S'09/20/10 03:05:40'
p136
sg18
S'live_h1n1'
p137
sg20
(lp138
I54
asg22
(lp139
S'# H1N1'
p140
asg94
S'#H1N1 shots to be availabe at 5 places from today - Express Buzz : http://bit.ly/d5aRm6'
p141
sg121
(lp142
S'shots'
p143
aS'places'
p144
aS'today'
p145
aS'Express Buzz'
p146
asg101
(lp147
VExpress
p148
aVIndian Express
p149
aVNew Indian Express
p150
aVIndia
p151
aVIndian
p152
aVSouth India
p153
aVNRIs
p154
aVAndhra Pradesh
p155
aVKarnataka
p156
aVKerala
p157
aVTamil Nadu
p158
aVBangalore
p159
aVChennai
p160
aVMadras
p161
aVHyderabad
p162
aVKochi
p163
aVMadurai
p164
aVCoimbatore
p165
aVMysore
p166
aVVizag
p167
aVVijayawada
p168
aVTrivandrum
p169
aVKozhikode
p170
aVSouthern Cinema
p171
aVBollywood
p172
aVKollywood
p173
aVTollywood
p174
aVTirupati
p175
aVSabarimala
p176
aVBreaking News
p177
aVSports
p178
aVBusiness
p179
aVOrissa
p180
asa(dp181
g3
S'Donna Jinns'
p182
sg5
S'http://expressbuzz.com/cities/chennai/transgenders-go-for-sex-change-for-better-life/208321.html'
p183
sg7
(lp184
S'http://bit.ly/9DlJL5'
p185
asg11
I3
sg12
(lp186
Vexpressbuzz.com
p187
asg16
S'09/20/10 03:16:21'
p188
sg18
S'Wetpanties69'
p189
sg20
(lp190
sg94
S'Transgenders go for sex change for better life: Dr Jyotsna Murthy at the Department of Plastic Surgery at the Sri ... http://bit.ly/9DlJL5'
p191
sg121
(lp192
S'Transgenders'
p193
aS'sex change'
p194
aS'better life'
p195
aS'Dr Jyotsna Murthy'
p196
aS'Department'
p197
aS'Plastic Surgery'
p198
aS'Sri'
p199
asg101
(lp200
VExpress
p201
aVIndian Express
p202
aVNew Indian Express
p203
aVIndia
p204
aVIndian
p205
aVSouth India
p206
aVNRIs
p207
aVAndhra Pradesh
p208
aVKarnataka
p209
aVKerala
p210
aVTamil Nadu
p211
aVBangalore
p212
aVChennai
p213
aVMadras
p214
aVHyderabad
p215
aVKochi
p216
aVMadurai
p217
aVCoimbatore
p218
aVMysore
p219
aVVizag
p220
aVVijayawada
p221
aVTrivandrum
p222
aVKozhikode
p223
aVSouthern Cinema
p224
aVBollywood
p225
aVKollywood
p226
aVTollywood
p227
aVTirupati
p228
aVSabarimala
p229
aVBreaking News
p230
aVSports
p231
aVBusiness
p232
aVOrissa
p233
asa(dp234
g3
S'ramya venkitesh'
p235
sg5
S'http://expressbuzz.com/cities/chennai/visually-challenged-find-light-in-anna-library/207752.html'
p236
sg7
(lp237
S'http://bit.ly/aRA3sQ'
p238
asg11
I5
sg12
(lp239
Vexpressbuzz.com
p240
asg16
S'09/20/10 04:36:19'
p241
sg18
S'ramya2384'
p242
sg20
(lp243
I469
asg91
(lp244
S'@addthis'
p245
asg94
S'visually-challenged-find-light-in-anna-library: http://bit.ly/aRA3sQ via @addthis'
p246
sg101
(lp247
VExpress
p248
aVIndian Express
p249
aVNew Indian Express
p250
aVIndia
p251
aVIndian
p252
aVSouth India
p253
aVNRIs
p254
aVAndhra Pradesh
p255
aVKarnataka
p256
aVKerala
p257
aVTamil Nadu
p258
aVBangalore
p259
aVChennai
p260
aVMadras
p261
aVHyderabad
p262
aVKochi
p263
aVMadurai
p264
aVCoimbatore
p265
aVMysore
p266
aVVizag
p267
aVVijayawada
p268
aVTrivandrum
p269
aVKozhikode
p270
aVSouthern Cinema
p271
aVBollywood
p272
aVKollywood
p273
aVTollywood
p274
aVTirupati
p275
aVSabarimala
p276
aVBreaking News
p277
aVSports
p278
aVBusiness
p279
aVOrissa
p280
asa(dp281
g3
S'asklaila - Chennai'
p282
sg5
S'http://www.asklaila.com/article/Chennai/Holistically-speaking-Chennai-City-s-yoga-centres/800/'
p283
sg7
(lp284
S'http://bit.ly/9CwHDT'
p285
asg11
I7
sg12
(lp286
Vwww.asklaila.com
p287
asg16
S'09/20/10 05:17:10'
p288
sg18
S'vanakam_chennai'
p289
sg20
(lp290
I359
asg22
(lp291
S'# 8217'
p292
asg94
S'Holistically speaking: Chennai City&#8217;s yoga centres :  http://bit.ly/9CwHDT'
p293
sg121
(lp294
S'Chennai City&'
p295
aS'centres'
p296
asg101
(lp297
VLifestyle
p298
aVHolistically speaking
p299
aVChennai City
p300
aVs
p301
aVcentres
p302
aVFor
p303
aVcheck
p304
aVyoga centres
p305
aVChennai
p306
asa(dp307
g3
S'Campaign Asia'
p308
sg5
S'http://www.campaignasia.com/Article/232694,maya-appliances-preethi-puts-vizeum-india-in-charge-of-media.aspx?utm_source=twitterfeed&utm_medium=twitter'
p309
sg7
(lp310
S'http://bit.ly/abA4NX'
p311
asg11
I8
sg12
(lp312
Vwww.campaignasia.com
p313
asg16
S'09/20/10 05:54:33'
p314
sg18
S'CampaignAsia'
p315
sg20
(lp316
sg22
(lp317
S'# 8211'
p318
aS'# 8217'
p319
asg94
S"Maya Appliances' Preethi puts Vizeum India in charge of media: CHENNAI &#8211; Aegis Media&#8217;s media agency Vizeum has won... http://bit.ly/abA4NX"
p320
sg121
(lp321
S'Maya Appliances'
p322
aS'Preethi'
p323
aS'Vizeum India'
p324
aS'charge'
p325
aS'media'
p326
aS'CHENNAI'
p327
aS'Aegis Media&'
p328
aS'agency Vizeum'
p329
asg96
(lp330
VMaya Appliances
p331
aVPreethi
p332
aVVizeum India
p333
aVcharge
p334
aVmedia
p335
aVNews
p336
aVMedia
p337
aVCampaign Asia-Pacific
p338
asa(dp339
g3
S'asklaila - Chennai'
p340
sg5
S'http://www.asklaila.com/article/Chennai/It-s-Time-to-Binge-on-Biryani-Best-Biryani-Restaurants-in-Chennai/222024/'
p341
sg7
(lp342
S'http://bit.ly/bCyw6o'
p343
asg11
I32
sg12
(lp344
Vwww.asklaila.com
p345
asg16
S'09/20/10 06:50:36'
p346
sg18
S'vanakam_chennai'
p347
sg20
(lp348
I697
asg94
S"It's Time to Binge on Biryani - Best Biryani Restaurants in Chennai : http://bit.ly/bCyw6o"
p349
sg121
(lp350
S'Time'
p351
aS'Binge'
p352
aS'Biryani'
p353
aS'Best Biryani Restaurants'
p354
aS'Chennai'
p355
asg101
(lp356
VWine
p357
aVDine
p358
aVTime
p359
aVBinge
p360
aVBiryani
p361
aVBest Biryani Restaurants
p362
aVChennai
p363
aVTempted
p364
aVdelicious biryanis
p365
aVCheck
p366
aVrestaurants
p367
aVChennai
p368
aVserve
p369
aVwid
p370
aVChennai
p371
asa(dp372
g3
S'shawn charlotte'
p373
sg5
S'http://www.daijiworld.com/news/news_disp.asp?n_id=86008&n_tit=Chennai%3A+KSP+Meet+Stresses+on+Need+for+Language+Propagation'
p374
sg7
(lp375
S'http://bit.ly/bXOgyM'
p376
asg11
I2
sg12
(lp377
Vwww.daijiworld.com
p378
asg16
S'09/20/10 06:59:36'
p379
sg18
S'shacharlotte'
p380
sg20
(lp381
sg94
S"Chennai: KSP Meet Stresses on Need for Language Propagation: Chennai, Sep 20: The second day's programme of the fi... http://bit.ly/bXOgyM"
p382
sg121
(lp383
S'Chennai'
p384
aS'KSP Meet Stresses'
p385
aS'Need'
p386
aS'Language Propagation'
p387
aS'Chennai'
p388
aS'Sep'
p389
aS'second day'
p390
aS'programme'
p391
aS'fi'
p392
asg96
(lp393
VChennai
p394
aVKSP Meet Stresses
p395
aVNeed
p396
aVLanguage Propagation
p397
asa(dp398
g3
S'THENNARASU'
p399
sg5
S'http://www.deccanchronicle.com/chennai/food-king-set-join-dmdk-452'
p400
sg7
(lp401
S'http://bit.ly/bnnL7Q'
p402
asg11
I7
sg12
(lp403
Vwww.deccanchronicle.com
p404
asg16
S'09/20/10 07:15:14'
p405
sg18
S'thennarasu'
p406
sg20
(lp407
sg22
(lp408
S'# DMDK'
p409
asg94
S'Food King catering services E. Sarathbabu, who contested the 2009 Lok Sabha election set to join #DMDK  http://bit.ly/bnnL7Q'
p410
sg121
(lp411
S'Food King catering services E. Sarathbabu'
p412
aS'Lok Sabha election'
p413
asg96
(lp414
VFood King
p415
aVDMDK | Deccan Chronicle |
p416
asa(dp417
g3
S'Chennai Super Kings'
p418
sg5
S'http://www.chennaisuperkings.com/news/NewsContent.aspx?NewsID=314'
p419
sg7
(lp420
S'http://bit.ly/9mKzv3'
p421
asg11
I93
sg12
(lp422
Vwww.chennaisuperkings.com
p423
asg16
S'09/20/10 07:15:38'
p424
sg18
S'ChennaiIPL'
p425
sg20
(lp426
sg94
S'Port Elizabeth: Following their dramatic defeat to the Victoria Bushrangers on Saturday, the Chennai Super Kings team..\nhttp://bit.ly/9mKzv3'
p427
sg121
(lp428
S'Port Elizabeth'
p429
aS'dramatic defeat'
p430
aS'Victoria Bushrangers'
p431
aS'Saturday'
p432
aS'Chennai Super Kings team'
p433
asg101
(lp434
Vofficial website
p435
aVChennai Super Kings
p436
aVIPL Chennai
p437
aVchennai super kings
p438
aVchennaisuperkings
p439
aVIndian Premier League
p440
aVIPL
p441
aVTwenty20
p442
aVT20
p443
aVTwenty
p444
aVIndia Cricket
p445
aVCricket
p446
aVBCCI
p447
aVMatthew Hayden
p448
aVMuttiah Muralitharan
p449
aVMS Dhoni
p450
aVkolkatta night riders
p451
aVRoyal Challengers
p452
aVMumbai Indians
p453
aVDeccan Chargers
p454
aVDelhi Dare
p455
aVPunjab Kings
p456
aVRajasthan Royals
p457
aVball
p458
aVhighlights
p459
aVgraphics
p460
aVcricket news
p461
aVphotos
p462
aVLive Cricket
p463
aVLive cricket scores
p464
aVCricket Schedule
p465
aVhome
p466
aVcricket
p467
aVChennai Super Kings
p468
aVcomprehensive live coverage
p469
aVIPL Matches
p470
aVBCCI
p471
aVcricket
p472
aVINDIA
p473
aVcricket score
p474
aVstatistics
p475
aVanalysis
p476
aVLatest cricket news
p477
aVvideos
p478
aVinterviews
p479
aVcricket portal
p480
aVlive scorecards
p481
aVanalytical articles
p482
aVcricket information
p483
aVnews
p484
aVmatch reviews
p485
aVTwenty20 world cup
p486
aVipl cricket chennai
p487
aVipl superkings
p488
aVipl super kings
p489
aVipl chennai super kings
p490
aVipl chennai superkings
p491
aVsuperkings
p492
aVt20 cricket
p493
aVMahendra Singh Dhoni
p494
aVmahi
p495
aVfreddie
p496
aVAndrew Flintoff
p497
aVSuresh Raina
p498
aVKrishnamachari Srikkanth
p499
aVStephen Fleming
p500
aVVB Chandrasekar
p501
aVAnand Philar
p502
aVNikita Bastian
p503
aVchennai super kings
p504
aVchennai
p505
aVcricket blog ipl blog
p506
aVchennai super kings
p507
aVcomments
p508
aVcricket chennai
p509
aVchennai cricket team
p510
aVindia cements
p511
aVipl t20 fixtures
p512
aVresults
p513
aVipl schedule
p514
aVipl teams
p515
aVonline tickets
p516
aVfan zone
p517
aVgallery
p518
aVipl cricketers
p519
aVwallpapers
p520
aVscreensavers
p521
asa(dp522
g3
S'SHRM India'
p523
sg5
S'http://www.istdchennai.org/?page_id=1041'
p524
sg7
(lp525
S'http://bit.ly/shrmindia_geny'
p526
asg11
I118
sg12
(lp527
Vwww.istdchennai.org
p528
asg16
S'09/20/10 07:20:02'
p529
sg18
S'SHRMindia'
p530
sg20
(lp531
sg22
(lp532
S'# HR'
p533
aS'# 8216'
p534
aS'# 8217'
p535
aS'# chennai'
p536
aS'# shrmindia'
p537
asg94
S'Hear N. Balachandar (Chief #HR Officer, Strides Pharma) on &#8216;Leading in the Gen Y Era&#8217; in #chennai. http://bit.ly/shrmindia_geny #shrmindia'
p538
sg121
(lp539
S'Hear N. Balachandar'
p540
aS'Chief'
p541
aS'Officer'
p542
aS'Strides Pharma'
p543
aS'Leading'
p544
aS'Gen Y Era&'
p545
asg96
(lp546
VISTD
p547
aVLeading Gen Y Era
p548
asa(dp549
g3
S'NoCountry4YoungWomen'
p550
sg107
(lp551
S'RT'
p552
asg7
(lp553
S'http://bit.ly/aeUiZA'
p554
asg11
I33
sg5
S'http://timesofindia.indiatimes.com/india/Chennai-woman-1st-to-win-best-cadet-award/articleshow/6568769.cms'
p555
sg12
(lp556
Vtimesofindia.indiatimes.com
p557
asg16
S'09/20/10 07:27:40'
p558
sg18
S'NCYW'
p559
sg20
(lp560
I351
aI501
aI722
asg91
(lp561
S'@CatalystInc'
p562
asg94
S'RT @CatalystInc: Congrats to A. Divya, 1st female Indian cadet to recieve &quot;Sword of Honor&quot; in the history of the Indian Army. http://bit.ly/aeUiZA'
p563
sg121
(lp564
S'Congrats'
p565
aS'A. Divya'
p566
aS'Indian cadet'
p567
aS'Sword'
p568
aS'Honor'
p569
aS'history'
p570
aS'Indian Army'
p571
asg101
(lp572
Vsword
p573
aVindian army
p574
aVdivya
p575
asa(dp576
g3
S'LIVE@amith'
p577
sg5
S'http://in.mobile.reuters.com/article/oddlyEnoughNews/idINTRE68D3RH20100914'
p578
sg7
(lp579
S'http://bit.ly/bsj2d5'
p580
asg11
I4
sg12
(lp581
Vin.mobile.reuters.com
p582
asg16
S'09/20/10 08:06:44'
p583
sg18
S'amithkulai'
p584
sg20
(lp585
sg94
S'Apology after tsunami false alarm(i think rajanicant was washing cloths, off chennai coast! http://bit.ly/bsj2d5'
p586
sg121
(lp587
S'Apology'
p588
aS'tsunami false alarm'
p589
aS'rajanicant was'
p590
aS'cloths'
p591
aS'chennai coast'
p592
asg96
(lp593
VApology
p594
aVtsunami false alarm
p595
asa(dp596
g3
S'Matthew Seethor'
p597
sg5
S'http://sports.in.msn.com/formulaone/article.aspx?cp-documentid=4404076'
p598
sg7
(lp599
S'http://bit.ly/bdIJhM'
p600
asg11
I2
sg12
(lp601
Vsports.in.msn.com
p602
asg16
S'09/20/10 08:38:21'
p603
sg18
S'MatthewSeethor'
p604
sg20
(lp605
sg94
S'Lewis Hamilton brings F1 magic to Chennai http://bit.ly/bdIJhM'
p606
sg121
(lp607
S'Lewis Hamilton'
p608
aS'F1 magic'
p609
aS'Chennai'
p610
asg96
(lp611
VLewis Hamilton
p612
aVF1 magic
p613
aVChennai
p614
aVF1
p615
aVFormula
p616
aVSports
p617
aVMSN India
p618
asa(dp619
g3
S'Mahindra Navistar'
p620
sg5
S'http://timesofindia.indiatimes.com/city/chennai/Elevated-Highway-sees-accident-before-opening/articleshow/6588007.cms'
p621
sg7
(lp622
S'http://bit.ly/cGbmDO'
p623
asg11
I3
sg12
(lp624
Vtimesofindia.indiatimes.com
p625
asg16
S'09/20/10 08:48:17'
p626
sg18
S'IndianTrucks'
p627
sg20
(lp628
sg22
(lp629
S'# chennai'
p630
aS'# india'
p631
aS'# mnal'
p632
aS'# roads'
p633
asg94
S'Elevated Highway sees accident before opening http://bit.ly/cGbmDO #chennai #india #mnal #roads'
p634
sg121
(lp635
S'Elevated Highway'
p636
aS'accident'
p637
asg101
(lp638
Vrail-over-bridge
p639
aVchennai
p640
aVproject
p641
asa(dp642
g3
S'Placement India'
p643
sg5
S'http://www.business-standard.com/india/news/hyderabad-chennai-see-rise-in-online-jobs/407600/'
p644
sg7
(lp645
S'http://bit.ly/9WsiMB'
p646
asg11
I4
sg16
S'09/20/10 08:55:48'
p647
sg18
S'PlacementIndia'
p648
sg20
(lp649
sg94
S'Hyderabad, Chennai see rise in online jobs\t\thttp://bit.ly/9WsiMB'
p650
sg121
(lp651
S'Hyderabad'
p652
aS'Chennai'
p653
aS'rise'
p654
aS'online jobs'
p655
asa(dp656
g3
S'Racing Grand Prix'
p657
sg5
S'http://f1chronicles.com/2010/09/19/lewis-hamilton-burns-rubber-at-chennai-to-promote-vodafone/'
p658
sg7
(lp659
S'http://bit.ly/djRdea'
p660
asg11
I5
sg12
(lp661
Vf1chronicles.com
p662
asg16
S'09/20/10 10:33:34'
p663
sg18
S'RacingGrandPrix'
p664
sg20
(lp665
sg94
S'Rediscover Formula One | Lewis Hamilton burns rubber at Chennai to ...: Lewis Hamilton burns rubber at Chennai to ... http://bit.ly/djRdea'
p666
sg121
(lp667
S'Formula'
p668
aS'Lewis Hamilton'
p669
aS'rubber'
p670
aS'Chennai'
p671
aS'Lewis Hamilton'
p672
aS'rubber'
p673
aS'Chennai'
p674
asg96
(lp675
VFormula
p676
aVLewis Hamilton
p677
aVrubber
p678
aVChennai
p679
aVVodafone
p680
asa(dp681
g3
S'asklaila - Chennai'
p682
sg5
S'http://www.asklaila.com/event/Chennai/Film-Screening-My-Dear-Enemy/218480/'
p683
sg7
(lp684
S'http://bit.ly/9Tkdhf'
p685
asg11
I6
sg12
(lp686
Vwww.asklaila.com
p687
asg16
S'09/20/10 11:26:59'
p688
sg18
S'vanakam_chennai'
p689
sg20
(lp690
sg94
S'Screening of the film - My Dear Enemy by Lee : http://bit.ly/9Tkdhf'
p691
sg121
(lp692
S'film'
p693
aS'My Dear Enemy'
p694
aS'Lee'
p695
asg101
(lp696
VWorld Cinema
p697
aVFilm Screening
p698
aVMy Dear Enemy
p699
aVIn Ko Centre
p700
aVChennai
p701
aVEvent
p702
aVIn Ko Centre Event
p703
aVevent
p704
aVKo Centre
p705
asa(dp706
g3
S'Tweeter Store'
p707
sg5
S'http://eminentcolumn.blogspot.com/2010/09/mahesh-bhupathi-ex-wife-shweta.html'
p708
sg7
(lp709
S'http://bit.ly/d1SHNd'
p710
asg11
I3
sg12
(lp711
Veminentcolumn.blogspot.com
p712
asg16
S'09/20/10 11:36:54'
p713
sg18
S'TweetersStore'
p714
sg20
(lp715
sg94
S'Mahesh Bhupathi ex wife Shweta Jaishankar alleges Lara Dutta for ...: Bhupathi who is in Chennai for a Davis Cup p... http://bit.ly/d1SHNd'
p716
sg121
(lp717
S'Mahesh Bhupathi ex wife Shweta Jaishankar alleges Lara Dutta'
p718
aS'Bhupathi'
p719
aS'Chennai'
p720
aS'Davis Cup p'
p721
asg96
(lp722
VMahesh Bhupathi ex wife Shweta Jaishankar alleges Lara Dutta
p723
aVmarriage
p724
aVEminent Column
p725
asa(dp726
g3
S"Lloyd's List"
p727
sg5
S'http://www.lloydslist.com/ll/sector/ports-and-logistics/article345273.ece?utm_source=twitterfeed&utm_medium=twitter'
p728
sg7
(lp729
S'http://bit.ly/cdUfH4'
p730
asg11
I2
sg12
(lp731
Vwww.lloydslist.com
p732
asg16
S'09/20/10 12:10:32'
p733
sg18
S'LloydsList'
p734
sg20
(lp735
sg94
S'PSA may sell stake in Chennai terminal: Reports say port operator mulls selling 26% stake in terminal to an Indian... http://bit.ly/cdUfH4'
p736
sg121
(lp737
S'PSA'
p738
aS'stake'
p739
aS'Chennai'
p740
aS'Reports'
p741
aS'port operator mulls'
p742
aS'% stake'
p743
aS'Indian'
p744
asg101
(lp745
VPorts
p746
aVLogistics
p747
aVAsia
p748
aVIndia
p749
aVNews
p750
aVColum Murphy
p751
aVSubscriber
p752
aVDaily Alert
p753
asa(dp754
g3
S'Indian Cars Bikes'
p755
sg5
S'http://www.indiancarsbikes.in/auto-news/mahindra-world-suv-caught-cam-chennai-19524/?utm_source=twitterfeed&utm_medium=twitter'
p756
sg7
(lp757
S'http://bit.ly/9arwHb'
p758
asg11
I8
sg12
(lp759
Vwww.indiancarsbikes.in
p760
asg16
S'09/20/10 12:20:59'
p761
sg18
S'Indiancarsbikes'
p762
sg20
(lp763
sg94
S'Mahindra world SUV caught on cam in Chennai http://bit.ly/9arwHb'
p764
sg121
(lp765
S'Mahindra world SUV caught'
p766
aS'cam'
p767
aS'Chennai'
p768
asg96
(lp769
VMahindra world SUV caught
p770
aVcam
p771
aVChennai | Indian Cars
p772
aVMotorcycles Blog
p773
asa(dp774
g3
S'Legally India'
p775
sg5
S'http://www.legallyindia.com/201009201321/Mooting/soel-chennai-victorious-over-nuals-kochi-at-surana-intl-minority-rights-and-version-203-mpl-rules'
p776
sg7
(lp777
S'http://bit.ly/9Tqc4r'
p778
asg11
I13
sg12
(lp779
Vwww.legallyindia.com
p780
asg16
S'09/20/10 12:32:02'
p781
sg18
S'LegallyIndia'
p782
sg20
(lp783
sg22
(lp784
S'# 8217'
p785
asg94
S'SOEL Chennai victorious over Nuals Kochi at Surana Int&#8217;l Minority Rights; And version 2.03 MPL rules http://bit.ly/9Tqc4r'
p786
sg121
(lp787
S'SOEL Chennai'
p788
aS'Nuals Kochi'
p789
aS'Surana Int&'
p790
aS'l Minority Rights'
p791
aS'version'
p792
aS'MPL rules'
p793
asg101
(lp794
VMoot Court Competitions
p795
aVMooting
p796
aVMooting Premier League
p797
aVMPL
p798
aVSOEL Chennai
p799
aVNuals Kochi
p800
asa(dp801
g3
S'asklaila - Chennai'
p802
sg5
S'http://www.asklaila.com/article/Chennai/XIX+Commonwealth+Games+2010+Delhi+%E2%80%93+Everything+You+Need+To+Know/226369/?utm_source=twitterfeed&utm_medium=twitter'
p803
sg7
(lp804
S'http://bit.ly/cN7RlH'
p805
asg11
I2
sg12
(lp806
Vwww.asklaila.com
p807
asg16
S'09/20/10 13:20:40'
p808
sg18
S'vanakam_chennai'
p809
sg20
(lp810
sg22
(lp811
S'# 8211'
p812
aS'# chennai'
p813
asg94
S'XIX Commonwealth Games 2010 Delhi &#8211; Everything You Need To Know: Jump onto the bandwagon as India readies ... http://bit.ly/cN7RlH #chennai'
p814
sg121
(lp815
S'XIX Commonwealth Games'
p816
aS'Delhi'
p817
aS'Everything You Need To Know'
p818
aS'Jump'
p819
aS'bandwagon'
p820
aS'India readies'
p821
asg101
(lp822
VLifestyle
p823
aVXIX Commonwealth Games
p824
aVDelhi
p825
aVEverything You Need To Know
p826
aVJump
p827
aVbandwagon
p828
aVIndia readies
p829
aVhost
p830
aVevents
p831
aVChennai
p832
asa(dp833
g3
S'PoojaVsenan'
p834
sg107
(lp835
S'RT'
p836
asg7
(lp837
S'http://bit.ly/cIdilO'
p838
asg11
I2
sg5
S'http://www.trekearth.com/gallery/Asia/India/Northeast/Sikkim/Nathu_La/photo113266.htm'
p839
sg12
(lp840
Vwww.trekearth.com
p841
asg16
S'09/20/10 13:58:39'
p842
sg18
S'Mepaachi'
p843
sg20
(lp844
sg91
(lp845
S'@Sreeniv'
p846
asg94
S'Seems dey went thru Sikkim 2 http://bit.ly/cIdilO RT @Sreeniv If you are married divorce speed says a sign board on Vellore Chennai road'
p847
sg121
(lp848
S'Seems'
p849
aS'went thru Sikkim'
p850
aS'divorce speed'
p851
aS'sign board'
p852
aS'Vellore Chennai road'
p853
asg96
(lp854
Vspeed
p855
aVphoto
p856
aVSikkim
p857
aVNortheast | TrekEarth
p858
asa(dp859
g3
S'Chennai Super Kings'
p860
sg5
S'http://www.abc.net.au/news/stories/2010/09/20/3016999.htm?section=world'
p861
sg7
(lp862
S'http://bit.ly/aLLTac'
p863
asg11
I42
sg12
(lp864
Vwww.abc.net.au
p865
asg16
S'09/20/10 15:05:25'
p866
sg18
S'ChennaiIPL'
p867
sg20
(lp868
sg22
(lp869
S'# csk'
p870
aS'# chennai'
p871
asg94
S'Namma Captain will enjoy this piece of news,  http://bit.ly/aLLTac, he is a brand ambassador for big cats.  #csk #chennai'
p872
sg121
(lp873
S'Namma Captain'
p874
aS'piece'
p875
aS'news'
p876
aS'brand ambassador'
p877
aS'big cats'
p878
asg101
(lp879
Vtigers
p880
aVhimalayas
p881
asa(dp882
g3
S'Venkatesh K'
p883
sg5
S'http://www.yourstory.in/news/4562-chennai-a-vibrant-entrepreneurial-city-tie-unconference-adds-energy-to-the-entrepreneurial-space'
p884
sg7
(lp885
S'http://bit.ly/bTqWdx'
p886
asg11
I69
sg12
(lp887
Vwww.yourstory.in
p888
asg16
S'09/20/10 15:52:38'
p889
sg18
S'krishvenkatesh'
p890
sg20
(lp891
I860
aI870
aI873
aI904
asg94
S'Chennai, a vibrant entrepreneurial city: TiE Unconference adds energy to the entrepreneurial space http://bit.ly/bTqWdx'
p892
sg121
(lp893
S'Chennai'
p894
aS'vibrant entrepreneurial city'
p895
aS'TiE Unconference'
p896
aS'energy'
p897
aS'entrepreneurial space'
p898
asg101
(lp899
VChennai
p900
aVvibrant entrepreneurial city
p901
aVTiE Unconference
p902
aVenergy
p903
aVentrepreneurial space
p904
asa(dp905
g3
S'Dorai Thodla'
p906
sg5
S'http://dorai.wordpress.com/2010/09/20/heard-at-tie-chennai-unconference-panel-discussions/'
p907
sg7
(lp908
S'http://bit.ly/ct4FBx'
p909
asg11
I33
sg12
(lp910
Vdorai.wordpress.com
p911
asg16
S'09/20/10 16:15:12'
p912
sg18
S'dorait'
p913
sg20
(lp914
sg22
(lp915
S'# tieunc'
p916
asg94
S'Heard at TiE Chennai Unconference Panel Discussions http://bit.ly/ct4FBx #tieunc'
p917
sg121
(lp918
S'Heard'
p919
aS'TiE Chennai Unconference Panel Discussions'
p920
asg96
(lp921
VHeard
p922
aVTiE Chennai Unconference Panel Discussions | Dorai
p923
aVLearn Log
p924
asa(dp925
g3
S'Ragu'
p926
sg107
(lp927
S'RT'
p928
asg7
(lp929
S'http://bit.ly/ciSw51'
p930
asg11
I22
sg5
S'http://www.petitiononline.com/Suja2010/petition.html'
p931
sg12
(lp932
Vwww.petitiononline.com
p933
asg16
S'09/20/10 17:50:31'
p934
sg18
S'blossoms41'
p935
sg20
(lp936
sg91
(lp937
S'@ranyamanivannan'
p938
aS'@blaftness'
p939
asg94
S'RT @ranyamanivannan: Something needs to be done about the way Chennai police treat women. This is NOT an isolated incident. Via @blaftness http://bit.ly/ciSw51'
p940
sg121
(lp941
S'Something'
p942
aS'way Chennai police treat women'
p943
aS'NOT'
p944
aS'isolated incident'
p945
aS'Via'
p946
asg101
(lp947
VCondemn
p948
aVMoral Policing
p949
aVChennai Police Commissioner
p950
aVPolice
p951
aVChennai Venkat Narasimham online petition petitiononline.com grassroots marketplace
p952
aVfree speech
p953
aVpolitical activism petitions
p954
asa(dp955
g3
S'The Hindu'
p956
sg5
S'http://www.thehindu.com/news/cities/Chennai/article738810.ece?homepage=true'
p957
sg7
(lp958
S'http://bit.ly/b31h9Y'
p959
asg11
I4
sg12
(lp960
Vwww.thehindu.com
p961
asg16
S'09/20/10 20:58:49'
p962
sg18
S'Thehindu'
p963
sg20
(lp964
sg94
S'Putting haemophilia in right perspective  http://bit.ly/b31h9Y'
p965
sg121
(lp966
S'haemophilia'
p967
aS'right perspective'
p968
asg96
(lp969
VHindu
p970
aVCities
p971
aVChennai
p972
aVPutting haemophilia
p973
aVright perspective
p974
asa(dp975
g3
S'Max Alter'
p976
sg5
S'http://ibnlive.in.com/generalnewsfeed/news/direction-sought-to-tn-govt-on-tackling-swine-flu/338260.html'
p977
sg7
(lp978
S'http://bit.ly/bPlgpP'
p979
asg11
I2
sg12
(lp980
Vibnlive.in.com
p981
asg16
S'09/20/10 20:59:40'
p982
sg18
S'SwineFluBeware'
p983
sg20
(lp984
sg94
S'Direction sought to TN govt on tackling swine flu: PTI | 11:09 PM,Sep 20,2010 Chennai, Sep 20 (PTI) A city advocat... http://bit.ly/bPlgpP'
p985
sg121
(lp986
S'Direction'
p987
aS'TN govt'
p988
aS'tackling swine flu'
p989
aS'PTI'
p990
aS'Chennai'
p991
aS'Sep'
p992
aS'PTI'
p993
aS'city advocat'
p994
asg96
(lp995
VDirection
p996
aVTN govt
p997
aVtackling swine flu
p998
aVIBN Live News
p999
asa.
