(lp0
(dp1
S'name'
p2
S'doniv'
p3
sS'url'
p4
(lp5
S'http://www.storesondoors.com/'
p6
asS'bitly'
p7
I0
sS'pub'
p8
S'09/29/10 04:26:25'
p9
sS'nick'
p10
S'dondoniv'
p11
sS'has_r'
p12
(lp13
sS'msg'
p14
S'home delivery of groceries. start up in chennai - http://www.storesondoors.com/'
p15
sS'phrase'
p16
(lp17
S'home delivery'
p18
aS'groceries'
p19
aS'start'
p20
aS'chennai'
p21
asa(dp22
g2
S'Karnataka Tourism'
p23
sg4
(lp24
S'http://www.facebook.com/album.php'
p25
asg7
I0
sg8
S'09/29/10 04:46:50'
p26
sg10
S'Visit_Karnataka'
p27
sg12
(lp28
sg14
S'Glimpses of Karnataka Tourism Marketing Meet at Chennai\nhttp://www.facebook.com/album.php?aid=34755&amp;id=100000420072314'
p29
sg16
(lp30
S'Glimpses'
p31
aS'Karnataka Tourism Marketing Meet'
p32
aS'Chennai'
p33
aS'aid'
p34
aS'34755&id ='
p35
asa(dp36
g2
S'Hello FM 106.4'
p37
sg4
(lp38
S'http://fb.me/JqeliIUg'
p39
asg7
I0
sg8
S'09/29/10 05:52:57'
p40
sg10
S'HelloFM1064'
p41
sg12
(lp42
sg14
S'Listeners! Fiama Di Wills is running a contest where you can win a chance to meet Deepika Padukone in Chennai.... http://fb.me/JqeliIUg'
p43
sg16
(lp44
S'Listeners'
p45
aS'Fiama Di Wills'
p46
aS'contest'
p47
aS'chance'
p48
aS'Deepika Padukone'
p49
aS'Chennai'
p50
asa(dp51
g2
S'Chain Reaxion'
p52
sg4
(lp53
S'http://hcc.doattend.com/'
p54
asg7
I0
sg8
S'09/29/10 06:08:17'
p55
sg10
S'chainreaxion'
p56
sg12
(lp57
I225
asS'tag'
p58
(lp59
S'# Hercules'
p60
aS'# chennai'
p61
aS'# hyderabad'
p62
aS'# bengaluru'
p63
aS'# bangalore'
p64
aS'# cycling'
p65
aS'# cycles'
p66
asg14
S'#Hercules City Challenge is here! Log onto http://hcc.doattend.com/ for details. #chennai #hyderabad #bengaluru #bangalore #cycling #cycles'
p67
sg16
(lp68
S'City Challenge'
p69
aS'Log'
p70
aS'details'
p71
asa(dp72
g2
S'8service services'
p73
sg4
(lp74
S'http://t.co/WKYtF6f'
p75
asg7
I0
sg8
S'09/29/10 07:17:15'
p76
sg10
S'8service'
p77
sg12
(lp78
sS'dialog'
p79
(lp80
S'@AddThis'
p81
asg14
S'Self Esteem Among Street Children in Chennai City http://t.co/WKYtF6f via @AddThis'
p82
sg16
(lp83
S'Among Street Children'
p84
aS'Chennai City'
p85
asa(dp86
g2
S'Donald Mason Library'
p87
sg4
(lp88
S'http://ff.im/-rhN4P'
p89
asg7
I0
sg8
S'09/29/10 07:53:21'
p90
sg10
S'lstmjournals'
p91
sg12
(lp92
sg14
S'Chennai to Hold Annual International Meeting on Stem Cells http://ff.im/-rhN4P'
p93
sg16
(lp94
S'Chennai'
p95
aS'Hold Annual International Meeting'
p96
aS'Stem Cells'
p97
asa(dp98
g2
S'Aarthi Ramamurthy'
p99
sg4
(lp100
S'http://www.flickr.com/photos/aarthi/5035873738/'
p101
asg7
I0
sg8
S'09/29/10 08:57:30'
p102
sg10
S'aarthir'
p103
sg12
(lp104
sg14
S'I happened to be in Chennai this year for Ganesh Chaturthi [photo]- http://www.flickr.com/photos/aarthi/5035873738/'
p105
sg16
(lp106
S'Chennai'
p107
aS'year'
p108
aS'Ganesh Chaturthi [ photo'
p109
asa(dp110
g2
S''
p111
sg4
(lp112
S'http://www.deccanchronicle.com/chennai/tiger-number-doubles-kalakkad-pictures-show-237'
p113
asg7
I0
sg8
S'09/29/10 09:45:26'
p114
sg10
S'mukesh6582'
p115
sg12
(lp116
sg58
(lp117
S'# 957'
p118
aS'# 9619'
p119
aS'# http://www.deccanchronicle.com/chennai/tiger-number-doubles-kalakkad-pictures-show-237'
p120
asg14
S'9619;&#957;&#9619;ukesh Parashar)#http://www.deccanchronicle.com/chennai/tiger-number-doubles-kalakkad-pictures-show-237 save our tiger'
p121
sg16
(lp122
S'ukesh Parashar'
p123
aS'save'
p124
aS'tiger'
p125
asa(dp126
g2
S"JB's Hockey Feeds"
p127
sg4
(lp128
S'http://dlvr.it/67WBV'
p129
asg7
I0
sg8
S'09/29/10 10:13:18'
p130
sg10
S'JBHF'
p131
sg12
(lp132
sg14
S'FHN No video umpire for hockey competitions: S. Thyagarajan Chennai: With problems at the venues multiplying in the... http://dlvr.it/67WBV'
p133
sg16
(lp134
S'FHN No video umpire'
p135
aS'hockey competitions'
p136
aS'S. Thyagarajan Chennai'
p137
aS'problems'
p138
aS'venues'
p139
asa(dp140
g2
S'Evam'
p141
sS'long-url'
p142
S'http://www.facebook.com/pages/Evams-The-39-steps/131106990272601'
p143
sg4
(lp144
S'http://bit.ly/a5QC9h'
p145
asg7
I6
sg8
S'09/29/10 10:18:57'
p146
sg10
S'evam_entd'
p147
sg12
(lp148
sg14
S"Evam's next, 39 steps, rolls out, starting with Chennai this October. Join the fan page http://bit.ly/a5QC9h, to get the latest dope!"
p149
sg16
(lp150
S'Evam'
p151
aS'steps'
p152
aS'rolls'
p153
aS'Chennai'
p154
aS'October'
p155
aS'Join'
p156
aS'fan page'
p157
aS'latest dope'
p158
asa(dp159
g2
S'SIVAJI TV'
p160
sg4
(lp161
S'http://ping.fm/fKVx3'
p162
asg7
I0
sg8
S'09/29/10 11:20:42'
p163
sg10
S'SIVAJITV'
p164
sg12
(lp165
sg14
S'Chennai HC orders to close Sterlite Industries in Tuticorin, Vaiko happy http://ping.fm/fKVx3'
p166
sg16
(lp167
S'Chennai HC orders'
p168
aS'Sterlite Industries'
p169
aS'Tuticorin'
p170
aS'Vaiko happy'
p171
asa(dp172
g2
S'Vinay Seshadri'
p173
sg4
(lp174
S'http://twitpic.com/2t1d6n'
p175
asg7
I0
sg8
S'09/29/10 11:28:17'
p176
sg10
S'ytvinay'
p177
sg12
(lp178
sg14
S'Chennai Heat 2010 - Ultimate Frisbee Tournament on Oct 8,9 and 10 . Be there!  http://twitpic.com/2t1d6n'
p179
sg16
(lp180
S'Chennai Heat'
p181
aS'Ultimate Frisbee Tournament'
p182
aS'Oct'
p183
aS'Be'
p184
asa(dp185
g2
S'Sharad Kumar'
p186
sg4
(lp187
S'http://twitpic.com/2t1g9e'
p188
asg7
I0
sg8
S'09/29/10 11:40:38'
p189
sg10
S'sharadkr'
p190
sg12
(lp191
sg14
S'http://twitpic.com/2t1g9e - The Other dc in chennai. Currently I am here'
p192
sg16
(lp193
S'Other dc'
p194
aS'chennai'
p195
asa(dp196
g2
S'Cinehour'
p197
sg4
(lp198
S'http://t.co/Fdv8Ues'
p199
asg7
I0
sg8
S'09/29/10 12:42:24'
p200
sg10
S'CineHour'
p201
sg12
(lp202
I632
aI633
aI634
aI635
asg79
(lp203
S'@cinehour'
p204
asg14
S"SPB Charan planning 'Chennai 600028' sequel http://t.co/Fdv8Ues via @cinehour"
p205
sg16
(lp206
S'SPB Charan'
p207
aS"'Chennai"
p208
aS'sequel'
p209
asa(dp210
g2
S'Ravi Chandran'
p211
sg4
(lp212
S'http://j.mp/chdOj3'
p213
asg7
I0
sg8
S'09/29/10 14:13:22'
p214
sg10
S'ravichantw'
p215
sg12
(lp216
sg58
(lp217
S'# fb'
p218
aS'# b'
p219
asg14
S'Chennai metro project cost likely to rise 23% http://j.mp/chdOj3 [ravichan] #fb FII will go on these and eventually to Kalmadi like #b****s'
p220
sg16
(lp221
S'Chennai metro project cost'
p222
aS'ravichan'
p223
aS'FII'
p224
aS'Kalmadi'
p225
asa(dp226
g2
S'yathirigan'
p227
sg4
(lp228
S'http://tinypaste.com/f1c8a1'
p229
asg7
I0
sg8
S'09/29/10 14:31:02'
p230
sg10
S'yathirigan'
p231
sg12
(lp232
sg58
(lp233
S'# Chennai'
p234
aS'# Aapice'
p235
asg14
S'On account of the Ayodhya verdict, chances of curfew in and around the city is high tomorrow.. http://tinypaste.com/f1c8a1 #Chennai #Aapice'
p236
sg16
(lp237
S'account'
p238
aS'Ayodhya verdict'
p239
aS'chances'
p240
aS'city'
p241
aS'high tomorrow'
p242
asa(dp243
g2
S'Deepika Padukone FC'
p244
sg4
(lp245
S'http://www.youtube.com/watch'
p246
asg7
I0
sg8
S'09/29/10 14:39:01'
p247
sg10
S'DeepikaPFC'
p248
sg12
(lp249
sg14
S'Deepika Padukone in MOP Vaishnav College, Chennai[VIDEO]\nhttp://www.youtube.com/watch?v=mLJCArVn-L0'
p250
sg16
(lp251
S'Deepika Padukone'
p252
aS'MOP Vaishnav College'
p253
aS'Chennai [ VIDEO ]'
p254
asa(dp255
g2
S'SHARMANs Cab Company'
p256
sg4
(lp257
S'http://www.agnisharman.com/'
p258
asg7
I0
sg8
S'09/29/10 16:12:55'
p259
sg10
S'7427626'
p260
sg12
(lp261
I771
asg14
S'2nd edition of the India International Regatta will be conducted off Chennai harbour (03 -10 October 2010) http://www.agnisharman.com/?p=619'
p262
sg16
(lp263
S'edition'
p264
aS'India International Regatta'
p265
aS'Chennai'
p266
aS'October'
p267
asa(dp268
g2
S'nk9i'
p269
sg4
(lp270
S'http://dlvr.it/68V7m'
p271
asg7
I0
sg8
S'09/29/10 16:40:00'
p272
sg10
S'nk9a'
p273
sg12
(lp274
sg14
S'Cilic, Berdych to play in Chennai Open http://dlvr.it/68V7m'
p275
sg16
(lp276
S'Cilic'
p277
aS'Berdych'
p278
aS'Chennai Open'
p279
asa(dp280
g2
S'mlehane'
p281
sg4
(lp282
S'http://www.weather.com/weather/tenday/INXX0202'
p283
asg7
I0
sg8
S'09/29/10 16:55:15'
p284
sg10
S'mlehane'
p285
sg12
(lp286
sg14
S'Looks like I will be packing my raincoat for Chennai trip -  http://www.weather.com/weather/tenday/INXX0202'
p287
sg16
(lp288
S'Looks'
p289
aS'raincoat'
p290
aS'Chennai trip'
p291
asa(dp292
g2
S'Alexandra Kathryn'
p293
sg4
(lp294
S'http://www.menupages.com/restaurants/chennai-garden/'
p295
asg7
I0
sg8
S'09/29/10 17:27:57'
p296
sg10
S'therobothand'
p297
sg12
(lp298
sg79
(lp299
S'@on_reserve'
p300
asg14
S"@on_reserve Chennai Garden, it's on east 27th http://www.menupages.com/restaurants/chennai-garden/ SO GOOD."
p301
sg16
(lp302
S'Chennai Garden'
p303
aS'SO GOOD'
p304
asa.