((lp0
(dp1
S'City'
p2
S'Bangalore'
p3
sS'Name'
p4
S'Alok'
p5
sS'Gender'
p6
S'Male'
p7
sS'Landmark'
p8
S'Shiva Theater'
p9
sS'Location'
p10
S'Koramangala'
p11
sS'Date'
p12
S'Feb 23, 2010'
p13
sS'Type'
p14
S'Sharing Basis'
p15
sS'Rent'
p16
S'15,000'
p17
sa(dp18
S'City'
p19
S'Bangalore'
p20
sS'Name'
p21
S'Manjunaath'
p22
sS'Gender'
p23
S'Male'
p24
sS'Location'
p25
S'Kumaraswamy Layout'
p26
sg12
S'Feb 19, 2010'
p27
sS'Type'
p28
S'Single occupancy'
p29
sS'Rent'
p30
S'4,000'
p31
sa(dp32
S'City'
p33
S'Bangalore'
p34
sS'Name'
p35
S'Alok'
p36
sS'url'
p37
S'http://classifieds.sulekha.com/bangalore/roommates/roommates/clad.aspx?cid=4529620'
p38
sS'Gender'
p39
S'Male'
p40
sS'Landmark'
p41
S'Shiva Theater'
p42
sS'Location'
p43
S'Koramangala'
p44
sg12
S'Feb 23, 2010'
p45
sS'Type'
p46
S'Sharing Basis'
p47
sS'Rent'
p48
S'15,000'
p49
sa(dp50
S'City'
p51
S'Bangalore'
p52
sS'Name'
p53
S'Manjunaath'
p54
sg37
S'http://classifieds.sulekha.com/bangalore/roommates/roommates/clad.aspx?cid=4507019'
p55
sS'Gender'
p56
S'Male'
p57
sS'Location'
p58
S'Kumaraswamy Layout'
p59
sg12
S'Feb 19, 2010'
p60
sS'Type'
p61
S'Single occupancy'
p62
sS'Rent'
p63
S'4,000'
p64
sa(dp65
S'City'
p66
S'Bangalore'
p67
sS'Name'
p68
S'Ramanans'
p69
sg37
S'http://classifieds.sulekha.com/bangalore/roommates/roommates/clad.aspx?cid=4511025'
p70
sS'Gender'
p71
S'Male'
p72
sS'Landmark'
p73
S'Baghmane Tech Park Back Gate'
p74
sS'Location'
p75
S'C V Raman Nagar'
p76
sg12
S'Feb 18, 2010'
p77
sS'Type'
p78
S'Sharing basis'
p79
sS'Rent'
p80
S'3,500'
p81
sa(dp82
S'City'
p83
S'Bangalore'
p84
sS'Name'
p85
S'Swati'
p86
sg37
S'http://classifieds.sulekha.com/bangalore/roommates/roommates/clad.aspx?cid=4497361'
p87
sS'Gender'
p88
S'Female'
p89
sS'Landmark'
p90
S'Baldwin Boys School'
p91
sS'Location'
p92
S'Richmond Town'
p93
sg12
S'Feb 15, 2010'
p94
sS'Type'
p95
S'Sharing Basis'
p96
sS'Rent'
p97
S'4,500'
p98
sa(dp99
S'City'
p100
S'Bangalore'
p101
sS'Name'
p102
S'Short Term Stay For Female'
p103
sg37
S'http://classifieds.sulekha.com/bangalore/roommates/roommates/clad.aspx?cid=4484376'
p104
sS'Gender'
p105
S'Female'
p106
sS'Location'
p107
S'Marathahalli'
p108
sg12
S'Feb 11, 2010'
p109
sS'Type'
p110
S'Single occupancy'
p111
sS'Rent'
p112
S'3,000'
p113
sa(dp114
S'City'
p115
S'Bangalore'
p116
sS'Name'
p117
S'Rijurich'
p118
sg37
S'http://classifieds.sulekha.com/bangalore/roommates/roommates/clad.aspx?cid=4474554'
p119
sS'Gender'
p120
S'Female'
p121
sS'Location'
p122
S'HBR Layout'
p123
sg12
S'Feb 09, 2010'
p124
sS'Type'
p125
S'Single occupancy'
p126
sS'Rent'
p127
S'4,500'
p128
sa(dp129
S'City'
p130
S'Bangalore'
p131
sS'Name'
p132
S'Kallungal'
p133
sg37
S'http://classifieds.sulekha.com/bangalore/roommates/roommates/clad.aspx?cid=4442466'
p134
sS'Gender'
p135
S'Female'
p136
sS'Location'
p137
S'Indira Nagar'
p138
sg12
S'Feb 08, 2010'
p139
sS'Type'
p140
S'Single occupancy'
p141
sS'Rent'
p142
S'3,100'
p143
sa(dp144
S'City'
p145
S'Bangalore'
p146
sS'Name'
p147
S'Rhea'
p148
sg37
S'http://classifieds.sulekha.com/bangalore/roommates/roommates/clad.aspx?cid=4468894'
p149
sS'Gender'
p150
S'Female'
p151
sS'Landmark'
p152
S'MG road'
p153
sS'Location'
p154
S'Richmond Road'
p155
sg12
S'Feb 07, 2010'
p156
sS'Type'
p157
S'Sharing Basis'
p158
sS'Rent'
p159
S'6,000'
p160
sa(dp161
S'City'
p162
S'Bangalore'
p163
sS'Name'
p164
S'Prachiagar'
p165
sg37
S'http://classifieds.sulekha.com/bangalore/roommates/roommates/clad.aspx?cid=4452526'
p166
sS'Gender'
p167
S'Female'
p168
sS'Location'
p169
S'Koramangala'
p170
sg12
S'Feb 06, 2010'
p171
sS'Type'
p172
S'Sharing Basis'
p173
sS'Rent'
p174
S'4,300'
p175
sa(dp176
S'City'
p177
S'Bangalore'
p178
sS'Name'
p179
S'Anand'
p180
sg37
S'http://classifieds.sulekha.com/bangalore/roommates/roommates/clad.aspx?cid=4466484'
p181
sS'Gender'
p182
S'Male'
p183
sS'Landmark'
p184
S'Near end of Benson Cross Road'
p185
sS'Location'
p186
S'Benson Town'
p187
sg12
S'Feb 06, 2010'
p188
sS'Type'
p189
S'Single occupancy'
p190
sS'Rent'
p191
S'5,600'
p192
sa(dp193
S'City'
p194
S'Bangalore'
p195
sS'Name'
p196
S'Shailly'
p197
sg37
S'http://classifieds.sulekha.com/bangalore/roommates/roommates/clad.aspx?cid=4408764'
p198
sS'Gender'
p199
S'Female'
p200
sS'Landmark'
p201
S'Wipro park Koramangala'
p202
sS'Location'
p203
S'Koramangala'
p204
sg12
S'Feb 04, 2010'
p205
sS'Type'
p206
S'Sharing basis'
p207
sS'Rent'
p208
S'3,800'
p209
sa(dp210
S'City'
p211
S'Bangalore'
p212
sS'Name'
p213
S'Manshi'
p214
sg37
S'http://classifieds.sulekha.com/bangalore/roommates/roommates/clad.aspx?cid=4446041'
p215
sS'Gender'
p216
S'Female'
p217
sS'Landmark'
p218
S'Diamond District'
p219
sS'Location'
p220
S'Airport Road'
p221
sg12
S'Jan 31, 2010'
p222
sS'Type'
p223
S'Single occupancy'
p224
sS'Rent'
p225
S'5,000'
p226
sa(dp227
S'City'
p228
S'Bangalore'
p229
sS'Name'
p230
S'Sindhu'
p231
sg37
S'http://classifieds.sulekha.com/bangalore/roommates/roommates/clad.aspx?cid=4401056'
p232
sS'Gender'
p233
S'Female'
p234
sS'Location'
p235
S'Shanti Nagar'
p236
sg12
S'Jan 30, 2010'
p237
sS'Type'
p238
S'Sharing Basis'
p239
sS'Rent'
p240
S'14,000'
p241
sa(dp242
S'City'
p243
S'Bangalore'
p244
sS'Name'
p245
S'Sathya'
p246
sg37
S'http://classifieds.sulekha.com/bangalore/roommates/roommates/clad.aspx?cid=4422889'
p247
sS'Gender'
p248
S'Male'
p249
sS'Location'
p250
S'H.S.R 1st Sector'
p251
sg12
S'Jan 25, 2010'
p252
sS'Type'
p253
S'Sharing Basis'
p254
sS'Rent'
p255
S'2,500'
p256
sa(dp257
S'City'
p258
S'Bangalore'
p259
sS'Name'
p260
S'Sathya'
p261
sg37
S'http://classifieds.sulekha.com/bangalore/roommates/roommates/clad.aspx?cid=4422867'
p262
sS'Gender'
p263
S'Male'
p264
sS'Landmark'
p265
S'Domlur Flyover Indiranagar'
p266
sS'Location'
p267
S'Domlur'
p268
sg12
S'Jan 25, 2010'
p269
sS'Type'
p270
S'Sharing Basis'
p271
sS'Rent'
p272
S'2,500'
p273
sa(dp274
S'City'
p275
S'Bangalore'
p276
sS'Name'
p277
S'Aparna'
p278
sg37
S'http://classifieds.sulekha.com/bangalore/roommates/roommates/clad.aspx?cid=4417451'
p279
sS'Gender'
p280
S'Female'
p281
sS'Landmark'
p282
S'pai layout first main'
p283
sS'Location'
p284
S'C V Raman Nagar'
p285
sg12
S'Jan 23, 2010'
p286
sS'Type'
p287
S'Sharing basis'
p288
sS'Rent'
p289
S'2,750'
p290
sa(dp291
S'City'
p292
S'Bangalore'
p293
sS'Name'
p294
S'Prasenjitb'
p295
sg37
S'http://classifieds.sulekha.com/bangalore/roommates/roommates/clad.aspx?cid=4407612'
p296
sS'Gender'
p297
S'Male'
p298
sS'Landmark'
p299
S'South end circle'
p300
sS'Location'
p301
S'Jayanagar'
p302
sg12
S'Jan 20, 2010'
p303
sS'Type'
p304
S'Sharing basis'
p305
sS'Rent'
p306
S'4,500'
p307
sa(dp308
S'City'
p309
S'Bangalore'
p310
sS'Name'
p311
S'Neha'
p312
sg37
S'http://classifieds.sulekha.com/bangalore/roommates/roommates/clad.aspx?cid=4405848'
p313
sS'Gender'
p314
S'Female'
p315
sS'Landmark'
p316
S'Total Mall'
p317
sS'Location'
p318
S'Murugeshapalya'
p319
sg12
S'Jan 20, 2010'
p320
sS'Type'
p321
S'Sharing Basis'
p322
sS'Rent'
p323
S'3,500'
p324
sa(dp325
S'City'
p326
S'Bangalore'
p327
sS'Name'
p328
S'Sneha'
p329
sg37
S'http://classifieds.sulekha.com/bangalore/roommates/roommates/clad.aspx?cid=4394765'
p330
sS'Gender'
p331
S'Female'
p332
sS'Landmark'
p333
S'Manipal Hospital, Leela Palace'
p334
sS'Location'
p335
S'Airport Road'
p336
sg12
S'Jan 17, 2010'
p337
sS'Type'
p338
S'Single occupancy'
p339
sS'Rent'
p340
S'8,300'
p341
sa(dp342
S'City'
p343
S'Bangalore'
p344
sS'Name'
p345
S'Sayak Dutta'
p346
sg37
S'http://classifieds.sulekha.com/bangalore/roommates/roommates/clad.aspx?cid=4394839'
p347
sS'Gender'
p348
S'Male'
p349
sS'Landmark'
p350
S'S T Bed Layout'
p351
sS'Location'
p352
S'Koramangala 4th Block'
p353
sg12
S'Jan 17, 2010'
p354
sS'Type'
p355
S'Sharing basis'
p356
sS'Rent'
p357
S'2,000'
p358
sa(dp359
S'City'
p360
S'Bangalore'
p361
sS'Name'
p362
S'Puneet'
p363
sg37
S'http://classifieds.sulekha.com/bangalore/roommates/roommates/clad.aspx?cid=4391075'
p364
sS'Gender'
p365
S'Male'
p366
sS'Location'
p367
S'Kaggadasapura'
p368
sg12
S'Jan 15, 2010'
p369
sS'Type'
p370
S'Sharing basis'
p371
sS'Rent'
p372
S'4,500'
p373
sa(dp374
S'City'
p375
S'Bangalore'
p376
sS'Name'
p377
S'Vinay Shetty'
p378
sg37
S'http://classifieds.sulekha.com/bangalore/roommates/roommates/clad.aspx?cid=4357697'
p379
sS'Gender'
p380
S'Female'
p381
sS'Landmark'
p382
S'Near Nirmala Store Bus Stop.'
p383
sS'Location'
p384
S'Hanumantha Nagar'
p385
sg12
S'Jan 13, 2010'
p386
sS'Type'
p387
S'Single occupancy'
p388
sS'Rent'
p389
S'2,500'
p390
sa(dp391
S'City'
p392
S'Bangalore'
p393
sS'Name'
p394
S'Agrash'
p395
sg37
S'http://classifieds.sulekha.com/bangalore/roommates/roommates/clad.aspx?cid=4543801'
p396
sS'Gender'
p397
S'Male'
p398
sS'Landmark'
p399
S'Next to Aricent Technologies'
p400
sS'Location'
p401
S'Marathahalli'
p402
sg12
S'Feb 27, 2010'
p403
sS'Type'
p404
S'Single occupancy'
p405
sS'Rent'
p406
S'4,000'
p407
sa(dp408
S'City'
p409
S'Bangalore'
p410
sS'Name'
p411
S'Neeta'
p412
sg37
S'http://classifieds.sulekha.com/bangalore/roommates/roommates/clad.aspx?cid=4541414'
p413
sS'Gender'
p414
S'Female'
p415
sS'Rent'
p416
S'4,500'
p417
sS'Landmark'
p418
S'Ganga Bakery'
p419
sS'Location'
p420
S'R.T.Nagar'
p421
sg12
S'Feb 26, 2010'
p422
sS'Type'
p423
S'Sharing Basis'
p424
sS'Description'
p425
S'Available,Full furnished with amenities. Only for females.  '
p426
sa(dp427
S'City'
p428
S'Bangalore'
p429
sS'Name'
p430
S'Amit'
p431
sg37
S'http://classifieds.sulekha.com/bangalore/roommates/roommates/clad.aspx?cid=4540657'
p432
sS'Gender'
p433
S'Male'
p434
sS'Location'
p435
S'Frazer Town'
p436
sg12
S'Feb 26, 2010'
p437
sS'Type'
p438
S'Single occupancy'
p439
sS'Rent'
p440
S'14,000'
p441
sa(dp442
S'City'
p443
S'Bangalore'
p444
sS'Name'
p445
S'Monu Rekhi'
p446
sg37
S'http://classifieds.sulekha.com/bangalore/roommates/roommates/clad.aspx?cid=4540654'
p447
sS'Gender'
p448
S'Female'
p449
sS'Landmark'
p450
S'Behind Lifestyle Richmond Road'
p451
sS'Location'
p452
S'Victoria Layout'
p453
sg12
S'Feb 26, 2010'
p454
sS'Type'
p455
S'Sharing Basis'
p456
sS'Rent'
p457
S'4,000'
p458
sa(dp459
S'City'
p460
S'Bangalore'
p461
sS'Name'
p462
S'Anis'
p463
sg37
S'http://classifieds.sulekha.com/bangalore/roommates/roommates/clad.aspx?cid=4540650'
p464
sS'Gender'
p465
S'Female'
p466
sS'Landmark'
p467
S'Bishop Cotton Girls'
p468
sS'Location'
p469
S'St.Marks Road'
p470
sg12
S'Feb 26, 2010'
p471
sS'Type'
p472
S'Sharing Basis'
p473
sS'Rent'
p474
S'8,000'
p475
sa(dp476
S'City'
p477
S'Bangalore'
p478
sS'Name'
p479
S'Meenakshi'
p480
sg37
S'http://classifieds.sulekha.com/bangalore/roommates/roommates/clad.aspx?cid=4539907'
p481
sS'Gender'
p482
S'Female'
p483
sS'Location'
p484
S'Koramangala'
p485
sg12
S'Feb 26, 2010'
p486
sS'Type'
p487
S'Sharing Basis'
p488
sS'Rent'
p489
S'11,000'
p490
sa(dp491
S'City'
p492
S'Bangalore'
p493
sS'Name'
p494
S'Shilpa John'
p495
sg37
S'http://classifieds.sulekha.com/bangalore/roommates/roommates/clad.aspx?cid=4539317'
p496
sS'Gender'
p497
S'Female'
p498
sS'Location'
p499
S'Koramangala 1st Block'
p500
sg12
S'Feb 26, 2010'
p501
sS'Type'
p502
S'Single occupancy'
p503
sS'Rent'
p504
S'5,000'
p505
sa(dp506
S'City'
p507
S'Bangalore'
p508
sS'Name'
p509
S'Nitiny'
p510
sg37
S'http://classifieds.sulekha.com/bangalore/roommates/roommates/clad.aspx?cid=4538420'
p511
sS'Gender'
p512
S'Male'
p513
sS'Landmark'
p514
S'Krishna Reddy Layout'
p515
sS'Location'
p516
S'AECS Layout'
p517
sg12
S'Feb 25, 2010'
p518
sS'Type'
p519
S'Sharing Basis'
p520
sS'Rent'
p521
S'2,750'
p522
sa(dp523
S'City'
p524
S'Bangalore'
p525
sS'Name'
p526
S'Bhanu'
p527
sg37
S'http://classifieds.sulekha.com/bangalore/roommates/roommates/clad.aspx?cid=4538306'
p528
sS'Gender'
p529
S'Female'
p530
sS'Landmark'
p531
S'Near Rajeshwari theatre'
p532
sS'Location'
p533
S'Murugeshapalya'
p534
sg12
S'Feb 25, 2010'
p535
sS'Type'
p536
S'Sharing Basis'
p537
sS'Rent'
p538
S'3,000'
p539
sa(dp540
S'City'
p541
S'Bangalore'
p542
sS'Name'
p543
S'Ramanathan'
p544
sg37
S'http://classifieds.sulekha.com/bangalore/roommates/roommates/clad.aspx?cid=4538293'
p545
sS'Gender'
p546
S'Male'
p547
sS'Rent'
p548
S'6,250'
p549
sS'Landmark'
p550
S'Leela Palace'
p551
sS'Location'
p552
S'Kodihalli'
p553
sg12
S'Feb 25, 2010'
p554
sS'Type'
p555
S'Single occupancy'
p556
sg425
S'Its a beautiful 2 BHK apartment with ward-robe, separate bathroom, internet, lcd tv, washing machine, kitchen/gas with a rent of Rs 6250.'
p557
sa(dp558
S'City'
p559
S'Bangalore'
p560
sS'Name'
p561
S'Sumvipul'
p562
sg37
S'http://classifieds.sulekha.com/bangalore/roommates/roommates/clad.aspx?cid=4537238'
p563
sS'Gender'
p564
S'Male'
p565
sS'Rent'
p566
S'4,500'
p567
sS'Landmark'
p568
S'palm medows'
p569
sS'Location'
p570
S'Whitefield'
p571
sg12
S'Feb 25, 2010'
p572
sS'Type'
p573
S'Single occupancy'
p574
sg425
S'I am a 25 yr working professional. I have a bedroom empty in a 3BHK flat in an apartment. Security, swiming pool, club house, parking. 10k advance security deposit. 4.5k rent.'
p575
sa(dp576
S'City'
p577
S'Bangalore'
p578
sS'Name'
p579
S'Jayaryan'
p580
sg37
S'http://classifieds.sulekha.com/bangalore/roommates/roommates/clad.aspx?cid=4536631'
p581
sS'Gender'
p582
S'Female'
p583
sS'Rent'
p584
S'3,000'
p585
sS'Landmark'
p586
S'Oracal Tec Park'
p587
sS'Location'
p588
S'Koramangala'
p589
sg12
S'Feb 25, 2010'
p590
sS'Type'
p591
S'Sharing Basis'
p592
sg425
S'Hi, i have a 2 BHK 5 min from Forum and 2 min frm oracal tec park and Christ Collage...Rent 3000 Rs and Deposit Rs 5000..cubord , Hot water  ava 24hr and a parking space.. '
p593
sa(dp594
S'City'
p595
S'Bangalore'
p596
sS'Name'
p597
S'Sindhu'
p598
sg37
S'http://classifieds.sulekha.com/bangalore/roommates/roommates/clad.aspx?cid=4534911'
p599
sS'Gender'
p600
S'Female'
p601
sS'Location'
p602
S'Whitefield'
p603
sg12
S'Feb 25, 2010'
p604
sS'Type'
p605
S'Sharing Basis'
p606
sS'Rent'
p607
S'5,000'
p608
sa(dp609
S'City'
p610
S'Bangalore'
p611
sS'Name'
p612
S'Shweta'
p613
sg37
S'http://classifieds.sulekha.com/bangalore/roommates/roommates/clad.aspx?cid=4534908'
p614
sS'Gender'
p615
S'Female'
p616
sS'Location'
p617
S'Kodihalli'
p618
sg12
S'Feb 25, 2010'
p619
sS'Type'
p620
S'Sharing Basis'
p621
sS'Rent'
p622
S'4,000'
p623
sa(dp624
S'City'
p625
S'Bangalore'
p626
sS'Name'
p627
S'Reshmah'
p628
sg37
S'http://classifieds.sulekha.com/bangalore/roommates/roommates/clad.aspx?cid=4536161'
p629
sS'Gender'
p630
S'Female'
p631
sS'Location'
p632
S'Others'
p633
sg12
S'Feb 25, 2010'
p634
sS'Type'
p635
S'Single occupancy'
p636
sS'Rent'
p637
S'7,100'
p638
sa(dp639
S'City'
p640
S'Bangalore'
p641
sS'Name'
p642
S'Heavensight'
p643
sg37
S'http://classifieds.sulekha.com/bangalore/roommates/roommates/clad.aspx?cid=4537309'
p644
sS'Gender'
p645
S'Female'
p646
sS'Landmark'
p647
S'uPUPI gARDEN'
p648
sS'Location'
p649
S'BTM 2nd Stage'
p650
sg12
S'Feb 25, 2010'
p651
sS'Type'
p652
S'Sharing basis'
p653
sS'Rent'
p654
S'3,000'
p655
sa(dp656
S'City'
p657
S'Bangalore'
p658
sS'Name'
p659
S'S A N D E P S H A R M A'
p660
sg37
S'http://classifieds.sulekha.com/bangalore/roommates/roommates/clad.aspx?cid=4534088'
p661
sS'Gender'
p662
S'Male'
p663
sS'Rent'
p664
S'2,500'
p665
sS'Location'
p666
S'Domlur'
p667
sg12
S'Feb 24, 2010'
p668
sS'Type'
p669
S'Single occupancy'
p670
sg425
S'Need a roomate to share a 2bhk appartment all facilities are available.'
p671
sa(dp672
S'City'
p673
S'Bangalore'
p674
sS'Name'
p675
S'Vinay'
p676
sg37
S'http://classifieds.sulekha.com/bangalore/roommates/roommates/clad.aspx?cid=4532644'
p677
sS'Gender'
p678
S'Female'
p679
sS'Location'
p680
S'BTM 2nd Stage'
p681
sg12
S'Feb 24, 2010'
p682
sS'Type'
p683
S'Sharing basis'
p684
sS'Rent'
p685
S'3,500'
p686
sa(dp687
S'City'
p688
S'Bangalore'
p689
sS'Name'
p690
S'Kishore'
p691
sg37
S'http://classifieds.sulekha.com/bangalore/roommates/roommates/clad.aspx?cid=4530515'
p692
sS'Gender'
p693
S'Male'
p694
sS'Landmark'
p695
S'near Marathahalli bridge'
p696
sS'Location'
p697
S'Marathahalli'
p698
sg12
S'Feb 24, 2010'
p699
sS'Type'
p700
S'Sharing basis'
p701
sS'Rent'
p702
S'3,000'
p703
sa(dp704
S'City'
p705
S'Bangalore'
p706
sS'Name'
p707
S'Promiti'
p708
sg37
S'http://classifieds.sulekha.com/bangalore/roommates/roommates/clad.aspx?cid=4529920'
p709
sS'Gender'
p710
S'Female'
p711
sS'Landmark'
p712
S'forum mall'
p713
sS'Location'
p714
S'Koramangala'
p715
sg12
S'Feb 23, 2010'
p716
sS'Type'
p717
S'Single occupancy'
p718
sS'Rent'
p719
S'8,000'
p720
sa(dp721
S'City'
p722
S'Bangalore'
p723
sS'Name'
p724
S'Sonalgandhi'
p725
sg37
S'http://classifieds.sulekha.com/bangalore/roommates/roommates/clad.aspx?cid=4528193'
p726
sS'Gender'
p727
S'Female'
p728
sS'Landmark'
p729
S'jayanagar'
p730
sS'Location'
p731
S'Jayanagar'
p732
sg12
S'Feb 23, 2010'
p733
sS'Type'
p734
S'Sharing Basis'
p735
sS'Rent'
p736
S'3,000'
p737
sa(dp738
S'City'
p739
S'Bangalore'
p740
sS'Name'
p741
S'Koramanglaneedfemaleflatmate'
p742
sg37
S'http://classifieds.sulekha.com/bangalore/roommates/roommates/clad.aspx?cid=4528048'
p743
sS'Gender'
p744
S'Female'
p745
sS'Location'
p746
S'Koramangala'
p747
sg12
S'Feb 23, 2010'
p748
sS'Type'
p749
S'Single occupancy'
p750
sS'Rent'
p751
S'5,000'
p752
sa(dp753
S'City'
p754
S'Bangalore'
p755
sS'Name'
p756
S'Shefali'
p757
sg37
S'http://classifieds.sulekha.com/bangalore/roommates/roommates/clad.aspx?cid=4527703'
p758
sS'Gender'
p759
S'Female'
p760
sS'Rent'
p761
S'6,000'
p762
sS'Location'
p763
S'Koramangala'
p764
sg12
S'Feb 23, 2010'
p765
sS'Type'
p766
S'Sharing Basis'
p767
sg425
S'Fully furnished 3 bhk apartment with 1 single occupancyINR 5900 and 1 room on sharing basisINR4350 available in NGV. '
p768
sa(dp769
S'City'
p770
S'Bangalore'
p771
sS'Name'
p772
S'Sheena'
p773
sg37
S'http://classifieds.sulekha.com/bangalore/roommates/roommates/clad.aspx?cid=4527252'
p774
sS'Gender'
p775
S'Female'
p776
sS'Rent'
p777
S'3,000'
p778
sS'Location'
p779
S'BTM 2nd Stage'
p780
sg12
S'Feb 23, 2010'
p781
sS'Type'
p782
S'Sharing Basis'
p783
sg425
S' Looking for a female room mate to stay in 1bhk flat near Mico layout police station btm 2nd stage..300meter from Udupi garden.Monthly rent is Rs.2500- and no down payment.Interested person can stay from March onwards. '
p784
sa(dp785
S'City'
p786
S'Bangalore'
p787
sS'Name'
p788
S'Vasantarkachari'
p789
sg37
S'http://classifieds.sulekha.com/bangalore/roommates/roommates/clad.aspx?cid=4526666'
p790
sS'Gender'
p791
S'Male'
p792
sS'Landmark'
p793
S'Holy Family Church'
p794
sS'Location'
p795
S'Ramamurthy Nagar'
p796
sg12
S'Feb 23, 2010'
p797
sS'Type'
p798
S'Sharing Basis'
p799
sS'Rent'
p800
S'5,000'
p801
sa(dp802
S'City'
p803
S'Bangalore'
p804
sS'Name'
p805
S'Deeksha Sharma'
p806
sg37
S'http://classifieds.sulekha.com/bangalore/roommates/roommates/clad.aspx?cid=4528226'
p807
sS'Gender'
p808
S'Female'
p809
sS'Location'
p810
S'BTM 2nd Stage'
p811
sg12
S'Feb 23, 2010'
p812
sS'Type'
p813
S'Sharing basis'
p814
sS'Rent'
p815
S'6,000'
p816
sa(dp817
S'City'
p818
S'Bangalore'
p819
sS'Name'
p820
S'R.Prasannavenkatesh'
p821
sg37
S'http://classifieds.sulekha.com/bangalore/roommates/roommates/clad.aspx?cid=4524113'
p822
sS'Gender'
p823
S'Male'
p824
sS'Landmark'
p825
S'Salarpuria Soft Zone'
p826
sS'Location'
p827
S'Belandur'
p828
sg12
S'Feb 22, 2010'
p829
sS'Type'
p830
S'Sharing Basis'
p831
sS'Rent'
p832
S'4,750'
p833
sa(dp834
S'City'
p835
S'Bangalore'
p836
sS'Name'
p837
S'Vikrantns'
p838
sg37
S'http://classifieds.sulekha.com/bangalore/roommates/roommates/clad.aspx?cid=4524023'
p839
sS'Gender'
p840
S'Male'
p841
sS'Landmark'
p842
S'Shriram Samruddhi Apts.'
p843
sS'Location'
p844
S'Kundalahalli'
p845
sg12
S'Feb 22, 2010'
p846
sS'Type'
p847
S'Sharing Basis'
p848
sS'Rent'
p849
S'4,000'
p850
sa(dp851
S'City'
p852
S'Bangalore'
p853
sS'Name'
p854
S'Lax'
p855
sg37
S'http://classifieds.sulekha.com/bangalore/roommates/roommates/clad.aspx?cid=4523636'
p856
sS'Gender'
p857
S'Male'
p858
sS'Rent'
p859
S'7,000'
p860
sS'Location'
p861
S'Indira Nagar'
p862
sg12
S'Feb 22, 2010'
p863
sS'Type'
p864
S'Single occupancy'
p865
sg425
S'Hi, Am thinking of sharing the house located in indiranagar with any descent individual.  From how I was upgrown and where I belong, I havnot compromised with any modern amenities or lifestyle, so if anyone mind alike is out there, call me back.  No negotiation.  We want ROOM MATE, not TENANT...'
p866
sa(dp867
S'City'
p868
S'Bangalore'
p869
sS'Name'
p870
S'Prema'
p871
sg37
S'http://classifieds.sulekha.com/bangalore/roommates/roommates/clad.aspx?cid=4523453'
p872
sS'Gender'
p873
S'Female'
p874
sS'Landmark'
p875
S'Thippasandra'
p876
sS'Location'
p877
S'Indira Nagar'
p878
sg12
S'Feb 22, 2010'
p879
sS'Type'
p880
S'Sharing Basis'
p881
sS'Rent'
p882
S'4,000'
p883
sa(dp884
S'City'
p885
S'Bangalore'
p886
sS'Name'
p887
S'Sachinbhakare'
p888
sg37
S'http://classifieds.sulekha.com/bangalore/roommates/roommates/clad.aspx?cid=4523448'
p889
sS'Gender'
p890
S'Male'
p891
sS'Landmark'
p892
S'New BAngalore Central'
p893
sS'Location'
p894
S'Jayanagar'
p895
sg12
S'Feb 22, 2010'
p896
sS'Type'
p897
S'Sharing basis'
p898
sS'Rent'
p899
S'11,000'
p900
sa(dp901
S'City'
p902
S'Bangalore'
p903
sS'Name'
p904
S'Remya'
p905
sg37
S'http://classifieds.sulekha.com/bangalore/roommates/roommates/clad.aspx?cid=4522459'
p906
sS'Gender'
p907
S'Female'
p908
sS'Rent'
p909
S'2,000'
p910
sS'Landmark'
p911
S'Appollo nursing hostel'
p912
sS'Location'
p913
S'Arakere'
p914
sg12
S'Feb 22, 2010'
p915
sS'Type'
p916
S'Sharing Basis'
p917
sg425
S'1 BHK Flat, in Arekare (Near Accenture, HSBC, Reliance Mart etc).needs a roommate. '
p918
sa(dp919
S'City'
p920
S'Bangalore'
p921
sS'Name'
p922
S'Nevin'
p923
sg37
S'http://classifieds.sulekha.com/bangalore/roommates/roommates/clad.aspx?cid=4521494'
p924
sS'Gender'
p925
S'Male'
p926
sS'Rent'
p927
S'6,500'
p928
sS'Landmark'
p929
S"Behind 'More'"
p930
sS'Location'
p931
S'Koramangala 1st Block'
p932
sg12
S'Feb 22, 2010'
p933
sS'Type'
p934
S'Single occupancy'
p935
sg425
S'The appartment is a 4BHK duplex.2200 sq feet.2 rooms available.One with attached bathroom.Rooms are unfurnished.The rent is Rs 6,500 plus electricity and internet charges(if required). Habits :Strictly non-smoking and non-habitual drinkers.Preffered age group : 23-27'
p936
sa(dp937
S'City'
p938
S'Bangalore'
p939
sS'Name'
p940
S'Mitu'
p941
sg37
S'http://classifieds.sulekha.com/bangalore/roommates/roommates/clad.aspx?cid=4525211'
p942
sS'Gender'
p943
S'Female'
p944
sS'Location'
p945
S'AECS Layout'
p946
sg12
S'Feb 22, 2010'
p947
sS'Type'
p948
S'Sharing basis'
p949
sS'Rent'
p950
S'6,000'
p951
sa(dp952
S'City'
p953
S'Bangalore'
p954
sS'Name'
p955
S'Kavitha'
p956
sg37
S'http://classifieds.sulekha.com/bangalore/roommates/roommates/clad.aspx?cid=4522406'
p957
sS'Gender'
p958
S'Female'
p959
sS'Location'
p960
S'Madivala'
p961
sg12
S'Feb 22, 2010'
p962
sS'Type'
p963
S'Sharing basis'
p964
sS'Rent'
p965
S'55,000'
p966
sa(dp967
S'City'
p968
S'Bangalore'
p969
sS'Name'
p970
S'MOHIT'
p971
sg37
S'http://classifieds.sulekha.com/bangalore/roommates/roommates/clad.aspx?cid=4521372'
p972
sS'Gender'
p973
S'Male'
p974
sS'Landmark'
p975
S'Maharaja Hotel'
p976
sS'Location'
p977
S'Koramangala'
p978
sg12
S'Feb 21, 2010'
p979
sS'Type'
p980
S'Sharing basis'
p981
sS'Rent'
p982
S'4,500'
p983
sa(dp984
S'City'
p985
S'Bangalore'
p986
sS'Name'
p987
S'Madri'
p988
sg37
S'http://classifieds.sulekha.com/bangalore/roommates/roommates/clad.aspx?cid=4521370'
p989
sS'Gender'
p990
S'Female'
p991
sS'Landmark'
p992
S'Sony World,Lifestyle'
p993
sS'Location'
p994
S'Koramangala'
p995
sg12
S'Feb 21, 2010'
p996
sS'Type'
p997
S'Sharing Basis'
p998
sS'Rent'
p999
S'2,500'
p1000
sa(dp1001
S'City'
p1002
S'Bangalore'
p1003
sS'Name'
p1004
S'Jayaramr'
p1005
sg37
S'http://classifieds.sulekha.com/bangalore/roommates/roommates/clad.aspx?cid=4520155'
p1006
sS'Gender'
p1007
S'Female'
p1008
sS'Landmark'
p1009
S'jambu savari bus terminus'
p1010
sS'Location'
p1011
S'J.P.Nagar Layouts'
p1012
sg12
S'Feb 21, 2010'
p1013
sS'Type'
p1014
S'Single occupancy'
p1015
sS'Rent'
p1016
S'3,000'
p1017
sa(dp1018
S'City'
p1019
S'Bangalore'
p1020
sS'Name'
p1021
S'Shubhalini'
p1022
sg37
S'http://classifieds.sulekha.com/bangalore/roommates/roommates/clad.aspx?cid=4519446'
p1023
sS'Gender'
p1024
S'Female'
p1025
sS'Landmark'
p1026
S'Opposite ICICI Bank'
p1027
sS'Location'
p1028
S'BTM 2nd Stage'
p1029
sg12
S'Feb 21, 2010'
p1030
sS'Type'
p1031
S'Sharing basis'
p1032
sS'Rent'
p1033
S'6,000'
p1034
sa(dp1035
S'City'
p1036
S'Bangalore'
p1037
sS'Name'
p1038
S'Deepcontact'
p1039
sg37
S'http://classifieds.sulekha.com/bangalore/roommates/roommates/clad.aspx?cid=4520141'
p1040
sS'Gender'
p1041
S'Female'
p1042
sS'Rent'
p1043
S'4,000'
p1044
sS'Location'
p1045
S'C V Raman Nagar'
p1046
sg12
S'Feb 21, 2010'
p1047
sS'Type'
p1048
S'Sharing basis'
p1049
sg425
S'I have looked 2 BHK flat in Bangalore and I need room mates to share with me. You can contact me at deepika '
p1050
sa(dp1051
S'City'
p1052
S'Bangalore'
p1053
sS'Name'
p1054
S'Sharmila'
p1055
sg37
S'http://classifieds.sulekha.com/bangalore/roommates/roommates/clad.aspx?cid=4519463'
p1056
sS'Gender'
p1057
S'Female'
p1058
sS'Landmark'
p1059
S'Opposite Purva Rivera'
p1060
sS'Location'
p1061
S'Marathahalli'
p1062
sg12
S'Feb 21, 2010'
p1063
sS'Type'
p1064
S'Single occupancy'
p1065
sS'Rent'
p1066
S'5,700'
p1067
sa(dp1068
S'City'
p1069
S'Bangalore'
p1070
sS'Name'
p1071
S'Neeraj'
p1072
sg37
S'http://classifieds.sulekha.com/bangalore/roommates/roommates/clad.aspx?cid=4519310'
p1073
sS'Gender'
p1074
S'Male'
p1075
sS'Rent'
p1076
S'6,500'
p1077
sS'Landmark'
p1078
S'Wind Tunnel Road'
p1079
sS'Location'
p1080
S'Murugeshapalya'
p1081
sg12
S'Feb 20, 2010'
p1082
sS'Type'
p1083
S'Single occupancy'
p1084
sg425
S'Large bedroom, facilities like GYM, swimming pool, Table Tennis, Pool  table, parking, 24 hr power back up. Must be Hindi or English speaking. Rent includes maintainence charges as well.'
p1085
sa(dp1086
S'City'
p1087
S'Bangalore'
p1088
sS'Name'
p1089
S'Shwetanadgir'
p1090
sg37
S'http://classifieds.sulekha.com/bangalore/roommates/roommates/clad.aspx?cid=4519282'
p1091
sS'Gender'
p1092
S'Female'
p1093
sS'Rent'
p1094
S'4,000'
p1095
sS'Landmark'
p1096
S'Near to Home Needs'
p1097
sS'Location'
p1098
S'BTM 2nd Stage'
p1099
sg12
S'Feb 20, 2010'
p1100
sS'Type'
p1101
S'Sharing Basis'
p1102
sg425
S'Two BHK very spacious fully furnished: Cot, Cupboards,Sofa set, TV, Fridge, Aquaguard, cook, maid, parking facility, Solar water heater and geyser..24 hours water and electricity available.'
p1103
sa(dp1104
S'City'
p1105
S'Bangalore'
p1106
sS'Name'
p1107
S'Manub'
p1108
sg37
S'http://classifieds.sulekha.com/bangalore/roommates/roommates/clad.aspx?cid=4518652'
p1109
sS'Gender'
p1110
S'Female'
p1111
sS'Rent'
p1112
S'7,000'
p1113
sS'Landmark'
p1114
S'Near Purva rivera'
p1115
sS'Location'
p1116
S'Marathahalli'
p1117
sg12
S'Feb 20, 2010'
p1118
sS'Type'
p1119
S'Sharing Basis'
p1120
sg425
S'A fully furnished apartment in Marthahalli, Rohan Vasantha Apartments. 24/7 Security, Gym, Badminton, Swimming pool, club house, Parking. Its a 2 BHK Appartment. I am staying here past 3 years. The house rent is 13000 now. Looking for a partner who is quiet decent and share the rent(Male or Female)'
p1121
sa(dp1122
S'City'
p1123
S'Bangalore'
p1124
sS'Name'
p1125
S'Shilpi'
p1126
sg37
S'http://classifieds.sulekha.com/bangalore/roommates/roommates/clad.aspx?cid=4517841'
p1127
sS'Gender'
p1128
S'Female'
p1129
sS'Location'
p1130
S'Lakkasandra'
p1131
sg12
S'Feb 20, 2010'
p1132
sS'Type'
p1133
S'Sharing Basis'
p1134
sS'Rent'
p1135
S'2,500'
p1136
sa(dp1137
S'City'
p1138
S'Bangalore'
p1139
sS'Name'
p1140
S'Prashanth'
p1141
sg37
S'http://classifieds.sulekha.com/bangalore/roommates/roommates/clad.aspx?cid=4517658'
p1142
sS'Gender'
p1143
S'Male'
p1144
sS'Rent'
p1145
S'4,000'
p1146
sS'Landmark'
p1147
S'Water Tank'
p1148
sS'Location'
p1149
S'Domlur'
p1150
sg12
S'Feb 20, 2010'
p1151
sS'Type'
p1152
S'Sharing Basis'
p1153
sg425
S'A room is available on a sharing basis in Domlur, ground floor. Currently we need only one more person. Its a beautiful place with basic ammenities. There is a bed, cupboard, hot water facility and a fridge. We are looking for someone preferably from Mumbai but others are also welcome.'
p1154
sa(dp1155
S'City'
p1156
S'Bangalore'
p1157
sS'Name'
p1158
S'Nandan'
p1159
sg37
S'http://classifieds.sulekha.com/bangalore/roommates/roommates/clad.aspx?cid=4516973'
p1160
sS'Gender'
p1161
S'Male'
p1162
sS'Rent'
p1163
S'9,750'
p1164
sS'Location'
p1165
S'Koramangala 4th Block'
p1166
sg12
S'Feb 20, 2010'
p1167
sS'Type'
p1168
S'Sharing Basis'
p1169
sg425
S'We are 2 members sharing the house and we are looking for a Roommate.if any one interested please contact me. '
p1170
sa(dp1171
S'City'
p1172
S'Bangalore'
p1173
sS'Name'
p1174
S'Prethu'
p1175
sg37
S'http://classifieds.sulekha.com/bangalore/roommates/roommates/clad.aspx?cid=4517084'
p1176
sS'Gender'
p1177
S'Male'
p1178
sS'Landmark'
p1179
S'Marathahalli'
p1180
sS'Location'
p1181
S'Marathahalli'
p1182
sg12
S'Feb 20, 2010'
p1183
sS'Type'
p1184
S'Sharing basis'
p1185
sS'Rent'
p1186
S'4,000'
p1187
sa(dp1188
S'City'
p1189
S'Bangalore'
p1190
sS'Name'
p1191
S'Venkat'
p1192
sg37
S'http://classifieds.sulekha.com/bangalore/roommates/roommates/clad.aspx?cid=4517385'
p1193
sS'Gender'
p1194
S'Male'
p1195
sS'Landmark'
p1196
S'Near dayanand sagar College,'
p1197
sS'Location'
p1198
S'Kumaraswamy Layout'
p1199
sg12
S'Feb 20, 2010'
p1200
sS'Type'
p1201
S'Sharing basis'
p1202
sS'Rent'
p1203
S'1,800'
p1204
sa(dp1205
S'City'
p1206
S'Bangalore'
p1207
sS'Name'
p1208
S'Ananth'
p1209
sg37
S'http://classifieds.sulekha.com/bangalore/roommates/roommates/clad.aspx?cid=4516307'
p1210
sS'Gender'
p1211
S'Male'
p1212
sS'Landmark'
p1213
S'NIL'
p1214
sS'Location'
p1215
S'Koramangala'
p1216
sg12
S'Feb 20, 2010'
p1217
sS'Type'
p1218
S'Sharing basis'
p1219
sS'Rent'
p1220
S'3,500'
p1221
sa(dp1222
S'City'
p1223
S'Bangalore'
p1224
sS'Name'
p1225
S'Kadhambari'
p1226
sg37
S'http://classifieds.sulekha.com/bangalore/roommates/roommates/clad.aspx?cid=4515778'
p1227
sS'Gender'
p1228
S'Female'
p1229
sS'Landmark'
p1230
S'Leela Palace'
p1231
sS'Location'
p1232
S'Indira Nagar'
p1233
sg12
S'Feb 19, 2010'
p1234
sS'Type'
p1235
S'Single occupancy'
p1236
sS'Rent'
p1237
S'5,750'
p1238
sa(dp1239
S'City'
p1240
S'Bangalore'
p1241
sS'Name'
p1242
S'Yogender'
p1243
sg37
S'http://classifieds.sulekha.com/bangalore/roommates/roommates/clad.aspx?cid=4514741'
p1244
sS'Gender'
p1245
S'Male'
p1246
sS'Rent'
p1247
S'2,500'
p1248
sS'Landmark'
p1249
S'Ulsoor Police Station'
p1250
sS'Location'
p1251
S'Ulsoor'
p1252
sg12
S'Feb 19, 2010'
p1253
sS'Type'
p1254
S'Sharing Basis'
p1255
sg425
S'Hi,I am living in a 1BHK in Jogupalya, Ulsoor. Looking for a roommate.Rent is Rs 2500 and security is Rs 25000.Have TV, Almirah.Only working guys may contact.Thanks'
p1256
sa(dp1257
S'City'
p1258
S'Bangalore'
p1259
sS'Name'
p1260
S'Harish'
p1261
sg37
S'http://classifieds.sulekha.com/bangalore/roommates/roommates/clad.aspx?cid=4512936'
p1262
sS'Gender'
p1263
S'Male'
p1264
sS'Location'
p1265
S'J.P. Nagar 4th Phase'
p1266
sg12
S'Feb 19, 2010'
p1267
sS'Type'
p1268
S'Sharing Basis'
p1269
sS'Rent'
p1270
S'3,000'
p1271
sa(dp1272
S'City'
p1273
S'Bangalore'
p1274
sS'Name'
p1275
S'Anuradha'
p1276
sg37
S'http://classifieds.sulekha.com/bangalore/roommates/roommates/clad.aspx?cid=4512506'
p1277
sS'Gender'
p1278
S'Female'
p1279
sS'Landmark'
p1280
S'Near Sony world signal'
p1281
sS'Location'
p1282
S'Koramangala 5th Block'
p1283
sg12
S'Feb 19, 2010'
p1284
sS'Type'
p1285
S'Single occupancy'
p1286
sS'Rent'
p1287
S'3,000'
p1288
sa(dp1289
S'City'
p1290
S'Bangalore'
p1291
sS'Name'
p1292
S'Rahuldharma'
p1293
sg37
S'http://classifieds.sulekha.com/bangalore/roommates/roommates/clad.aspx?cid=4510282'
p1294
sS'Gender'
p1295
S'Female'
p1296
sS'Landmark'
p1297
S'silk board'
p1298
sS'Location'
p1299
S'Bommanahalli'
p1300
sg12
S'Feb 18, 2010'
p1301
sS'Type'
p1302
S'Single occupancy'
p1303
sS'Rent'
p1304
S'6,000'
p1305
sa(dp1306
S'City'
p1307
S'Bangalore'
p1308
sS'Name'
p1309
S'Prasantabiswal'
p1310
sg37
S'http://classifieds.sulekha.com/bangalore/roommates/roommates/clad.aspx?cid=4509999'
p1311
sS'Gender'
p1312
S'Male'
p1313
sS'Location'
p1314
S'J.P.Nagar 7th Phase'
p1315
sg12
S'Feb 18, 2010'
p1316
sS'Type'
p1317
S'Sharing basis'
p1318
sS'Rent'
p1319
S'4,000'
p1320
sa(dp1321
S'City'
p1322
S'Bangalore'
p1323
sS'Name'
p1324
S'Kavil'
p1325
sg37
S'http://classifieds.sulekha.com/bangalore/roommates/roommates/clad.aspx?cid=4508014'
p1326
sS'Gender'
p1327
S'Male'
p1328
sS'Location'
p1329
S'J.P. Nagar 5th Phase'
p1330
sg12
S'Feb 18, 2010'
p1331
sS'Type'
p1332
S'Sharing Basis'
p1333
sS'Rent'
p1334
S'3,100'
p1335
sa(dp1336
S'City'
p1337
S'Bangalore'
p1338
sS'Name'
p1339
S'Adaa'
p1340
sg37
S'http://classifieds.sulekha.com/bangalore/roommates/roommates/clad.aspx?cid=4511572'
p1341
sS'Gender'
p1342
S'Female'
p1343
sS'Location'
p1344
S'Marathahalli'
p1345
sg12
S'Feb 18, 2010'
p1346
sS'Type'
p1347
S'Sharing basis'
p1348
sS'Rent'
p1349
S'5,000'
p1350
sa(dp1351
S'City'
p1352
S'Bangalore'
p1353
sS'Name'
p1354
S'Sudheersha'
p1355
sg37
S'http://classifieds.sulekha.com/bangalore/roommates/roommates/clad.aspx?cid=4509451'
p1356
sS'Gender'
p1357
S'Female'
p1358
sS'Location'
p1359
S'HSR Layout'
p1360
sg12
S'Feb 18, 2010'
p1361
sS'Type'
p1362
S'Sharing basis'
p1363
sS'Rent'
p1364
S'2,500'
p1365
sa(dp1366
S'City'
p1367
S'Bangalore'
p1368
sS'Name'
p1369
S'Karthik'
p1370
sg37
S'http://classifieds.sulekha.com/bangalore/roommates/roommates/clad.aspx?cid=4510930'
p1371
sS'Gender'
p1372
S'Male'
p1373
sS'Location'
p1374
S'Hebbal'
p1375
sg12
S'Feb 18, 2010'
p1376
sS'Type'
p1377
S'Sharing basis'
p1378
sS'Rent'
p1379
S'3,500'
p1380
sa(dp1381
S'City'
p1382
S'Bangalore'
p1383
sS'Name'
p1384
S'Viswa'
p1385
sg37
S'http://classifieds.sulekha.com/bangalore/roommates/roommates/clad.aspx?cid=4511825'
p1386
sS'Gender'
p1387
S'Male'
p1388
sS'Location'
p1389
S'BTM Layout'
p1390
sg12
S'Feb 18, 2010'
p1391
sS'Type'
p1392
S'Single occupancy'
p1393
sS'Rent'
p1394
S'5,000'
p1395
sa(dp1396
S'City'
p1397
S'Bangalore'
p1398
sS'Name'
p1399
S'Ashish'
p1400
sg37
S'http://classifieds.sulekha.com/bangalore/roommates/roommates/clad.aspx?cid=4506962'
p1401
sS'Gender'
p1402
S'Male'
p1403
sS'Rent'
p1404
S'11,000'
p1405
sS'Landmark'
p1406
S'Vijaya Bank Layout'
p1407
sS'Location'
p1408
S'Bannerghatta Road'
p1409
sg12
S'Feb 17, 2010'
p1410
sS'Type'
p1411
S'Single occupancy'
p1412
sg425
S'I am looking for a flatmate as my current flatmate is moving out of Bangalore.'
p1413
sa(dp1414
S'City'
p1415
S'Bangalore'
p1416
sS'Name'
p1417
S'Vinutha'
p1418
sg37
S'http://classifieds.sulekha.com/bangalore/roommates/roommates/clad.aspx?cid=4506471'
p1419
sS'Gender'
p1420
S'Female'
p1421
sS'Landmark'
p1422
S'Forum'
p1423
sS'Location'
p1424
S'Koramangala'
p1425
sg12
S'Feb 17, 2010'
p1426
sS'Type'
p1427
S'Sharing basis'
p1428
sS'Rent'
p1429
S'6,000'
p1430
sa(dp1431
S'City'
p1432
S'Bangalore'
p1433
sS'Name'
p1434
S'Vindhya'
p1435
sg37
S'http://classifieds.sulekha.com/bangalore/roommates/roommates/clad.aspx?cid=4505516'
p1436
sS'Gender'
p1437
S'Female'
p1438
sS'Location'
p1439
S'Hosur Road'
p1440
sg12
S'Feb 17, 2010'
p1441
sS'Type'
p1442
S'Single occupancy'
p1443
sS'Rent'
p1444
S'4,000'
p1445
sa(dp1446
S'City'
p1447
S'Bangalore'
p1448
sS'Name'
p1449
S'Meenakshi'
p1450
sg37
S'http://classifieds.sulekha.com/bangalore/roommates/roommates/clad.aspx?cid=4505007'
p1451
sS'Gender'
p1452
S'Female'
p1453
sS'Location'
p1454
S'BTM Layout'
p1455
sg12
S'Feb 17, 2010'
p1456
sS'Type'
p1457
S'Single occupancy'
p1458
sS'Rent'
p1459
S'3,000'
p1460
sa(dp1461
S'City'
p1462
S'Bangalore'
p1463
sS'Name'
p1464
S'Jai'
p1465
sg37
S'http://classifieds.sulekha.com/bangalore/roommates/roommates/clad.aspx?cid=4504951'
p1466
sS'Gender'
p1467
S'Male'
p1468
sS'Location'
p1469
S'Whitefield'
p1470
sg12
S'Feb 17, 2010'
p1471
sS'Type'
p1472
S'Sharing Basis'
p1473
sS'Rent'
p1474
S'4,000'
p1475
sa(dp1476
S'City'
p1477
S'Bangalore'
p1478
sS'Name'
p1479
S'Kapilbassan'
p1480
sg37
S'http://classifieds.sulekha.com/bangalore/roommates/roommates/clad.aspx?cid=4504611'
p1481
sS'Gender'
p1482
S'Male'
p1483
sS'Landmark'
p1484
S'Sony World'
p1485
sS'Location'
p1486
S'Ejipura'
p1487
sg12
S'Feb 17, 2010'
p1488
sS'Type'
p1489
S'Sharing Basis'
p1490
sS'Rent'
p1491
S'3,500'
p1492
sa(dp1493
S'City'
p1494
S'Bangalore'
p1495
sS'Name'
p1496
S'Chetan'
p1497
sg37
S'http://classifieds.sulekha.com/bangalore/roommates/roommates/clad.aspx?cid=4507803'
p1498
sS'Gender'
p1499
S'Male'
p1500
sS'Location'
p1501
S'Anand Nagar'
p1502
sg12
S'Feb 17, 2010'
p1503
sS'Type'
p1504
S'Sharing basis'
p1505
sS'Rent'
p1506
S'4,000'
p1507
sa(dp1508
S'City'
p1509
S'Bangalore'
p1510
sS'Name'
p1511
S'Lokesh'
p1512
sg37
S'http://classifieds.sulekha.com/bangalore/roommates/roommates/clad.aspx?cid=4506978'
p1513
sS'Gender'
p1514
S'Male'
p1515
sS'Landmark'
p1516
S'Fernhill Apartment Silk Board'
p1517
sS'Location'
p1518
S'HSR Layout'
p1519
sg12
S'Feb 17, 2010'
p1520
sS'Type'
p1521
S'Single occupancy'
p1522
sS'Rent'
p1523
S'11,500'
p1524
sa(dp1525
S'City'
p1526
S'Bangalore'
p1527
sS'Name'
p1528
S'Ankitseth'
p1529
sg37
S'http://classifieds.sulekha.com/bangalore/roommates/roommates/clad.aspx?cid=4503041'
p1530
sS'Gender'
p1531
S'Male'
p1532
sS'Location'
p1533
S'BTM Layout'
p1534
sg12
S'Feb 16, 2010'
p1535
sS'Type'
p1536
S'Sharing basis'
p1537
sS'Rent'
p1538
S'6,000'
p1539
sa(dp1540
S'City'
p1541
S'Bangalore'
p1542
sS'Name'
p1543
S'Prajithk'
p1544
sg37
S'http://classifieds.sulekha.com/bangalore/roommates/roommates/clad.aspx?cid=4502387'
p1545
sS'Gender'
p1546
S'Male'
p1547
sS'Rent'
p1548
S'1,750'
p1549
sS'Landmark'
p1550
S'Near Electronic City'
p1551
sS'Location'
p1552
S'Singasandra'
p1553
sg12
S'Feb 16, 2010'
p1554
sS'Type'
p1555
S'Sharing Basis'
p1556
sg425
S'wanted room mate for sharing 1 BHKaccomidation close by Electronic City'
p1557
sa(dp1558
S'City'
p1559
S'Bangalore'
p1560
sS'Name'
p1561
S'Prem Kumar'
p1562
sg37
S'http://classifieds.sulekha.com/bangalore/roommates/roommates/clad.aspx?cid=4501626'
p1563
sS'Gender'
p1564
S'Male'
p1565
sS'Landmark'
p1566
S'Mantri Classic at ST Bed'
p1567
sS'Location'
p1568
S'Koramangala 4th Block'
p1569
sg12
S'Feb 16, 2010'
p1570
sS'Type'
p1571
S'Single occupancy'
p1572
sS'Rent'
p1573
S'6,000'
p1574
sa(dp1575
S'City'
p1576
S'Bangalore'
p1577
sS'Name'
p1578
S'Abhinav'
p1579
sg37
S'http://classifieds.sulekha.com/bangalore/roommates/roommates/clad.aspx?cid=4501625'
p1580
sS'Gender'
p1581
S'Male'
p1582
sS'Landmark'
p1583
S'Bharti Axa Building'
p1584
sS'Location'
p1585
S'BTM 1st Stage'
p1586
sg12
S'Feb 16, 2010'
p1587
sS'Type'
p1588
S'Single occupancy'
p1589
sS'Rent'
p1590
S'6,750'
p1591
sa(dp1592
S'City'
p1593
S'Bangalore'
p1594
sS'Name'
p1595
S'Gunja'
p1596
sg37
S'http://classifieds.sulekha.com/bangalore/roommates/roommates/clad.aspx?cid=4501621'
p1597
sS'Gender'
p1598
S'Female'
p1599
sS'Landmark'
p1600
S'Near Novel team/Axa'
p1601
sS'Location'
p1602
S'BTM 1st Stage'
p1603
sg12
S'Feb 16, 2010'
p1604
sS'Type'
p1605
S'Sharing Basis'
p1606
sS'Rent'
p1607
S'7,500'
p1608
sa(dp1609
S'City'
p1610
S'Bangalore'
p1611
sS'Name'
p1612
S'Muthu'
p1613
sg37
S'http://classifieds.sulekha.com/bangalore/roommates/roommates/clad.aspx?cid=4501618'
p1614
sS'Gender'
p1615
S'Male'
p1616
sS'Landmark'
p1617
S'Near Electronic City'
p1618
sS'Location'
p1619
S'Electronic City'
p1620
sg12
S'Feb 16, 2010'
p1621
sS'Type'
p1622
S'Sharing Basis'
p1623
sS'Rent'
p1624
S'2,500'
p1625
sa(dp1626
S'City'
p1627
S'Bangalore'
p1628
sS'Name'
p1629
S'AMITGUPTA'
p1630
sg37
S'http://classifieds.sulekha.com/bangalore/roommates/roommates/clad.aspx?cid=4500914'
p1631
sS'Gender'
p1632
S'Male'
p1633
sS'Rent'
p1634
S'2,500'
p1635
sS'Landmark'
p1636
S'near sai baba temple'
p1637
sS'Location'
p1638
S'Anand Nagar'
p1639
sg12
S'Feb 16, 2010'
p1640
sS'Type'
p1641
S'Single occupancy'
p1642
sg425
S'we r 2 frdz wrkng in s/w mnc from bhilai and balaghat(mp),looking one vegeterian northy roommate who can share a 2 bhk house with us.adv 20000 rs only.manyata tech park near 5 km.'
p1643
sa(dp1644
S'City'
p1645
S'Bangalore'
p1646
sS'Name'
p1647
S'Satish Jain'
p1648
sg37
S'http://classifieds.sulekha.com/bangalore/roommates/roommates/clad.aspx?cid=4500373'
p1649
sS'Gender'
p1650
S'Male'
p1651
sS'Location'
p1652
S'Koramangala'
p1653
sg12
S'Feb 16, 2010'
p1654
sS'Type'
p1655
S'Sharing basis'
p1656
sS'Rent'
p1657
S'3,000'
p1658
sa(dp1659
S'City'
p1660
S'Bangalore'
p1661
sS'Name'
p1662
S'Naidu'
p1663
sg37
S'http://classifieds.sulekha.com/bangalore/roommates/roommates/clad.aspx?cid=4500306'
p1664
sS'Gender'
p1665
S'Male'
p1666
sS'Location'
p1667
S'Mahadevapura'
p1668
sg12
S'Feb 16, 2010'
p1669
sS'Type'
p1670
S'Sharing basis'
p1671
sS'Rent'
p1672
S'1,500'
p1673
sa(dp1674
S'City'
p1675
S'Bangalore'
p1676
sS'Name'
p1677
S'Vinil'
p1678
sg37
S'http://classifieds.sulekha.com/bangalore/roommates/roommates/clad.aspx?cid=4500054'
p1679
sS'Gender'
p1680
S'Male'
p1681
sS'Landmark'
p1682
S'Hope Farm'
p1683
sS'Location'
p1684
S'Whitefield'
p1685
sg12
S'Feb 16, 2010'
p1686
sS'Type'
p1687
S'Sharing Basis'
p1688
sS'Rent'
p1689
S'5,000'
p1690
sa(dp1691
S'City'
p1692
S'Bangalore'
p1693
sS'Name'
p1694
S'Sanjeevagarwal'
p1695
sg37
S'http://classifieds.sulekha.com/bangalore/roommates/roommates/clad.aspx?cid=4500038'
p1696
sS'Gender'
p1697
S'Female'
p1698
sS'Landmark'
p1699
S'Hope Farm Circle'
p1700
sS'Location'
p1701
S'Whitefield'
p1702
sg12
S'Feb 16, 2010'
p1703
sS'Type'
p1704
S'Sharing Basis'
p1705
sS'Rent'
p1706
S'3,500'
p1707
sa(dp1708
S'City'
p1709
S'Bangalore'
p1710
sS'Name'
p1711
S'Jeeshan'
p1712
sg37
S'http://classifieds.sulekha.com/bangalore/roommates/roommates/clad.aspx?cid=4501129'
p1713
sS'Gender'
p1714
S'Female'
p1715
sS'Location'
p1716
S'Ejipura'
p1717
sg12
S'Feb 16, 2010'
p1718
sS'Type'
p1719
S'Sharing basis'
p1720
sS'Rent'
p1721
S'3,500'
p1722
sa(dp1723
S'City'
p1724
S'Bangalore'
p1725
sS'Name'
p1726
S'Roopkamal'
p1727
sg37
S'http://classifieds.sulekha.com/bangalore/roommates/roommates/clad.aspx?cid=4498096'
p1728
sS'Gender'
p1729
S'Male'
p1730
sS'Landmark'
p1731
S'Behind EGL Park'
p1732
sS'Location'
p1733
S'Airport Road'
p1734
sg12
S'Feb 15, 2010'
p1735
sS'Type'
p1736
S'Single occupancy'
p1737
sS'Rent'
p1738
S'6,300'
p1739
sa(dp1740
S'City'
p1741
S'Bangalore'
p1742
sS'Name'
p1743
S'Joseph'
p1744
sg37
S'http://classifieds.sulekha.com/bangalore/roommates/roommates/clad.aspx?cid=4497031'
p1745
sS'Gender'
p1746
S'Male'
p1747
sS'Location'
p1748
S'Others'
p1749
sg12
S'Feb 15, 2010'
p1750
sS'Type'
p1751
S'Sharing Basis'
p1752
sS'Rent'
p1753
S'4,000'
p1754
sa(dp1755
S'City'
p1756
S'Bangalore'
p1757
sS'Name'
p1758
S'Goutam'
p1759
sg37
S'http://classifieds.sulekha.com/bangalore/roommates/roommates/clad.aspx?cid=4496887'
p1760
sS'Gender'
p1761
S'Male'
p1762
sS'Landmark'
p1763
S'Cisco, JP Morgan Chase'
p1764
sS'Location'
p1765
S'Kadubeesanahalli'
p1766
sg12
S'Feb 15, 2010'
p1767
sS'Type'
p1768
S'Single occupancy'
p1769
sS'Rent'
p1770
S'3,000'
p1771
sa(dp1772
S'City'
p1773
S'Bangalore'
p1774
sS'Name'
p1775
S'Eshahi'
p1776
sg37
S'http://classifieds.sulekha.com/bangalore/roommates/roommates/clad.aspx?cid=4494940'
p1777
sS'Gender'
p1778
S'Female'
p1779
sS'Location'
p1780
S'Indira Nagar'
p1781
sg12
S'Feb 14, 2010'
p1782
sS'Type'
p1783
S'Single occupancy'
p1784
sS'Rent'
p1785
S'5,500'
p1786
sa(dp1787
S'City'
p1788
S'Bangalore'
p1789
sS'Name'
p1790
S'Sayantani'
p1791
sg37
S'http://classifieds.sulekha.com/bangalore/roommates/roommates/clad.aspx?cid=4494317'
p1792
sS'Gender'
p1793
S'Female'
p1794
sS'Rent'
p1795
S'2,500'
p1796
sS'Landmark'
p1797
S'KUNDANHALLI GATE'
p1798
sS'Location'
p1799
S'Kundalahalli'
p1800
sg12
S'Feb 14, 2010'
p1801
sS'Type'
p1802
S'Sharing Basis'
p1803
sg425
S'LOCATED NEAR TO KUNDANHALLI GATE SIGNAL. 3BHK FLAT SHARED BY 5 GIRLS NOW. SEARCHING FOR A DECENT ROOMMATE.'
p1804
sa(dp1805
S'City'
p1806
S'Bangalore'
p1807
sS'Name'
p1808
S'Ashish'
p1809
sg37
S'http://classifieds.sulekha.com/bangalore/roommates/roommates/clad.aspx?cid=4494125'
p1810
sS'Gender'
p1811
S'Male'
p1812
sS'Landmark'
p1813
S'Omega Health care'
p1814
sS'Location'
p1815
S'Murugeshapalya'
p1816
sg12
S'Feb 14, 2010'
p1817
sS'Type'
p1818
S'Sharing Basis'
p1819
sS'Rent'
p1820
S'12,000'
p1821
sa(dp1822
S'City'
p1823
S'Bangalore'
p1824
sS'Name'
p1825
S'Kssheela'
p1826
sg37
S'http://classifieds.sulekha.com/bangalore/roommates/roommates/clad.aspx?cid=4493625'
p1827
sS'Gender'
p1828
S'Female'
p1829
sS'Rent'
p1830
S'3,000'
p1831
sS'Landmark'
p1832
S'Near Indian Academy College'
p1833
sS'Location'
p1834
S'Hennur Main Road'
p1835
sg12
S'Feb 14, 2010'
p1836
sS'Type'
p1837
S'Sharing Basis'
p1838
sg425
S'Ground floor room with attached bath.Near Indian Acacemy College. 24 hours water & Electricity.Exclusive of Food.only for Two .'
p1839
sa(dp1840
S'City'
p1841
S'Bangalore'
p1842
sS'Name'
p1843
S'Chandra'
p1844
sg37
S'http://classifieds.sulekha.com/bangalore/roommates/roommates/clad.aspx?cid=4493403'
p1845
sS'Gender'
p1846
S'Female'
p1847
sS'Landmark'
p1848
S'New BEL ROAD'
p1849
sS'Location'
p1850
S'R.M.V. Extension'
p1851
sg12
S'Feb 14, 2010'
p1852
sS'Type'
p1853
S'Sharing Basis'
p1854
sS'Rent'
p1855
S'3,000'
p1856
sa(dp1857
S'City'
p1858
S'Bangalore'
p1859
sS'Name'
p1860
S'Suhas'
p1861
sg37
S'http://classifieds.sulekha.com/bangalore/roommates/roommates/clad.aspx?cid=4492911'
p1862
sS'Gender'
p1863
S'Male'
p1864
sS'Landmark'
p1865
S'Sony World Signal'
p1866
sS'Location'
p1867
S'Ejipura'
p1868
sg12
S'Feb 13, 2010'
p1869
sS'Type'
p1870
S'Sharing Basis'
p1871
sS'Rent'
p1872
S'4,000'
p1873
sa(dp1874
S'City'
p1875
S'Bangalore'
p1876
sS'Name'
p1877
S'SUSHIL MISHRA'
p1878
sg37
S'http://classifieds.sulekha.com/bangalore/roommates/roommates/clad.aspx?cid=4492589'
p1879
sS'Gender'
p1880
S'Male'
p1881
sS'Landmark'
p1882
S"near Adiga's"
p1883
sS'Location'
p1884
S'Malleshwaram'
p1885
sg12
S'Feb 13, 2010'
p1886
sS'Type'
p1887
S'Sharing basis'
p1888
sS'Rent'
p1889
S'3,000'
p1890
sa(dp1891
S'City'
p1892
S'Bangalore'
p1893
sS'Name'
p1894
S'Mrs.Karuna'
p1895
sg37
S'http://classifieds.sulekha.com/bangalore/roommates/roommates/clad.aspx?cid=4491914'
p1896
sS'Gender'
p1897
S'Female'
p1898
sS'Landmark'
p1899
S'HSBC'
p1900
sS'Location'
p1901
S'Arakere'
p1902
sg12
S'Feb 13, 2010'
p1903
sS'Type'
p1904
S'Sharing basis'
p1905
sS'Rent'
p1906
S'5,000'
p1907
sa(dp1908
S'City'
p1909
S'Bangalore'
p1910
sS'Name'
p1911
S'Premendra'
p1912
sg37
S'http://classifieds.sulekha.com/bangalore/roommates/roommates/clad.aspx?cid=4490641'
p1913
sS'Gender'
p1914
S'Male'
p1915
sS'Landmark'
p1916
S'near aiyappa swami temple'
p1917
sS'Location'
p1918
S'Madivala'
p1919
sg12
S'Feb 13, 2010'
p1920
sS'Type'
p1921
S'Single occupancy'
p1922
sS'Rent'
p1923
S'2,500'
p1924
sa(dp1925
S'City'
p1926
S'Bangalore'
p1927
sS'Name'
p1928
S'Debolina'
p1929
sg37
S'http://classifieds.sulekha.com/bangalore/roommates/roommates/clad.aspx?cid=4489699'
p1930
sS'Gender'
p1931
S'Female'
p1932
sS'Landmark'
p1933
S'Opposite IBP petrol Bunk'
p1934
sS'Location'
p1935
S'Koramangala'
p1936
sg12
S'Feb 13, 2010'
p1937
sS'Type'
p1938
S'Sharing Basis'
p1939
sS'Rent'
p1940
S'2,551'
p1941
sa(dp1942
S'City'
p1943
S'Bangalore'
p1944
sS'Name'
p1945
S'Seema'
p1946
sg37
S'http://classifieds.sulekha.com/bangalore/roommates/roommates/clad.aspx?cid=4489410'
p1947
sS'Gender'
p1948
S'Female'
p1949
sS'Location'
p1950
S'Belandur'
p1951
sg12
S'Feb 12, 2010'
p1952
sS'Type'
p1953
S'Sharing Basis'
p1954
sS'Rent'
p1955
S'2,500'
p1956
sa(dp1957
S'City'
p1958
S'Bangalore'
p1959
sS'Name'
p1960
S'Vinayak'
p1961
sg37
S'http://classifieds.sulekha.com/bangalore/roommates/roommates/clad.aspx?cid=4488319'
p1962
sS'Gender'
p1963
S'Male'
p1964
sS'Rent'
p1965
S'5,000'
p1966
sS'Landmark'
p1967
S'KasturiNagar CCD'
p1968
sS'Location'
p1969
S'Kasturi Nagar'
p1970
sg12
S'Feb 12, 2010'
p1971
sS'Type'
p1972
S'Sharing Basis'
p1973
sg425
S'Hi.My Flat consists of 1BHK, attached bathroom with Geyser,Gas, wardrobe,Fridge, TV, utensils and parking for 2 wheeler'
p1974
sa(dp1975
S'City'
p1976
S'Bangalore'
p1977
sS'Name'
p1978
S'Rupayan'
p1979
sg37
S'http://classifieds.sulekha.com/bangalore/roommates/roommates/clad.aspx?cid=4488301'
p1980
sS'Gender'
p1981
S'Female'
p1982
sS'Landmark'
p1983
S'NGV'
p1984
sS'Location'
p1985
S'Koramangala'
p1986
sg12
S'Feb 12, 2010'
p1987
sS'Type'
p1988
S'Sharing basis'
p1989
sS'Rent'
p1990
S'3,360'
p1991
sa(dp1992
S'City'
p1993
S'Bangalore'
p1994
sS'Name'
p1995
S'Nidhhi'
p1996
sg37
S'http://classifieds.sulekha.com/bangalore/roommates/roommates/clad.aspx?cid=4487121'
p1997
sS'Gender'
p1998
S'Female'
p1999
sS'Landmark'
p2000
S'Kalyani magnum tech park'
p2001
sS'Location'
p2002
S'J.P. Nagar 5th Phase'
p2003
sg12
S'Feb 12, 2010'
p2004
sS'Type'
p2005
S'Sharing Basis'
p2006
sS'Rent'
p2007
S'5,000'
p2008
sa(dp2009
S'City'
p2010
S'Bangalore'
p2011
sS'Name'
p2012
S'Rohanamin'
p2013
sg37
S'http://classifieds.sulekha.com/bangalore/roommates/roommates/clad.aspx?cid=4486356'
p2014
sS'Gender'
p2015
S'Male'
p2016
sS'Location'
p2017
S'BEML Layout'
p2018
sg12
S'Feb 12, 2010'
p2019
sS'Type'
p2020
S'Sharing basis'
p2021
sS'Rent'
p2022
S'2,500'
p2023
sa(dp2024
S'City'
p2025
S'Bangalore'
p2026
sS'Name'
p2027
S'Janz'
p2028
sg37
S'http://classifieds.sulekha.com/bangalore/roommates/roommates/clad.aspx?cid=4486058'
p2029
sS'Gender'
p2030
S'Female'
p2031
sS'Landmark'
p2032
S'innovative multiplex'
p2033
sS'Location'
p2034
S'Marathahalli'
p2035
sg12
S'Feb 12, 2010'
p2036
sS'Type'
p2037
S'Sharing Basis'
p2038
sS'Rent'
p2039
S'3,537'
p2040
sa(dp2041
S'City'
p2042
S'Bangalore'
p2043
sS'Name'
p2044
S'Siddhi'
p2045
sg37
S'http://classifieds.sulekha.com/bangalore/roommates/roommates/clad.aspx?cid=4486029'
p2046
sS'Gender'
p2047
S'Female'
p2048
sS'Landmark'
p2049
S'Near UDPI Garden'
p2050
sS'Location'
p2051
S'Banshankari 2nd stage'
p2052
sg12
S'Feb 12, 2010'
p2053
sS'Type'
p2054
S'Sharing basis'
p2055
sS'Rent'
p2056
S'3,200'
p2057
sa(dp2058
S'City'
p2059
S'Bangalore'
p2060
sS'Name'
p2061
S'Rekha'
p2062
sg37
S'http://classifieds.sulekha.com/bangalore/roommates/roommates/clad.aspx?cid=4483307'
p2063
sS'Gender'
p2064
S'Female'
p2065
sS'Location'
p2066
S'Airport Road'
p2067
sg12
S'Feb 11, 2010'
p2068
sS'Type'
p2069
S'Single occupancy'
p2070
sS'Rent'
p2071
S'6,500'
p2072
sa(dp2073
S'City'
p2074
S'Bangalore'
p2075
sS'Name'
p2076
S'Harisharora'
p2077
sg37
S'http://classifieds.sulekha.com/bangalore/roommates/roommates/clad.aspx?cid=4483145'
p2078
sS'Gender'
p2079
S'Male'
p2080
sS'Location'
p2081
S'HBR Layout'
p2082
sg12
S'Feb 11, 2010'
p2083
sS'Type'
p2084
S'Single occupancy'
p2085
sS'Rent'
p2086
S'8,000'
p2087
sa(dp2088
S'City'
p2089
S'Bangalore'
p2090
sS'Name'
p2091
S'Neha Sardana'
p2092
sg37
S'http://classifieds.sulekha.com/bangalore/roommates/roommates/clad.aspx?cid=4482838'
p2093
sS'Gender'
p2094
S'Female'
p2095
sS'Landmark'
p2096
S'TGIF'
p2097
sS'Location'
p2098
S'Indira Nagar'
p2099
sg12
S'Feb 11, 2010'
p2100
sS'Type'
p2101
S'Sharing Basis'
p2102
sS'Rent'
p2103
S'3,125'
p2104
sa(dp2105
S'City'
p2106
S'Bangalore'
p2107
sS'Name'
p2108
S'Dheeraj'
p2109
sg37
S'http://classifieds.sulekha.com/bangalore/roommates/roommates/clad.aspx?cid=4481775'
p2110
sS'Gender'
p2111
S'Female'
p2112
sS'Rent'
p2113
S'2,500'
p2114
sS'Landmark'
p2115
S'near AECS Layout'
p2116
sS'Location'
p2117
S'Kundalahalli'
p2118
sg12
S'Feb 11, 2010'
p2119
sS'Type'
p2120
S'Sharing Basis'
p2121
sg425
S'My Friend(Girl) is looking for a female roommate. Its a 3 BHK flat in apartment. 2 bedrooms  are already occupied by 3 girls. My friend is planning to shif in vacant room if she finds a girl roommate. Monthly rent will be Rs2500-3000. Flat includes facilities like kitchen, attached bathroom, Washing machine, Internet etc. Urgent requirement.'
p2122
sa(dp2123
S'City'
p2124
S'Bangalore'
p2125
sS'Name'
p2126
S'Priyabehl'
p2127
sg37
S'http://classifieds.sulekha.com/bangalore/roommates/roommates/clad.aspx?cid=4481636'
p2128
sS'Gender'
p2129
S'Female'
p2130
sS'Landmark'
p2131
S'udupi garden'
p2132
sS'Location'
p2133
S'BTM Layout'
p2134
sg12
S'Feb 11, 2010'
p2135
sS'Type'
p2136
S'Sharing Basis'
p2137
sS'Rent'
p2138
S'2,500'
p2139
sa(dp2140
S'City'
p2141
S'Bangalore'
p2142
sS'Name'
p2143
S'Rohanagarwal'
p2144
sg37
S'http://classifieds.sulekha.com/bangalore/roommates/roommates/clad.aspx?cid=4479974'
p2145
sS'Gender'
p2146
S'Male'
p2147
sS'Landmark'
p2148
S'ST Bed Layout'
p2149
sS'Location'
p2150
S'Koramangala'
p2151
sg12
S'Feb 10, 2010'
p2152
sS'Type'
p2153
S'Single occupancy'
p2154
sS'Rent'
p2155
S'6,666'
p2156
sa(dp2157
S'City'
p2158
S'Bangalore'
p2159
sS'Name'
p2160
S'Anupama'
p2161
sg37
S'http://classifieds.sulekha.com/bangalore/roommates/roommates/clad.aspx?cid=4479037'
p2162
sS'Gender'
p2163
S'Female'
p2164
sS'Rent'
p2165
S'4,300'
p2166
sS'Landmark'
p2167
S'Friends Restaurant'
p2168
sS'Location'
p2169
S'BTM Layout'
p2170
sg12
S'Feb 10, 2010'
p2171
sS'Type'
p2172
S'Sharing Basis'
p2173
sg425
S"I am staying in a 3BHK in btm 1st stage. The house is in 1st cross. My 2 roommates have left so i'm looking for 2 girls to share the house. The house is very big and furnished with TV, fridge, washing machine, broadband internet. Preferably vegetarian. "
p2174
sa(dp2175
S'City'
p2176
S'Bangalore'
p2177
sS'Name'
p2178
S'Deblina'
p2179
sg37
S'http://classifieds.sulekha.com/bangalore/roommates/roommates/clad.aspx?cid=4478291'
p2180
sS'Gender'
p2181
S'Female'
p2182
sS'Landmark'
p2183
S'Near Sony world'
p2184
sS'Location'
p2185
S'Ejipura'
p2186
sg12
S'Feb 10, 2010'
p2187
sS'Type'
p2188
S'Sharing basis'
p2189
sS'Rent'
p2190
S'2,000'
p2191
sa(dp2192
S'City'
p2193
S'Bangalore'
p2194
sS'Name'
p2195
S'JENNIFER'
p2196
sg37
S'http://classifieds.sulekha.com/bangalore/roommates/roommates/clad.aspx?cid=4478009'
p2197
sS'Gender'
p2198
S'Female'
p2199
sS'Landmark'
p2200
S'Barista, Chungs Restaurant'
p2201
sS'Location'
p2202
S'Kalyan Nagar'
p2203
sg12
S'Feb 10, 2010'
p2204
sS'Type'
p2205
S'Sharing basis'
p2206
sS'Rent'
p2207
S'2,500'
p2208
sa(dp2209
S'City'
p2210
S'Bangalore'
p2211
sS'Name'
p2212
S'Barani Chitra'
p2213
sg37
S'http://classifieds.sulekha.com/bangalore/roommates/roommates/clad.aspx?cid=4477995'
p2214
sS'Gender'
p2215
S'Female'
p2216
sS'Location'
p2217
S'Basavanagar'
p2218
sg12
S'Feb 10, 2010'
p2219
sS'Type'
p2220
S'Sharing Basis'
p2221
sS'Rent'
p2222
S'4,500'
p2223
sa(dp2224
S'City'
p2225
S'Bangalore'
p2226
sS'Name'
p2227
S'Guest'
p2228
sg37
S'http://classifieds.sulekha.com/bangalore/roommates/roommates/clad.aspx?cid=4478867'
p2229
sS'Gender'
p2230
S'Female'
p2231
sS'Location'
p2232
S'Marathahalli'
p2233
sg12
S'Feb 10, 2010'
p2234
sS'Type'
p2235
S'Sharing basis'
p2236
sS'Rent'
p2237
S'3,000'
p2238
sa(dp2239
S'City'
p2240
S'Bangalore'
p2241
sS'Name'
p2242
S'Sandesh'
p2243
sg37
S'http://classifieds.sulekha.com/bangalore/roommates/roommates/clad.aspx?cid=4476657'
p2244
sS'Gender'
p2245
S'Male'
p2246
sS'Landmark'
p2247
S'Bata showroom'
p2248
sS'Location'
p2249
S'New Tippasandra'
p2250
sg12
S'Feb 09, 2010'
p2251
sS'Type'
p2252
S'Sharing Basis'
p2253
sS'Rent'
p2254
S'11,500'
p2255
sa(dp2256
S'City'
p2257
S'Bangalore'
p2258
sS'Name'
p2259
S'G'
p2260
sg37
S'http://classifieds.sulekha.com/bangalore/roommates/roommates/clad.aspx?cid=4476331'
p2261
sS'Gender'
p2262
S'Female'
p2263
sS'Landmark'
p2264
S'near Spencer'
p2265
sS'Location'
p2266
S'Sarjapur'
p2267
sg12
S'Feb 09, 2010'
p2268
sS'Type'
p2269
S'Single occupancy'
p2270
sS'Rent'
p2271
S'5,250'
p2272
sa(dp2273
S'City'
p2274
S'Bangalore'
p2275
sS'Name'
p2276
S'Divu'
p2277
sg37
S'http://classifieds.sulekha.com/bangalore/roommates/roommates/clad.aspx?cid=4474708'
p2278
sS'Gender'
p2279
S'Female'
p2280
sS'Landmark'
p2281
S'Bagmane Tech park, DRDO'
p2282
sS'Location'
p2283
S'C V Raman Nagar'
p2284
sg12
S'Feb 09, 2010'
p2285
sS'Type'
p2286
S'Single occupancy'
p2287
sS'Rent'
p2288
S'6,000'
p2289
sa(dp2290
S'City'
p2291
S'Bangalore'
p2292
sS'Name'
p2293
S'Vinit Malik'
p2294
sg37
S'http://classifieds.sulekha.com/bangalore/roommates/roommates/clad.aspx?cid=4474602'
p2295
sS'Gender'
p2296
S'Male'
p2297
sS'Rent'
p2298
S'4,500'
p2299
sS'Location'
p2300
S'GM Palya'
p2301
sg12
S'Feb 09, 2010'
p2302
sS'Type'
p2303
S'Sharing Basis'
p2304
sg425
S'I have a 2 BHK Flat, Semi Furnished , 0 floor, at GM PALYA with all modern amenities i am thinking to share with another person.'
p2305
sa(dp2306
S'City'
p2307
S'Bangalore'
p2308
sS'Name'
p2309
S'Joanita Bora'
p2310
sg37
S'http://classifieds.sulekha.com/bangalore/roommates/roommates/clad.aspx?cid=4474512'
p2311
sS'Gender'
p2312
S'Female'
p2313
sS'Rent'
p2314
S'4,000'
p2315
sS'Landmark'
p2316
S'Fabmall'
p2317
sS'Location'
p2318
S'Indira Nagar'
p2319
sg12
S'Feb 09, 2010'
p2320
sS'Type'
p2321
S'Sharing Basis'
p2322
sg425
S'A three-bhk flat is available on sharing basis for immediate occupancy. All the amenities available including cook, maid, internet, tv, fridge, geysers, wardrobes and cot. twenty four-hours water and security. Walkable distance from bus top, situated right on main road on New Thippasandra. Market located nearby for all requirements. Total cost per head including maintenance, rent, and other expenses (cook, maid, electricity, internet, cable and groceries) six thousand to six thousand five hundred per head maximum. Interested people please contact asap. Females only. People currently staying are north indians. All the rooms have attached bathrooms.'
p2323
sa(dp2324
S'City'
p2325
S'Bangalore'
p2326
sS'Name'
p2327
S'Jaimon'
p2328
sg37
S'http://classifieds.sulekha.com/bangalore/roommates/roommates/clad.aspx?cid=4474385'
p2329
sS'Gender'
p2330
S'Male'
p2331
sS'Location'
p2332
S'Others'
p2333
sg12
S'Feb 09, 2010'
p2334
sS'Type'
p2335
S'Single occupancy'
p2336
sS'Rent'
p2337
S'5,000'
p2338
sa(dp2339
S'City'
p2340
S'Bangalore'
p2341
sS'Name'
p2342
S'Rashmita'
p2343
sg37
S'http://classifieds.sulekha.com/bangalore/roommates/roommates/clad.aspx?cid=4473990'
p2344
sS'Gender'
p2345
S'Female'
p2346
sS'Location'
p2347
S'Kundalahalli'
p2348
sg12
S'Feb 09, 2010'
p2349
sS'Type'
p2350
S'Sharing Basis'
p2351
sS'Rent'
p2352
S'5,000'
p2353
sa(dp2354
S'City'
p2355
S'Bangalore'
p2356
sS'Name'
p2357
S'Rajesh'
p2358
sg37
S'http://classifieds.sulekha.com/bangalore/roommates/roommates/clad.aspx?cid=4473386'
p2359
sS'Gender'
p2360
S'Male'
p2361
sS'Rent'
p2362
S'3,000'
p2363
sS'Landmark'
p2364
S'Near Forum'
p2365
sS'Location'
p2366
S'Koramangala'
p2367
sg12
S'Feb 08, 2010'
p2368
sS'Type'
p2369
S'Sharing Basis'
p2370
sg425
S'HiI am looking for professionals to share a two bedroom house which is near forum.2BHK Geyser TV available. Rent 3000  water and elec charges.contact Rajesh orSavan '
p2371
sa(dp2372
S'City'
p2373
S'Bangalore'
p2374
sS'Name'
p2375
S'Vartikakhandelwal'
p2376
sg37
S'http://classifieds.sulekha.com/bangalore/roommates/roommates/clad.aspx?cid=4471607'
p2377
sS'Gender'
p2378
S'Female'
p2379
sS'Location'
p2380
S'Airport Road'
p2381
sg12
S'Feb 08, 2010'
p2382
sS'Type'
p2383
S'Sharing basis'
p2384
sS'Rent'
p2385
S'3,500'
p2386
sa(dp2387
S'City'
p2388
S'Bangalore'
p2389
sS'Name'
p2390
S'Bhavin K Patel'
p2391
sg37
S'http://classifieds.sulekha.com/bangalore/roommates/roommates/clad.aspx?cid=4470930'
p2392
sS'Gender'
p2393
S'Male'
p2394
sS'Landmark'
p2395
S'Near BDA Complex'
p2396
sS'Location'
p2397
S'HSR Layout'
p2398
sg12
S'Feb 08, 2010'
p2399
sS'Type'
p2400
S'Sharing Basis'
p2401
sS'Rent'
p2402
S'4,000'
p2403
sa(dp2404
S'City'
p2405
S'Bangalore'
p2406
sS'Name'
p2407
S'Rakshak'
p2408
sg37
S'http://classifieds.sulekha.com/bangalore/roommates/roommates/clad.aspx?cid=4470748'
p2409
sS'Gender'
p2410
S'Male'
p2411
sS'Location'
p2412
S'Bannerghatta Road'
p2413
sg12
S'Feb 08, 2010'
p2414
sS'Type'
p2415
S'Sharing Basis'
p2416
sS'Rent'
p2417
S'7,600'
p2418
sa(dp2419
S'City'
p2420
S'Bangalore'
p2421
sS'Name'
p2422
S'Jayanthi'
p2423
sg37
S'http://classifieds.sulekha.com/bangalore/roommates/roommates/clad.aspx?cid=4462127'
p2424
sS'Gender'
p2425
S'Female'
p2426
sS'Rent'
p2427
S'5,750'
p2428
sS'Location'
p2429
S'BEL Road'
p2430
sg12
S'Feb 08, 2010'
p2431
sS'Type'
p2432
S'Sharing Basis'
p2433
sg425
S'I Have 2 BHK House with all modern amenities i am thinking to share with 1 Female who are interested can contact '
p2434
sa(dp2435
S'City'
p2436
S'Bangalore'
p2437
sS'Name'
p2438
S'Deeptisehgal'
p2439
sg37
S'http://classifieds.sulekha.com/bangalore/roommates/roommates/clad.aspx?cid=4470210'
p2440
sS'Gender'
p2441
S'Female'
p2442
sS'Landmark'
p2443
S'Cosmos Mall'
p2444
sS'Location'
p2445
S'AECS Layout'
p2446
sg12
S'Feb 08, 2010'
p2447
sS'Type'
p2448
S'Single occupancy'
p2449
sS'Rent'
p2450
S'6,000'
p2451
sa(dp2452
S'City'
p2453
S'Bangalore'
p2454
sS'Name'
p2455
S'Vivekjabalpur'
p2456
sg37
S'http://classifieds.sulekha.com/bangalore/roommates/roommates/clad.aspx?cid=4469762'
p2457
sS'Gender'
p2458
S'Male'
p2459
sS'Landmark'
p2460
S'back side of Nilgiri'
p2461
sS'Location'
p2462
S'BTM 2nd Stage'
p2463
sg12
S'Feb 08, 2010'
p2464
sS'Type'
p2465
S'Sharing Basis'
p2466
sS'Rent'
p2467
S'2,000'
p2468
sa(dp2469
S'City'
p2470
S'Bangalore'
p2471
sS'Name'
p2472
S'Sujatha Kabali'
p2473
sg37
S'http://classifieds.sulekha.com/bangalore/roommates/roommates/clad.aspx?cid=4472414'
p2474
sS'Gender'
p2475
S'Female'
p2476
sS'Landmark'
p2477
S'Balaji Temple, Kundanhalli'
p2478
sS'Location'
p2479
S'Kundalahalli'
p2480
sg12
S'Feb 08, 2010'
p2481
sS'Type'
p2482
S'Single occupancy'
p2483
sS'Rent'
p2484
S'4,500'
p2485
sa(dp2486
S'City'
p2487
S'Bangalore'
p2488
sS'Name'
p2489
S'CHHAYA'
p2490
sg37
S'http://classifieds.sulekha.com/bangalore/roommates/roommates/clad.aspx?cid=4469152'
p2491
sS'Gender'
p2492
S'Female'
p2493
sS'Rent'
p2494
S'4,000'
p2495
sS'Landmark'
p2496
S'MICO Layout bus stop'
p2497
sS'Location'
p2498
S'BTM 1st Stage'
p2499
sg12
S'Feb 07, 2010'
p2500
sS'Type'
p2501
S'Sharing Basis'
p2502
sg425
S'hey. we have rented a flat in BTM LAyout 1st Stage and one flat mate has left. so if anyones interested in staying in a flat( 3 BHK) on sharing a room with a girl. huge ( semifurnished ) Rent would be 3000 + electricity n maid and water bill ( comes approximately around 4000)'
p2503
sa(dp2504
S'City'
p2505
S'Bangalore'
p2506
sS'Name'
p2507
S'Sabarish'
p2508
sg37
S'http://classifieds.sulekha.com/bangalore/roommates/roommates/clad.aspx?cid=4468942'
p2509
sS'Gender'
p2510
S'Male'
p2511
sS'Location'
p2512
S'BTM 1st Stage'
p2513
sg12
S'Feb 07, 2010'
p2514
sS'Type'
p2515
S'Sharing Basis'
p2516
sS'Rent'
p2517
S'10,000'
p2518
sa(dp2519
S'City'
p2520
S'Bangalore'
p2521
sS'Name'
p2522
S'Waheed Aman'
p2523
sg37
S'http://classifieds.sulekha.com/bangalore/roommates/roommates/clad.aspx?cid=4468372'
p2524
sS'Gender'
p2525
S'Male'
p2526
sS'Landmark'
p2527
S'HAL Airport'
p2528
sS'Location'
p2529
S'Airport Road'
p2530
sg12
S'Feb 07, 2010'
p2531
sS'Type'
p2532
S'Single occupancy'
p2533
sS'Rent'
p2534
S'6,000'
p2535
sa(dp2536
S'City'
p2537
S'Bangalore'
p2538
sS'Name'
p2539
S'Shubh'
p2540
sg37
S'http://classifieds.sulekha.com/bangalore/roommates/roommates/clad.aspx?cid=4468204'
p2541
sS'Gender'
p2542
S'Male'
p2543
sS'Landmark'
p2544
S'Kundanhalli gate'
p2545
sS'Location'
p2546
S'Kundalahalli'
p2547
sg12
S'Feb 07, 2010'
p2548
sS'Type'
p2549
S'Single occupancy'
p2550
sS'Rent'
p2551
S'4,000'
p2552
sa(dp2553
S'City'
p2554
S'Bangalore'
p2555
sS'Name'
p2556
S'Devanshu'
p2557
sg37
S'http://classifieds.sulekha.com/bangalore/roommates/roommates/clad.aspx?cid=4466459'
p2558
sS'Gender'
p2559
S'Male'
p2560
sS'Landmark'
p2561
S'Chalaghatta'
p2562
sS'Location'
p2563
S'Airport Road'
p2564
sg12
S'Feb 06, 2010'
p2565
sS'Type'
p2566
S'Single occupancy'
p2567
sS'Rent'
p2568
S'6,300'
p2569
sa(dp2570
S'City'
p2571
S'Bangalore'
p2572
sS'Name'
p2573
S'Panikkar'
p2574
sg37
S'http://classifieds.sulekha.com/bangalore/roommates/roommates/clad.aspx?cid=4465975'
p2575
sS'Gender'
p2576
S'Female'
p2577
sS'Location'
p2578
S'Indira Nagar'
p2579
sg12
S'Feb 06, 2010'
p2580
sS'Type'
p2581
S'Sharing Basis'
p2582
sS'Rent'
p2583
S'3,500'
p2584
sa(dp2585
S'City'
p2586
S'Bangalore'
p2587
sS'Name'
p2588
S'Debby'
p2589
sg37
S'http://classifieds.sulekha.com/bangalore/roommates/roommates/clad.aspx?cid=4465558'
p2590
sS'Gender'
p2591
S'Female'
p2592
sS'Location'
p2593
S'Koramangala'
p2594
sg12
S'Feb 06, 2010'
p2595
sS'Type'
p2596
S'Sharing Basis'
p2597
sS'Rent'
p2598
S'2,551'
p2599
sa(dp2600
S'City'
p2601
S'Bangalore'
p2602
sS'Name'
p2603
S'Bipinpankhania'
p2604
sg37
S'http://classifieds.sulekha.com/bangalore/roommates/roommates/clad.aspx?cid=4466779'
p2605
sS'Gender'
p2606
S'Male'
p2607
sS'Location'
p2608
S'BTM 2nd Stage'
p2609
sg12
S'Feb 06, 2010'
p2610
sS'Type'
p2611
S'Sharing basis'
p2612
sS'Rent'
p2613
S'4,000'
p2614
sa(dp2615
S'City'
p2616
S'Bangalore'
p2617
sS'Name'
p2618
S'Pyaaripri'
p2619
sg37
S'http://classifieds.sulekha.com/bangalore/roommates/roommates/clad.aspx?cid=4464688'
p2620
sS'Gender'
p2621
S'Female'
p2622
sS'Rent'
p2623
S'4,000'
p2624
sS'Landmark'
p2625
S'BDA Complex'
p2626
sS'Location'
p2627
S'Indira Nagar'
p2628
sg12
S'Feb 05, 2010'
p2629
sS'Type'
p2630
S'Single occupancy'
p2631
sg425
S'We have a 2 BHK near fully furnished with Gyser, TV, Kitchen Set-up, Internet, Maid etc. It is very close to the main road, near the BDA complex. One room available for one person or two friends can occupy them together. Available immediately.'
p2632
sa(dp2633
S'City'
p2634
S'Bangalore'
p2635
sS'Name'
p2636
S'Raju'
p2637
sg37
S'http://classifieds.sulekha.com/bangalore/roommates/roommates/clad.aspx?cid=4464107'
p2638
sS'Gender'
p2639
S'Male'
p2640
sS'Location'
p2641
S'BTM 2nd Stage'
p2642
sg12
S'Feb 05, 2010'
p2643
sS'Type'
p2644
S'Single occupancy'
p2645
sS'Rent'
p2646
S'4,500'
p2647
sa(dp2648
S'City'
p2649
S'Bangalore'
p2650
sS'Name'
p2651
S'Jagdish'
p2652
sg37
S'http://classifieds.sulekha.com/bangalore/roommates/roommates/clad.aspx?cid=4463643'
p2653
sS'Gender'
p2654
S'Male'
p2655
sS'Rent'
p2656
S'11,000'
p2657
sS'Location'
p2658
S'BTM Layout'
p2659
sg12
S'Feb 05, 2010'
p2660
sS'Type'
p2661
S'Sharing Basis'
p2662
sg425
S'Looking for people who are willing stay in a flatindividual house on sharing basis. We are 4 people staying as of now and looking 2 more people to join us. It will work out in lesser expense and more comfort as there is 24 hour housekeeper facility. A very neat clean house with geyser and wi-fi internet facility. House located in the prime area near to Forum mall and BTM petrol bunk. '
p2663
sa(dp2664
S'City'
p2665
S'Bangalore'
p2666
sS'Name'
p2667
S'Amitabhaghosh'
p2668
sg37
S'http://classifieds.sulekha.com/bangalore/roommates/roommates/clad.aspx?cid=4463357'
p2669
sS'Gender'
p2670
S'Male'
p2671
sS'Landmark'
p2672
S'Opposite Federal Bank Atm'
p2673
sS'Location'
p2674
S'Kaggadasapura'
p2675
sg12
S'Feb 05, 2010'
p2676
sS'Type'
p2677
S'Single occupancy'
p2678
sS'Rent'
p2679
S'3,840'
p2680
sa(dp2681
S'City'
p2682
S'Bangalore'
p2683
sS'Name'
p2684
S'Mukul Gupta'
p2685
sg37
S'http://classifieds.sulekha.com/bangalore/roommates/roommates/clad.aspx?cid=4463341'
p2686
sS'Gender'
p2687
S'Male'
p2688
sS'Landmark'
p2689
S'Koramangala sixth Block'
p2690
sS'Location'
p2691
S'Koramangala'
p2692
sg12
S'Feb 05, 2010'
p2693
sS'Type'
p2694
S'Single occupancy'
p2695
sS'Rent'
p2696
S'5,000'
p2697
sa(dp2698
S'City'
p2699
S'Bangalore'
p2700
sS'Name'
p2701
S'Megha'
p2702
sg37
S'http://classifieds.sulekha.com/bangalore/roommates/roommates/clad.aspx?cid=4463228'
p2703
sS'Gender'
p2704
S'Female'
p2705
sS'Location'
p2706
S'JeevanBhima Nagar'
p2707
sg12
S'Feb 05, 2010'
p2708
sS'Type'
p2709
S'Sharing Basis'
p2710
sS'Rent'
p2711
S'4,750'
p2712
sa(dp2713
S'City'
p2714
S'Bangalore'
p2715
sS'Name'
p2716
S'Badal'
p2717
sg37
S'http://classifieds.sulekha.com/bangalore/roommates/roommates/clad.aspx?cid=4465198'
p2718
sS'Gender'
p2719
S'Male'
p2720
sS'Location'
p2721
S'Jayanagar'
p2722
sg12
S'Feb 05, 2010'
p2723
sS'Type'
p2724
S'Sharing basis'
p2725
sS'Rent'
p2726
S'7,000'
p2727
sa(dp2728
S'City'
p2729
S'Bangalore'
p2730
sS'Name'
p2731
S'Snowwhite'
p2732
sg37
S'http://classifieds.sulekha.com/bangalore/roommates/roommates/clad.aspx?cid=4461663'
p2733
sS'Gender'
p2734
S'Female'
p2735
sS'Rent'
p2736
S'3,500'
p2737
sS'Landmark'
p2738
S'Manipal Tower'
p2739
sS'Location'
p2740
S'Airport Road'
p2741
sg12
S'Feb 04, 2010'
p2742
sS'Type'
p2743
S'Sharing Basis'
p2744
sg425
S'I have 2bhk flat occupied by 3 people as of now, wanted a room mate to share a room. TV, geyser, cook, power back up is there.'
p2745
sa(dp2746
S'City'
p2747
S'Bangalore'
p2748
sS'Name'
p2749
S'Rhea'
p2750
sg37
S'http://classifieds.sulekha.com/bangalore/roommates/roommates/clad.aspx?cid=4461642'
p2751
sS'Gender'
p2752
S'Female'
p2753
sS'Landmark'
p2754
S'Garuda mall/MG road'
p2755
sS'Location'
p2756
S'Richmond Road'
p2757
sg12
S'Feb 04, 2010'
p2758
sS'Type'
p2759
S'Sharing Basis'
p2760
sS'Rent'
p2761
S'6,500'
p2762
sa(dp2763
S'City'
p2764
S'Bangalore'
p2765
sS'Name'
p2766
S'Prachi'
p2767
sg37
S'http://classifieds.sulekha.com/bangalore/roommates/roommates/clad.aspx?cid=4461640'
p2768
sS'Gender'
p2769
S'Female'
p2770
sS'Landmark'
p2771
S'DARE/DRDO'
p2772
sS'Location'
p2773
S'Kaggadasapura'
p2774
sg12
S'Feb 04, 2010'
p2775
sS'Type'
p2776
S'Single occupancy'
p2777
sS'Rent'
p2778
S'4,333'
p2779
sa(dp2780
S'City'
p2781
S'Bangalore'
p2782
sS'Name'
p2783
S'Uvw'
p2784
sg37
S'http://classifieds.sulekha.com/bangalore/roommates/roommates/clad.aspx?cid=4461034'
p2785
sS'Gender'
p2786
S'Female'
p2787
sS'Landmark'
p2788
S'Jeevan Bhima Nagar water tank'
p2789
sS'Location'
p2790
S'JeevanBhima Nagar'
p2791
sg12
S'Feb 04, 2010'
p2792
sS'Type'
p2793
S'Sharing Basis'
p2794
sS'Rent'
p2795
S'4,750'
p2796
sa(dp2797
S'City'
p2798
S'Bangalore'
p2799
sS'Name'
p2800
S'Amrutay'
p2801
sg37
S'http://classifieds.sulekha.com/bangalore/roommates/roommates/clad.aspx?cid=4460276'
p2802
sS'Gender'
p2803
S'Female'
p2804
sS'Rent'
p2805
S'4,000'
p2806
sS'Location'
p2807
S'Electronic City'
p2808
sg12
S'Feb 04, 2010'
p2809
sS'Type'
p2810
S'Sharing Basis'
p2811
sg425
S'hi this is amruta m workin in HP i wanted a female roommate .. so if any interested plz contact me .. '
p2812
sa(dp2813
S'City'
p2814
S'Bangalore'
p2815
sS'Name'
p2816
S'Mangesh'
p2817
sg37
S'http://classifieds.sulekha.com/bangalore/roommates/roommates/clad.aspx?cid=4460139'
p2818
sS'Gender'
p2819
S'Male'
p2820
sS'Rent'
p2821
S'3,500'
p2822
sS'Location'
p2823
S'AECS Layout'
p2824
sg12
S'Feb 04, 2010'
p2825
sS'Type'
p2826
S'Sharing Basis'
p2827
sg425
S'We are looking for a roommate who is ready to stay on sharing basis.Currently people staying in the flat are from Maharashtra. '
p2828
sa(dp2829
S'City'
p2830
S'Bangalore'
p2831
sS'Name'
p2832
S'Dipkumarm'
p2833
sg37
S'http://classifieds.sulekha.com/bangalore/roommates/roommates/clad.aspx?cid=4460071'
p2834
sS'Gender'
p2835
S'Male'
p2836
sS'Rent'
p2837
S'4,000'
p2838
sS'Location'
p2839
S'Koramangala 4th Block'
p2840
sg12
S'Feb 04, 2010'
p2841
sS'Type'
p2842
S'Sharing Basis'
p2843
sg425
S' Located in the prime location with 24 hours water supply. Currently we are 2 people staying in 3 bed room flats and would need 1 or 2 more persons.Rooms are big. Please contact for further information.'
p2844
sa(dp2845
S'City'
p2846
S'Bangalore'
p2847
sS'Name'
p2848
S'Sathya'
p2849
sg37
S'http://classifieds.sulekha.com/bangalore/roommates/roommates/clad.aspx?cid=4458883'
p2850
sS'Gender'
p2851
S'Female'
p2852
sS'Rent'
p2853
S'6,000'
p2854
sS'Landmark'
p2855
S'Madivale lake'
p2856
sS'Location'
p2857
S'BTM 2nd Stage'
p2858
sg12
S'Feb 04, 2010'
p2859
sS'Type'
p2860
S'Sharing Basis'
p2861
sg425
S'I am looking for a roommate for a 2BHK house located at BTM 2nd stage near madivala lake. The house has got tv, sofa and all kitchen utentils required for cooking. Currently only am staying. Those who are interested please contact me'
p2862
sa(dp2863
S'City'
p2864
S'Bangalore'
p2865
sS'Name'
p2866
S'Rahul'
p2867
sg37
S'http://classifieds.sulekha.com/bangalore/roommates/roommates/clad.aspx?cid=4459824'
p2868
sS'Gender'
p2869
S'Male'
p2870
sS'Landmark'
p2871
S'Silk Board'
p2872
sS'Location'
p2873
S'Others'
p2874
sg12
S'Feb 04, 2010'
p2875
sS'Type'
p2876
S'Sharing basis'
p2877
sS'Rent'
p2878
S'3,000'
p2879
sa(dp2880
S'City'
p2881
S'Bangalore'
p2882
sS'Name'
p2883
S'Pragya'
p2884
sg37
S'http://classifieds.sulekha.com/bangalore/roommates/roommates/clad.aspx?cid=4459832'
p2885
sS'Gender'
p2886
S'Female'
p2887
sS'Location'
p2888
S'Marathahalli'
p2889
sg12
S'Feb 04, 2010'
p2890
sS'Type'
p2891
S'Sharing basis'
p2892
sS'Rent'
p2893
S'3,600'
p2894
sa(dp2895
S'City'
p2896
S'Bangalore'
p2897
sS'Name'
p2898
S'Priyankagaikwad'
p2899
sg37
S'http://classifieds.sulekha.com/bangalore/roommates/roommates/clad.aspx?cid=4459070'
p2900
sS'Gender'
p2901
S'Female'
p2902
sS'Location'
p2903
S'Marathahalli'
p2904
sg12
S'Feb 04, 2010'
p2905
sS'Type'
p2906
S'Sharing basis'
p2907
sS'Rent'
p2908
S'5,000'
p2909
sa(dp2910
S'City'
p2911
S'Bangalore'
p2912
sS'Name'
p2913
S'Raulcheng'
p2914
sg37
S'http://classifieds.sulekha.com/bangalore/roommates/roommates/clad.aspx?cid=4458366'
p2915
sS'Gender'
p2916
S'Female'
p2917
sS'Landmark'
p2918
S'Coles Road'
p2919
sS'Location'
p2920
S'Coles Park'
p2921
sg12
S'Feb 03, 2010'
p2922
sS'Type'
p2923
S'Sharing Basis'
p2924
sS'Rent'
p2925
S'8,000'
p2926
sa(dp2927
S'City'
p2928
S'Bangalore'
p2929
sS'Name'
p2930
S'Suchitra'
p2931
sg37
S'http://classifieds.sulekha.com/bangalore/roommates/roommates/clad.aspx?cid=4458069'
p2932
sS'Gender'
p2933
S'Female'
p2934
sS'Rent'
p2935
S'6,000'
p2936
sS'Location'
p2937
S'Agara'
p2938
sg12
S'Feb 03, 2010'
p2939
sS'Type'
p2940
S'Sharing Basis'
p2941
sg425
S' 2 Bedroomsboth have attached balconies 2 Bathrooms one attached and one commonboth with geysersHallDining RoomKitchen and 3 Balconies. The available bedroom has its own balcony. Both the bedrooms have Cot and Mattress. All wood work done - cupboards in both bed room and kitchen. Fridge Sofa set and Dining table available. Swimming pool Gym Badminton court and Club house also available. Rent Rs 6000 per personinclusive of maintenance Deposit 60000equally shared 30k per person Monthly expenses like ElectricityCableetc to be shared '
p2942
sa(dp2943
S'City'
p2944
S'Bangalore'
p2945
sS'Name'
p2946
S'Sunaina'
p2947
sg37
S'http://classifieds.sulekha.com/bangalore/roommates/roommates/clad.aspx?cid=4458067'
p2948
sS'Gender'
p2949
S'Female'
p2950
sS'Rent'
p2951
S'3,000'
p2952
sS'Location'
p2953
S'Koramangala'
p2954
sg12
S'Feb 03, 2010'
p2955
sS'Type'
p2956
S'Sharing Basis'
p2957
sg425
S'Need one female room mate for my room in PG its actually a separate room attached bathroom with geyser in a bunglaw in 5th Block Koramangla opposite empire hotel Separate wardobestable and chairs provided No food is provided in PG .though we can have tiffin facility and also lots of eateries are available nearby. Rent 2500 water electricity charges extra approx 3K mostly less than that Please contact me if interested Sunaina.Pl Note Room is available '
p2958
sa(dp2959
S'City'
p2960
S'Bangalore'
p2961
sS'Name'
p2962
S'Yogeshsharma'
p2963
sg37
S'http://classifieds.sulekha.com/bangalore/roommates/roommates/clad.aspx?cid=4457879'
p2964
sS'Gender'
p2965
S'Male'
p2966
sS'Rent'
p2967
S'3,200'
p2968
sS'Landmark'
p2969
S'uddupi garden'
p2970
sS'Location'
p2971
S'BTM 2nd Stage'
p2972
sg12
S'Feb 03, 2010'
p2973
sS'Type'
p2974
S'Sharing Basis'
p2975
sg425
S'this is yogesh i m having a 3 bhk flat(uddupi garden btm) in which three people are staying rite nw. its furnished flat having cupboards n washing machine as wel interested person may contact. preferably north indian '
p2976
sa(dp2977
S'City'
p2978
S'Bangalore'
p2979
sS'Name'
p2980
S'Neha'
p2981
sg37
S'http://classifieds.sulekha.com/bangalore/roommates/roommates/clad.aspx?cid=4457558'
p2982
sS'Gender'
p2983
S'Female'
p2984
sS'Landmark'
p2985
S'Behind Koramangla Bus Depot'
p2986
sS'Location'
p2987
S'Koramangala'
p2988
sg12
S'Feb 03, 2010'
p2989
sS'Type'
p2990
S'Sharing Basis'
p2991
sS'Rent'
p2992
S'4,188'
p2993
sa(dp2994
S'City'
p2995
S'Bangalore'
p2996
sS'Name'
p2997
S'Nancy'
p2998
sg37
S'http://classifieds.sulekha.com/bangalore/roommates/roommates/clad.aspx?cid=4457284'
p2999
sS'Gender'
p3000
S'Female'
p3001
sS'Landmark'
p3002
S'Agara, BDA complex'
p3003
sS'Location'
p3004
S'HSR Layout'
p3005
sg12
S'Feb 03, 2010'
p3006
sS'Type'
p3007
S'Sharing Basis'
p3008
sS'Rent'
p3009
S'5,000'
p3010
sa(dp3011
S'City'
p3012
S'Bangalore'
p3013
sS'Name'
p3014
S'Supriya'
p3015
sg37
S'http://classifieds.sulekha.com/bangalore/roommates/roommates/clad.aspx?cid=4453835'
p3016
sS'Gender'
p3017
S'Female'
p3018
sS'Rent'
p3019
S'6,000'
p3020
sS'Location'
p3021
S'Airport Road'
p3022
sg12
S'Feb 02, 2010'
p3023
sS'Type'
p3024
S'Single occupancy'
p3025
sg425
S'Female flatmate required on single occupancy basis for a furnished very spacious and airy 2 BHK flat in a posh apartment right on the main Airport road, bang opposite Leela Palace. Flat has fully setup kitchen, water purifier, TV and other ammenities. Room will be available from 1st March. '
p3026
sa(dp3027
S'City'
p3028
S'Bangalore'
p3029
sS'Name'
p3030
S'Shanthi'
p3031
sg37
S'http://classifieds.sulekha.com/bangalore/roommates/roommates/clad.aspx?cid=4453650'
p3032
sS'Gender'
p3033
S'Female'
p3034
sS'Landmark'
p3035
S'near wipro'
p3036
sS'Location'
p3037
S'Electronic City'
p3038
sg12
S'Feb 02, 2010'
p3039
sS'Type'
p3040
S'Sharing basis'
p3041
sS'Rent'
p3042
S'2,300'
p3043
sa(dp3044
S'City'
p3045
S'Bangalore'
p3046
sS'Name'
p3047
S'Priyabng'
p3048
sg37
S'http://classifieds.sulekha.com/bangalore/roommates/roommates/clad.aspx?cid=4452207'
p3049
sS'Gender'
p3050
S'Female'
p3051
sS'Landmark'
p3052
S'Outer ring Road, Near MORE'
p3053
sS'Location'
p3054
S'Mahadevapura'
p3055
sg12
S'Feb 02, 2010'
p3056
sS'Type'
p3057
S'Sharing basis'
p3058
sS'Rent'
p3059
S'4,000'
p3060
sa(dp3061
S'City'
p3062
S'Bangalore'
p3063
sS'Name'
p3064
S'Popsmiley'
p3065
sg37
S'http://classifieds.sulekha.com/bangalore/roommates/roommates/clad.aspx?cid=4452998'
p3066
sS'Gender'
p3067
S'Male'
p3068
sS'Location'
p3069
S'Airport Road'
p3070
sg12
S'Feb 02, 2010'
p3071
sS'Type'
p3072
S'Sharing basis'
p3073
sS'Rent'
p3074
S'1,000'
p3075
sa(dp3076
S'City'
p3077
S'Bangalore'
p3078
sS'Name'
p3079
S'Puneet'
p3080
sg37
S'http://classifieds.sulekha.com/bangalore/roommates/roommates/clad.aspx?cid=4449905'
p3081
sS'Gender'
p3082
S'Male'
p3083
sS'Landmark'
p3084
S'Nea Sony world junction'
p3085
sS'Location'
p3086
S'Koramangala'
p3087
sg12
S'Feb 01, 2010'
p3088
sS'Type'
p3089
S'Single occupancy'
p3090
sS'Rent'
p3091
S'6,000'
p3092
sa(dp3093
S'City'
p3094
S'Bangalore'
p3095
sS'Name'
p3096
S'Christinaabraham'
p3097
sg37
S'http://classifieds.sulekha.com/bangalore/roommates/roommates/clad.aspx?cid=4449893'
p3098
sS'Gender'
p3099
S'Female'
p3100
sS'Rent'
p3101
S'3,000'
p3102
sS'Location'
p3103
S'Koramangala'
p3104
sg12
S'Feb 01, 2010'
p3105
sS'Type'
p3106
S'Sharing Basis'
p3107
sg425
S'We are looking for a girl to share our house.The details are listed below..1 Its a 2 BHK ground floorhouse.4 girls stay and share the same. The owners lives on 1st floor.The home is very close to 80 feet road.3 Departmental stores MallsCafPark at one-min walk from the house.The shared expenditure per month comes to 3500- per head this is including the rent electricity water maid groceries etc.5 Deposit Rs 23750 for the house Rs.6275 for TV fridge gas etc.6 Well furnished kitchen with utensils gas and cooking range. Cook is available. She also cleans the house utensils and washes the clothes.The house is very safe- having offices opposite .Working girls are staying at this place from last 10 years.9 Wi-Fi net connection and gas connection is available.Whole amount of deposit is refundable and landlord will provide rental agreement.Cot and mattress are available. Person just need to walk with a suitcase.No time restriction from landlordno hassle for paying electricity '
p3108
sa(dp3109
S'City'
p3110
S'Bangalore'
p3111
sS'Name'
p3112
S'Pooja'
p3113
sg37
S'http://classifieds.sulekha.com/bangalore/roommates/roommates/clad.aspx?cid=4449879'
p3114
sS'Gender'
p3115
S'Female'
p3116
sS'Rent'
p3117
S'4,500'
p3118
sS'Location'
p3119
S'Sarjapur Road'
p3120
sg12
S'Feb 01, 2010'
p3121
sS'Type'
p3122
S'Sharing Basis'
p3123
sg425
S'We are looking for 2 working girls who are ready to share a fully furnished 2 BHK flat in Suncity apartments near Bellandur Junction. Alcohol Smoking and boys are strictly prohibited in the flat. Contact on the given number asap. '
p3124
sa(dp3125
S'City'
p3126
S'Bangalore'
p3127
sS'Name'
p3128
S'Arungupta'
p3129
sg37
S'http://classifieds.sulekha.com/bangalore/roommates/roommates/clad.aspx?cid=4450213'
p3130
sS'Gender'
p3131
S'Male'
p3132
sS'Location'
p3133
S'Hoodi Circle'
p3134
sg12
S'Feb 01, 2010'
p3135
sS'Type'
p3136
S'Single occupancy'
p3137
sS'Rent'
p3138
S'4,500'
p3139
sa(dp3140
S'City'
p3141
S'Bangalore'
p3142
sS'Name'
p3143
S'Prachiagar'
p3144
sg37
S'http://classifieds.sulekha.com/bangalore/roommates/roommates/clad.aspx?cid=4450606'
p3145
sS'Gender'
p3146
S'Female'
p3147
sS'Location'
p3148
S'Koramangala'
p3149
sg12
S'Feb 01, 2010'
p3150
sS'Type'
p3151
S'Sharing basis'
p3152
sS'Rent'
p3153
S'6,000'
p3154
sa(dp3155
S'City'
p3156
S'Bangalore'
p3157
sS'Name'
p3158
S'Ankit'
p3159
sg37
S'http://classifieds.sulekha.com/bangalore/roommates/roommates/clad.aspx?cid=4446858'
p3160
sS'Gender'
p3161
S'Female'
p3162
sS'Rent'
p3163
S'3,000'
p3164
sS'Location'
p3165
S'HSR Layout'
p3166
sg12
S'Jan 31, 2010'
p3167
sS'Type'
p3168
S'Sharing Basis'
p3169
sg425
S'I have a flat with all modern amenities including, fridge /tv/ microwave/ car/furniture. also have a cook and a maid for daily works. rent is mentioned below and there is no fixed deposit required. anyone interested please do contact. no gender preferences.'
p3170
sa(dp3171
S'City'
p3172
S'Bangalore'
p3173
sS'Name'
p3174
S'Rizwn'
p3175
sg37
S'http://classifieds.sulekha.com/bangalore/roommates/roommates/clad.aspx?cid=4446405'
p3176
sS'Gender'
p3177
S'Male'
p3178
sS'Rent'
p3179
S'4,500'
p3180
sS'Landmark'
p3181
S'purva panorama apartment'
p3182
sS'Location'
p3183
S'Bannerghatta Road'
p3184
sg12
S'Jan 31, 2010'
p3185
sS'Type'
p3186
S'Single occupancy'
p3187
sg425
S'Hi, I am looking for mates to share apartment with me as 2 of my aprartment mates are moving to delhi. Its a 3 bhk apartment on bannergatta road, Purva Panorama, with all basic amenities like gym, swiming pool, park, 24 hr power bach up, parking. And nice sight scenes....Good for some one working in south bangalore, electronic city, near BTM, its on bannergatta road. Contact immediately.'
p3188
sa(dp3189
S'City'
p3190
S'Bangalore'
p3191
sS'Name'
p3192
S'Sakthi'
p3193
sg37
S'http://classifieds.sulekha.com/bangalore/roommates/roommates/clad.aspx?cid=4445657'
p3194
sS'Gender'
p3195
S'Female'
p3196
sS'Rent'
p3197
S'2,000'
p3198
sS'Landmark'
p3199
S'Behind Esteem Mall'
p3200
sS'Location'
p3201
S'Hebbal'
p3202
sg12
S'Jan 31, 2010'
p3203
sS'Type'
p3204
S'Single occupancy'
p3205
sg425
S'Separate room with all facilities. Food provided on request.'
p3206
sa(dp3207
S'City'
p3208
S'Bangalore'
p3209
sS'Name'
p3210
S'Tarunnangia'
p3211
sg37
S'http://classifieds.sulekha.com/bangalore/roommates/roommates/clad.aspx?cid=4445530'
p3212
sS'Gender'
p3213
S'Male'
p3214
sS'Landmark'
p3215
S'TGI Fridays'
p3216
sS'Location'
p3217
S'Indira Nagar'
p3218
sg12
S'Jan 31, 2010'
p3219
sS'Type'
p3220
S'Sharing Basis'
p3221
sS'Rent'
p3222
S'3,000'
p3223
sa(dp3224
S'City'
p3225
S'Bangalore'
p3226
sS'Name'
p3227
S'Sonu'
p3228
sg37
S'http://classifieds.sulekha.com/bangalore/roommates/roommates/clad.aspx?cid=4445361'
p3229
sS'Gender'
p3230
S'Male'
p3231
sS'Rent'
p3232
S'3,000'
p3233
sS'Landmark'
p3234
S'BESIDE IIM BANGALORE'
p3235
sS'Location'
p3236
S'Bilekhallahalli'
p3237
sg12
S'Jan 31, 2010'
p3238
sS'Type'
p3239
S'Sharing Basis'
p3240
sg425
S'Looking for room partner in well furnished 2BHK House with all the facilities 0.1km from bannerghtta main  road and near to honeywell campus.'
p3241
sa(dp3242
g2
(dp3243
g3
(lp3244
I0
aI1
aI2
aI3
aI4
aI5
aI6
aI7
aI8
aI9
aI10
aI11
aI12
aI13
aI14
aI15
aI16
aI17
aI18
aI19
aI20
aI21
aI22
aI23
aI24
aI25
aI26
aI27
aI28
aI29
aI30
aI31
aI32
aI33
aI34
aI35
aI36
aI37
aI38
aI39
aI40
aI41
aI42
aI43
aI44
aI45
aI46
aI47
aI48
aI49
aI50
aI51
aI52
aI53
aI54
aI55
aI56
aI57
aI58
aI59
aI60
aI61
aI62
aI63
aI64
aI65
aI66
aI67
aI68
aI69
aI70
aI71
aI72
aI73
aI74
aI75
aI76
aI77
aI78
aI79
aI80
aI81
aI82
aI83
aI84
aI85
aI86
aI87
aI88
aI89
aI90
aI91
aI92
aI93
aI94
aI95
aI96
aI97
aI98
aI99
aI100
aI101
aI102
aI103
aI104
aI105
aI106
aI107
aI108
aI109
aI110
aI111
aI112
aI113
aI114
aI115
aI116
aI117
aI118
aI119
aI120
aI121
aI122
aI123
aI124
aI125
aI126
aI127
aI128
aI129
aI130
aI131
aI132
aI133
aI134
aI135
aI136
aI137
aI138
aI139
aI140
aI141
aI142
aI143
aI144
aI145
aI146
aI147
aI148
aI149
aI150
aI151
aI152
aI153
aI154
aI155
aI156
aI157
aI158
aI159
aI160
aI161
aI162
aI163
aI164
aI165
aI166
aI167
aI168
aI169
aI170
aI171
aI172
aI173
aI174
aI175
aI176
aI177
aI178
aI179
aI180
aI181
aI182
aI183
aI184
aI185
aI186
aI187
aI188
aI189
aI190
aI191
aI192
aI193
aI194
aI195
aI196
assg4
(dp3245
g1912
(lp3246
I116
asg2343
(lp3247
I142
asg1544
(lp3248
I94
asg278
(lp3249
I17
asg1776
(lp3250
I108
asg1293
(lp3251
I78
asg3211
(lp3252
I195
asg2473
(lp3253
I150
asg1141
(lp3254
I69
asg1465
(lp3255
I89
asg2817
(lp3256
I171
asg988
(lp3257
I60
asg1946
(lp3258
I118
asg231
(lp3259
I14
aI36
asg660
(lp3260
I40
asg2685
(lp3261
I163
asg1310
(lp3262
I79
asg941
(lp3263
I57
asg2077
(lp3264
I126
asg789
(lp3265
I48
asg1039
(lp3266
I63
asg2668
(lp3267
I162
asg1055
(lp3268
I64
asg2574
(lp3269
I156
asg2619
(lp3270
I159
asg3159
(lp3271
I192
asg1340
(lp3272
I81
asg5
(lp3273
I0
aI2
asg628
(lp3274
I38
asg2833
(lp3275
I172
asg2947
(lp3276
I179
asg1562
(lp3277
I95
asg214
(lp3278
I13
asg431
(lp3279
I26
asg971
(lp3280
I59
asg725
(lp3281
I44
asg580
(lp3282
I35
asg510
(lp3283
I31
asg838
(lp3284
I51
asg1435
(lp3285
I87
asg2884
(lp3286
I175
asg2490
(lp3287
I151
asg3175
(lp3288
I193
asg1022
(lp3289
I62
asg2092
(lp3290
I127
asg2328
(lp3291
I141
asg2508
(lp3292
I152
asg923
(lp3293
I56
asg2028
(lp3294
I123
asg363
(lp3295
I22
aI187
asg2652
(lp3296
I161
asg1744
(lp3297
I106
asg148
(lp3298
I9
aI167
asg103
(lp3299
I6
asg446
(lp3300
I27
asg1678
(lp3301
I102
asg412
(lp3302
I25
asg2310
(lp3303
I140
asg1370
(lp3304
I83
asg1512
(lp3305
I92
asg3097
(lp3306
I188
asg312
(lp3307
I19
aI181
asg1072
(lp3308
I65
asg1355
(lp3309
I82
asg3228
(lp3310
I196
asg2196
(lp3311
I133
asg165
(lp3312
I10
aI191
asg1613
(lp3313
I98
asg1192
(lp3314
I72
asg888
(lp3315
I54
asg197
(lp3316
I12
asg773
(lp3317
I47
asg2260
(lp3318
I137
asg2589
(lp3319
I157
asg1276
(lp3320
I77
asg1209
(lp3321
I73
asg1497
(lp3322
I91
asg1712
(lp3323
I104
asg2213
(lp3324
I134
asg643
(lp3325
I39
asg1648
(lp3326
I100
asg2045
(lp3327
I124
asg2294
(lp3328
I139
asg2963
(lp3329
I180
asg378
(lp3330
I23
asg2801
(lp3331
I170
asg1126
(lp3332
I68
asg2784
(lp3333
I169
asg2013
(lp3334
I122
asg1791
(lp3335
I109
asg180
(lp3336
I11
asg69
(lp3337
I4
asg2540
(lp3338
I154
asg2062
(lp3339
I125
asg1005
(lp3340
I61
asg2228
(lp3341
I135
asg346
(lp3342
I21
asg1529
(lp3343
I93
asg1826
(lp3344
I111
asg495
(lp3345
I30
asg1929
(lp3346
I117
asg133
(lp3347
I8
asg480
(lp3348
I29
aI88
asg806
(lp3349
I49
asg2109
(lp3350
I128
asg395
(lp3351
I24
asg2423
(lp3352
I147
asg708
(lp3353
I43
asg2456
(lp3354
I149
asg2931
(lp3355
I178
asg2732
(lp3356
I166
asg1579
(lp3357
I96
asg2277
(lp3358
I138
asg1727
(lp3359
I105
asg1400
(lp3360
I85
aI110
asg2867
(lp3361
I174
asg544
(lp3362
I33
asg1159
(lp3363
I70
asg1878
(lp3364
I114
asg821
(lp3365
I50
asg1175
(lp3366
I71
asg757
(lp3367
I46
asg3129
(lp3368
I190
asg1261
(lp3369
I76
asg1418
(lp3370
I86
asg1630
(lp3371
I99
asg1844
(lp3372
I112
asg1979
(lp3373
I120
asg2899
(lp3374
I176
asg2391
(lp3375
I145
asg1108
(lp3376
I67
asg295
(lp3377
I18
asg2914
(lp3378
I177
asg22
(lp3379
I1
aI3
asg2637
(lp3380
I160
asg527
(lp3381
I32
asg1596
(lp3382
I97
asg905
(lp3383
I55
asg1663
(lp3384
I101
asg2523
(lp3385
I153
asg1759
(lp3386
I107
asg2179
(lp3387
I132
asg2767
(lp3388
I168
asg86
(lp3389
I5
asg2408
(lp3390
I146
asg2604
(lp3391
I158
asg2127
(lp3392
I129
asg1695
(lp3393
I103
asg3048
(lp3394
I185
asg1325
(lp3395
I80
asg2144
(lp3396
I130
asg956
(lp3397
I58
asg2717
(lp3398
I165
asg1961
(lp3399
I119
asg1895
(lp3400
I115
asg691
(lp3401
I42
asg855
(lp3402
I52
asg676
(lp3403
I41
asg463
(lp3404
I28
asg1996
(lp3405
I121
asg246
(lp3406
I15
aI16
aI173
asg1480
(lp3407
I90
asg2702
(lp3408
I164
asg1385
(lp3409
I84
asg613
(lp3410
I37
asg2358
(lp3411
I143
asg3113
(lp3412
I189
asg1243
(lp3413
I75
asg2998
(lp3414
I182
asg1090
(lp3415
I66
asg2557
(lp3416
I155
asg3065
(lp3417
I186
asg2161
(lp3418
I131
asg1226
(lp3419
I74
asg742
(lp3420
I45
asg2243
(lp3421
I136
asg871
(lp3422
I53
asg2376
(lp3423
I144
asg3193
(lp3424
I194
asg2439
(lp3425
I148
asg562
(lp3426
I34
asg3015
(lp3427
I183
asg1861
(lp3428
I113
asg3031
(lp3429
I184
asg329
(lp3430
I20
asg118
(lp3431
I7
assg37
(dp3432
g262
(lp3433
I16
asg3130
(lp3434
I190
asg1436
(lp3435
I87
asg2915
(lp3436
I177
asg379
(lp3437
I23
asg528
(lp3438
I32
asg1845
(lp3439
I112
asg2982
(lp3440
I181
asg2900
(lp3441
I176
asg2295
(lp3442
I139
asg2162
(lp3443
I131
asg839
(lp3444
I51
asg2932
(lp3445
I178
asg198
(lp3446
I12
asg2638
(lp3447
I160
asg1810
(lp3448
I110
asg957
(lp3449
I58
asg1109
(lp3450
I67
asg55
(lp3451
I3
asg2605
(lp3452
I158
asg2128
(lp3453
I129
asg774
(lp3454
I47
asg413
(lp3455
I25
asg3176
(lp3456
I193
asg232
(lp3457
I14
asg3229
(lp3458
I196
asg2733
(lp3459
I166
asg1371
(lp3460
I83
asg104
(lp3461
I6
asg2392
(lp3462
I145
asg1545
(lp3463
I94
asg1930
(lp3464
I117
asg464
(lp3465
I28
asg3145
(lp3466
I191
asg692
(lp3467
I42
asg2145
(lp3468
I130
asg563
(lp3469
I34
asg2046
(lp3470
I124
asg822
(lp3471
I50
asg599
(lp3472
I36
asg743
(lp3473
I45
asg447
(lp3474
I27
asg3032
(lp3475
I184
asg2509
(lp3476
I152
asg1777
(lp3477
I108
asg1827
(lp3478
I111
asg2718
(lp3479
I165
asg181
(lp3480
I11
asg2703
(lp3481
I164
asg2440
(lp3482
I148
asg2278
(lp3483
I138
asg1513
(lp3484
I92
asg1176
(lp3485
I71
asg1262
(lp3486
I76
asg1040
(lp3487
I63
asg807
(lp3488
I49
asg215
(lp3489
I13
asg1896
(lp3490
I115
asg3114
(lp3491
I189
asg1913
(lp3492
I116
asg1451
(lp3493
I88
asg790
(lp3494
I48
asg87
(lp3495
I5
asg2802
(lp3496
I170
asg1127
(lp3497
I68
asg2620
(lp3498
I159
asg2850
(lp3499
I173
asg2344
(lp3500
I142
asg166
(lp3501
I10
asg1311
(lp3502
I79
asg1326
(lp3503
I80
asg2261
(lp3504
I137
asg1073
(lp3505
I65
asg2311
(lp3506
I140
asg1696
(lp3507
I103
asg629
(lp3508
I38
asg1713
(lp3509
I104
asg432
(lp3510
I26
asg2214
(lp3511
I134
asg2093
(lp3512
I127
asg2197
(lp3513
I133
asg1792
(lp3514
I109
asg726
(lp3515
I44
asg364
(lp3516
I22
asg1664
(lp3517
I101
asg2575
(lp3518
I156
asg3081
(lp3519
I187
asg2834
(lp3520
I172
asg2653
(lp3521
I161
asg2541
(lp3522
I154
asg2180
(lp3523
I132
asg2457
(lp3524
I149
asg330
(lp3525
I20
asg1401
(lp3526
I85
asg247
(lp3527
I15
asg1006
(lp3528
I61
asg2078
(lp3529
I126
asg3098
(lp3530
I188
asg2868
(lp3531
I174
asg2244
(lp3532
I136
asg1498
(lp3533
I91
asg709
(lp3534
I43
asg38
(lp3535
I2
asg2409
(lp3536
I146
asg296
(lp3537
I18
asg1879
(lp3538
I114
asg1980
(lp3539
I120
asg149
(lp3540
I9
asg1466
(lp3541
I89
asg1580
(lp3542
I96
asg1563
(lp3543
I95
asg1597
(lp3544
I97
asg889
(lp3545
I54
asg2474
(lp3546
I150
asg1193
(lp3547
I72
asg856
(lp3548
I52
asg989
(lp3549
I60
asg972
(lp3550
I59
asg2110
(lp3551
I128
asg2424
(lp3552
I147
asg3212
(lp3553
I195
asg1056
(lp3554
I64
asg511
(lp3555
I31
asg1760
(lp3556
I107
asg1530
(lp3557
I93
asg3160
(lp3558
I192
asg2359
(lp3559
I143
asg2029
(lp3560
I123
asg1679
(lp3561
I102
asg1386
(lp3562
I84
asg2014
(lp3563
I122
asg279
(lp3564
I17
asg2885
(lp3565
I175
asg1947
(lp3566
I118
asg1227
(lp3567
I74
asg1631
(lp3568
I99
asg1210
(lp3569
I73
asg1341
(lp3570
I81
asg872
(lp3571
I53
asg2686
(lp3572
I163
asg2491
(lp3573
I151
asg677
(lp3574
I41
asg2590
(lp3575
I157
asg1142
(lp3576
I69
asg496
(lp3577
I30
asg581
(lp3578
I35
asg1728
(lp3579
I105
asg2329
(lp3580
I141
asg396
(lp3581
I24
asg2785
(lp3582
I169
asg1997
(lp3583
I121
asg614
(lp3584
I37
asg1862
(lp3585
I113
asg347
(lp3586
I21
asg2229
(lp3587
I135
asg2818
(lp3588
I171
asg545
(lp3589
I33
asg2948
(lp3590
I179
asg758
(lp3591
I46
asg1649
(lp3592
I100
asg1481
(lp3593
I90
asg2964
(lp3594
I180
asg2524
(lp3595
I153
asg119
(lp3596
I7
asg3016
(lp3597
I183
asg1294
(lp3598
I78
asg481
(lp3599
I29
asg2669
(lp3600
I162
asg1023
(lp3601
I62
asg3049
(lp3602
I185
asg906
(lp3603
I55
asg1277
(lp3604
I77
asg2751
(lp3605
I167
asg2768
(lp3606
I168
asg2558
(lp3607
I155
asg1745
(lp3608
I106
asg2063
(lp3609
I125
asg313
(lp3610
I19
asg1356
(lp3611
I82
asg1962
(lp3612
I119
asg3066
(lp3613
I186
asg134
(lp3614
I8
asg1091
(lp3615
I66
asg1244
(lp3616
I75
asg70
(lp3617
I4
asg1419
(lp3618
I86
asg2999
(lp3619
I182
asg661
(lp3620
I40
asg1160
(lp3621
I70
asg1614
(lp3622
I98
asg3194
(lp3623
I194
asg942
(lp3624
I57
asg924
(lp3625
I56
asg2377
(lp3626
I144
asg644
(lp3627
I39
assg6
(dp3628
g7
(lp3629
I0
aI1
aI2
aI3
aI4
aI11
aI15
aI16
aI18
aI21
aI22
aI24
aI26
aI31
aI33
aI34
aI40
aI42
aI48
aI50
aI51
aI52
aI54
aI56
aI59
aI65
aI69
aI70
aI71
aI72
aI73
aI75
aI76
aI79
aI80
aI83
aI84
aI85
aI89
aI90
aI91
aI92
aI93
aI94
aI95
aI96
aI98
aI99
aI100
aI101
aI102
aI105
aI106
aI107
aI110
aI113
aI114
aI116
aI119
aI122
aI126
aI130
aI136
aI139
aI141
aI143
aI145
aI146
aI149
aI152
aI153
aI154
aI155
aI158
aI160
aI161
aI162
aI163
aI165
aI171
aI172
aI174
aI180
aI186
aI187
aI190
aI193
aI195
aI196
asg89
(lp3630
I5
aI6
aI7
aI8
aI9
aI10
aI12
aI13
aI14
aI17
aI19
aI20
aI23
aI25
aI27
aI28
aI29
aI30
aI32
aI35
aI36
aI37
aI38
aI39
aI41
aI43
aI44
aI45
aI46
aI47
aI49
aI53
aI55
aI57
aI58
aI60
aI61
aI62
aI63
aI64
aI66
aI67
aI68
aI74
aI77
aI78
aI81
aI82
aI86
aI87
aI88
aI97
aI103
aI104
aI108
aI109
aI111
aI112
aI115
aI117
aI118
aI120
aI121
aI123
aI124
aI125
aI127
aI128
aI129
aI131
aI132
aI133
aI134
aI135
aI137
aI138
aI140
aI142
aI144
aI147
aI148
aI150
aI151
aI156
aI157
aI159
aI164
aI166
aI167
aI168
aI169
aI170
aI173
aI175
aI176
aI177
aI178
aI179
aI181
aI182
aI183
aI184
aI185
aI188
aI189
aI191
aI192
aI194
assg12
(dp3631
g205
(lp3632
I12
aI166
aI167
aI168
aI169
aI170
aI171
aI172
aI173
aI174
aI175
aI176
asg403
(lp3633
I24
asg1782
(lp3634
I108
aI109
aI110
aI111
aI112
asg386
(lp3635
I23
asg369
(lp3636
I22
asg237
(lp3637
I14
asg77
(lp3638
I4
aI78
aI79
aI80
aI81
aI82
aI83
aI84
asg1535
(lp3639
I93
aI94
aI95
aI96
aI97
aI98
aI99
aI100
aI101
aI102
aI103
aI104
asg27
(lp3640
I1
aI3
aI74
aI75
aI76
aI77
asg3088
(lp3641
I187
aI188
aI189
aI190
aI191
asg109
(lp3642
I6
aI125
aI126
aI127
aI128
aI129
asg337
(lp3643
I20
aI21
asg668
(lp3644
I40
aI41
aI42
asg303
(lp3645
I18
aI19
asg1952
(lp3646
I118
aI119
aI120
aI121
aI122
aI123
aI124
asg979
(lp3647
I59
aI60
aI61
aI62
aI63
aI64
asg286
(lp3648
I17
asg1869
(lp3649
I113
aI114
aI115
aI116
aI117
asg3023
(lp3650
I183
aI184
aI185
aI186
asg2629
(lp3651
I159
aI160
aI161
aI162
aI163
aI164
aI165
asg124
(lp3652
I7
aI136
aI137
aI138
aI139
aI140
aI141
aI142
asg222
(lp3653
I13
aI192
aI193
aI194
aI195
aI196
asg252
(lp3654
I15
aI16
asg1410
(lp3655
I85
aI86
aI87
aI88
aI89
aI90
aI91
aI92
asg13
(lp3656
I0
aI2
aI43
aI44
aI45
aI46
aI47
aI48
aI49
asg829
(lp3657
I50
aI51
aI52
aI53
aI54
aI55
aI56
aI57
aI58
asg2922
(lp3658
I177
aI178
aI179
aI180
aI181
aI182
asg1082
(lp3659
I65
aI66
aI67
aI68
aI69
aI70
aI71
aI72
aI73
asg171
(lp3660
I10
aI11
aI155
aI156
aI157
aI158
asg518
(lp3661
I31
aI32
aI33
aI34
aI35
aI36
aI37
aI38
aI39
asg422
(lp3662
I25
aI26
aI27
aI28
aI29
aI30
asg94
(lp3663
I5
aI105
aI106
aI107
asg156
(lp3664
I9
aI151
aI152
aI153
aI154
asg139
(lp3665
I8
aI143
aI144
aI145
aI146
aI147
aI148
aI149
aI150
asg2152
(lp3666
I130
aI131
aI132
aI133
aI134
aI135
assg10
(dp3667
g796
(lp3668
I48
asg1409
(lp3669
I85
aI146
aI193
asg436
(lp3670
I26
asg353
(lp3671
I21
aI70
aI95
aI172
asg251
(lp3672
I15
asg2267
(lp3673
I137
asg268
(lp3674
I16
aI40
aI69
asg123
(lp3675
I7
aI126
asg453
(lp3676
I27
asg1668
(lp3677
I101
aI185
asg470
(lp3678
I28
asg1440
(lp3679
I87
asg553
(lp3680
I33
aI37
asg500
(lp3681
I30
aI56
asg1390
(lp3682
I84
aI88
aI93
aI129
aI131
aI161
asg2707
(lp3683
I164
aI169
asg571
(lp3684
I34
aI36
aI89
aI102
aI103
asg845
(lp3685
I51
aI109
aI128
aI142
aI150
aI154
asg2250
(lp3686
I136
asg155
(lp3687
I9
aI167
asg1012
(lp3688
I61
asg236
(lp3689
I14
asg2052
(lp3690
I124
asg1970
(lp3691
I119
asg108
(lp3692
I6
aI24
aI42
aI64
aI67
aI71
aI81
aI123
aI135
aI175
aI176
asg421
(lp3693
I25
asg914
(lp3694
I55
aI115
asg1315
(lp3695
I79
asg1375
(lp3696
I83
aI194
asg2203
(lp3697
I133
asg1360
(lp3698
I82
aI92
aI145
aI182
aI192
asg633
(lp3699
I38
aI106
aI141
aI174
asg319
(lp3700
I19
aI32
aI65
aI110
asg302
(lp3701
I18
aI44
aI54
aI165
asg1252
(lp3702
I75
asg93
(lp3703
I5
asg1885
(lp3704
I114
asg1766
(lp3705
I107
asg1487
(lp3706
I90
aI104
aI113
aI132
asg517
(lp3707
I31
aI57
aI148
aI171
asg1851
(lp3708
I112
asg3120
(lp3709
I189
asg2301
(lp3710
I139
asg187
(lp3711
I11
asg1835
(lp3712
I111
asg1266
(lp3713
I76
asg2430
(lp3714
I147
asg2921
(lp3715
I177
asg1620
(lp3716
I98
aI170
aI184
asg2938
(lp3717
I178
asg385
(lp3718
I23
asg221
(lp3719
I13
aI20
aI105
aI125
aI144
aI153
aI155
aI166
aI183
aI186
asg1131
(lp3720
I68
asg1502
(lp3721
I91
aI99
asg1283
(lp3722
I77
asg1330
(lp3723
I80
aI121
asg3134
(lp3724
I190
asg1553
(lp3725
I94
asg961
(lp3726
I58
aI116
asg138
(lp3727
I8
aI52
aI53
aI74
aI108
aI127
aI140
aI156
aI159
aI195
asg3237
(lp3728
I196
asg1300
(lp3729
I78
asg650
(lp3730
I39
aI41
aI47
aI49
aI62
aI66
aI149
aI158
aI160
aI173
aI180
asg11
(lp3731
I0
aI2
aI10
aI12
aI29
aI35
aI43
aI45
aI46
aI59
aI60
aI73
aI86
aI100
aI117
aI120
aI130
aI143
aI157
aI163
aI179
aI181
aI187
aI188
aI191
asg1586
(lp3732
I96
aI97
aI151
aI152
asg368
(lp3733
I22
aI162
aI168
asg2018
(lp3734
I122
asg2218
(lp3735
I134
asg26
(lp3736
I1
aI3
aI72
asg76
(lp3737
I4
aI17
aI63
aI138
asg828
(lp3738
I50
aI118
assg8
(dp3739
g2755
(lp3740
I167
asg3235
(lp3741
I196
asg1148
(lp3742
I69
asg569
(lp3743
I34
asg2690
(lp3744
I163
asg91
(lp3745
I5
asg2265
(lp3746
I137
asg876
(lp3747
I53
asg1917
(lp3748
I116
asg1551
(lp3749
I94
aI98
asg843
(lp3750
I51
asg419
(lp3751
I25
asg2001
(lp3752
I121
asg351
(lp3753
I21
asg2478
(lp3754
I150
asg1849
(lp3755
I112
asg1180
(lp3756
I71
asg3216
(lp3757
I195
asg2248
(lp3758
I136
asg2919
(lp3759
I177
asg202
(lp3760
I12
asg2562
(lp3761
I155
asg648
(lp3762
I39
asg1833
(lp3763
I111
asg2168
(lp3764
I131
asg1732
(lp3765
I105
asg696
(lp3766
I42
asg1485
(lp3767
I90
asg334
(lp3768
I20
asg3085
(lp3769
I187
asg1866
(lp3770
I113
asg893
(lp3771
I54
asg2545
(lp3772
I154
asg1407
(lp3773
I85
asg1281
(lp3774
I77
asg2739
(lp3775
I166
asg1764
(lp3776
I107
asg1683
(lp3777
I102
asg2282
(lp3778
I138
asg451
(lp3779
I27
asg1637
(lp3780
I99
asg2673
(lp3781
I162
asg1517
(lp3782
I92
asg2365
(lp3783
I143
asg1883
(lp3784
I114
asg1214
(lp3785
I73
asg2097
(lp3786
I127
asg2461
(lp3787
I149
asg1934
(lp3788
I117
asg2033
(lp3789
I123
asg1900
(lp3790
I115
asg2201
(lp3791
I133
asg2528
(lp3792
I153
asg2789
(lp3793
I169
asg2396
(lp3794
I145
asg2116
(lp3795
I128
asg1250
(lp3796
I75
asg2772
(lp3797
I168
asg2132
(lp3798
I129
asg794
(lp3799
I48
asg1115
(lp3800
I67
asg3003
(lp3801
I182
asg74
(lp3802
I4
asg826
(lp3803
I50
asg1197
(lp3804
I72
asg300
(lp3805
I18
asg219
(lp3806
I13
asg2872
(lp3807
I174
asg2986
(lp3808
I181
asg1984
(lp3809
I120
asg730
(lp3810
I44
asg1097
(lp3811
I66
asg1601
(lp3812
I97
asg317
(lp3813
I19
asg976
(lp3814
I59
asg2626
(lp3815
I159
asg532
(lp3816
I32
asg587
(lp3817
I35
asg515
(lp3818
I31
asg3053
(lp3819
I185
asg2149
(lp3820
I130
asg1423
(lp3821
I86
asg930
(lp3822
I56
asg400
(lp3823
I24
asg2444
(lp3824
I148
asg993
(lp3825
I60
asg1298
(lp3826
I78
asg3182
(lp3827
I193
asg2317
(lp3828
I140
asg1700
(lp3829
I103
asg2497
(lp3830
I151
asg468
(lp3831
I28
asg1027
(lp3832
I62
asg3200
(lp3833
I194
asg1968
(lp3834
I119
asg1798
(lp3835
I109
asg713
(lp3836
I43
asg9
(lp3837
I0
aI2
asg383
(lp3838
I23
asg2184
(lp3839
I132
asg551
(lp3840
I33
aI74
asg2050
(lp3841
I124
asg1814
(lp3842
I110
asg2856
(lp3843
I173
asg3036
(lp3844
I184
asg1079
(lp3845
I65
asg1567
(lp3846
I95
asg2970
(lp3847
I180
asg185
(lp3848
I11
asg1060
(lp3849
I64
asg1010
(lp3850
I61
asg1584
(lp3851
I96
asg153
(lp3852
I9
asg283
(lp3853
I17
asg912
(lp3854
I55
asg266
(lp3855
I16
assg425
(dp3856
g2663
(lp3857
I161
asg1413
(lp3858
I85
asg3188
(lp3859
I193
asg575
(lp3860
I34
asg2122
(lp3861
I128
asg1974
(lp3862
I119
asg3026
(lp3863
I183
asg1804
(lp3864
I109
asg918
(lp3865
I55
asg2434
(lp3866
I147
asg1839
(lp3867
I111
asg2174
(lp3868
I131
asg1121
(lp3869
I67
asg1085
(lp3870
I65
asg1050
(lp3871
I63
asg3206
(lp3872
I194
asg2503
(lp3873
I151
asg2812
(lp3874
I170
asg3170
(lp3875
I192
asg2371
(lp3876
I143
asg1170
(lp3877
I70
asg3108
(lp3878
I188
asg557
(lp3879
I33
asg2844
(lp3880
I172
asg2305
(lp3881
I139
asg2632
(lp3882
I159
asg768
(lp3883
I46
asg1103
(lp3884
I66
asg671
(lp3885
I40
asg1256
(lp3886
I75
asg1557
(lp3887
I94
asg2323
(lp3888
I140
asg2745
(lp3889
I166
asg3124
(lp3890
I189
asg2862
(lp3891
I173
asg1643
(lp3892
I99
asg1154
(lp3893
I69
asg2828
(lp3894
I171
asg593
(lp3895
I35
asg426
(lp3896
I25
asg2976
(lp3897
I180
asg866
(lp3898
I52
asg3241
(lp3899
I196
asg2942
(lp3900
I178
asg2958
(lp3901
I179
asg784
(lp3902
I47
asg936
(lp3903
I56
assg14
(dp3904
g79
(lp3905
I4
aI12
aI17
aI18
aI21
aI22
aI39
aI41
aI42
aI49
aI54
aI57
aI58
aI59
aI62
aI63
aI71
aI72
aI73
aI79
aI81
aI82
aI83
aI86
aI91
aI93
aI100
aI101
aI104
aI114
aI115
aI120
aI122
aI124
aI132
aI133
aI135
aI144
aI158
aI165
aI174
aI175
aI176
aI184
aI185
aI186
aI191
asg15
(lp3906
I0
aI2
aI5
aI9
aI10
aI14
aI15
aI16
aI19
aI25
aI27
aI28
aI29
aI31
aI32
aI35
aI36
aI37
aI44
aI46
aI47
aI48
aI50
aI51
aI53
aI55
aI60
aI66
aI67
aI68
aI69
aI70
aI75
aI76
aI80
aI89
aI90
aI94
aI97
aI98
aI102
aI103
aI106
aI109
aI110
aI111
aI112
aI113
aI117
aI118
aI119
aI121
aI123
aI127
aI128
aI129
aI131
aI134
aI136
aI139
aI140
aI142
aI143
aI145
aI146
aI147
aI149
aI151
aI152
aI156
aI157
aI161
aI164
aI166
aI167
aI169
aI170
aI171
aI172
aI173
aI177
aI178
aI179
aI180
aI181
aI182
aI188
aI189
aI192
aI195
aI196
asg29
(lp3907
I1
aI3
aI6
aI7
aI8
aI11
aI13
aI20
aI23
aI24
aI26
aI30
aI33
aI34
aI38
aI40
aI43
aI45
aI52
aI56
aI61
aI64
aI65
aI74
aI77
aI78
aI84
aI85
aI87
aI88
aI92
aI95
aI96
aI99
aI105
aI107
aI108
aI116
aI125
aI126
aI130
aI137
aI138
aI141
aI148
aI150
aI153
aI154
aI155
aI159
aI160
aI162
aI163
aI168
aI183
aI187
aI190
aI193
aI194
assg16
(dp3908
g3043
(lp3909
I184
asg549
(lp3910
I33
asg1821
(lp3911
I110
asg1204
(lp3912
I72
asg358
(lp3913
I21
aI55
aI132
aI149
aI194
asg1164
(lp3914
I70
asg113
(lp3915
I6
aI32
aI35
aI39
aI42
aI44
aI47
aI61
aI76
aI77
aI88
aI100
aI107
aI111
aI112
aI114
aI135
aI143
aI174
aI179
aI188
aI192
aI195
aI196
asg290
(lp3916
I17
aI31
asg2057
(lp3917
I124
aI180
asg2104
(lp3918
I127
asg341
(lp3919
I20
asg2040
(lp3920
I123
asg256
(lp3921
I15
aI16
aI23
aI40
aI60
aI68
aI75
aI82
aI98
aI99
aI109
aI116
aI118
aI122
aI128
aI129
aI133
asg490
(lp3922
I29
aI54
aI85
aI161
asg143
(lp3923
I8
aI80
asg17
(lp3924
I0
aI2
asg1991
(lp3925
I120
asg1524
(lp3926
I92
aI136
asg860
(lp3927
I52
aI67
aI165
asg98
(lp3928
I5
aI7
aI18
aI22
aI25
aI34
aI59
aI134
aI139
aI150
aI160
aI189
aI190
aI193
asg1786
(lp3929
I108
asg2993
(lp3930
I181
asg833
(lp3931
I50
aI164
aI169
asg192
(lp3932
I11
asg1067
(lp3933
I64
asg475
(lp3934
I28
aI43
aI126
aI177
asg81
(lp3935
I4
aI19
aI41
aI73
aI83
aI90
aI103
aI104
aI144
aI156
aI166
aI171
asg175
(lp3936
I10
aI131
asg1739
(lp3937
I105
aI155
asg31
(lp3938
I1
aI3
aI24
aI27
aI37
aI51
aI53
aI63
aI66
aI69
aI71
aI79
aI87
aI89
aI91
aI106
aI113
aI140
aI145
aI151
aI154
aI158
aI159
aI170
aI172
aI185
asg1238
(lp3939
I74
aI147
asg1673
(lp3940
I101
asg160
(lp3941
I9
aI46
aI49
aI57
aI62
aI78
aI86
aI93
aI95
aI138
aI148
aI153
aI173
aI178
aI183
aI187
aI191
asg966
(lp3942
I58
asg1591
(lp3943
I96
asg226
(lp3944
I13
aI30
aI36
aI45
aI48
aI81
aI84
aI102
aI115
aI119
aI121
aI141
aI142
aI163
aI176
aI182
asg1941
(lp3945
I117
aI157
asg638
(lp3946
I38
asg2418
(lp3947
I146
asg1608
(lp3948
I97
asg2518
(lp3949
I152
asg2272
(lp3950
I137
asg3075
(lp3951
I186
asg928
(lp3952
I56
aI65
aI125
aI167
asg1549
(lp3953
I94
asg241
(lp3954
I14
aI26
asg2680
(lp3955
I162
asg2779
(lp3956
I168
asg2894
(lp3957
I175
asg209
(lp3958
I12
asg2156
(lp3959
I130
ass(dp3960
g2
(lp3961
(g3
I197
tp3962
asg4
(lp3963
(g1912
I1
tp3964
a(g2343
I1
tp3965
a(g1544
I1
tp3966
a(g278
I1
tp3967
a(g1776
I1
tp3968
a(g1293
I1
tp3969
a(g3211
I1
tp3970
a(g2473
I1
tp3971
a(g1141
I1
tp3972
a(g1465
I1
tp3973
a(g2817
I1
tp3974
a(g988
I1
tp3975
a(g1946
I1
tp3976
a(g231
I2
tp3977
a(g660
I1
tp3978
a(g2685
I1
tp3979
a(g1310
I1
tp3980
a(g941
I1
tp3981
a(g2077
I1
tp3982
a(g789
I1
tp3983
a(g1039
I1
tp3984
a(g2668
I1
tp3985
a(g1055
I1
tp3986
a(g2574
I1
tp3987
a(g2619
I1
tp3988
a(g3159
I1
tp3989
a(g1340
I1
tp3990
a(g5
I2
tp3991
a(g628
I1
tp3992
a(g2833
I1
tp3993
a(g2947
I1
tp3994
a(g1562
I1
tp3995
a(g214
I1
tp3996
a(g431
I1
tp3997
a(g971
I1
tp3998
a(g725
I1
tp3999
a(g580
I1
tp4000
a(g510
I1
tp4001
a(g838
I1
tp4002
a(g1435
I1
tp4003
a(g2884
I1
tp4004
a(g2490
I1
tp4005
a(g3175
I1
tp4006
a(g1022
I1
tp4007
a(g2092
I1
tp4008
a(g2328
I1
tp4009
a(g2508
I1
tp4010
a(g923
I1
tp4011
a(g2028
I1
tp4012
a(g363
I2
tp4013
a(g2652
I1
tp4014
a(g1744
I1
tp4015
a(g148
I2
tp4016
a(g103
I1
tp4017
a(g446
I1
tp4018
a(g1678
I1
tp4019
a(g412
I1
tp4020
a(g2310
I1
tp4021
a(g1370
I1
tp4022
a(g1512
I1
tp4023
a(g3097
I1
tp4024
a(g312
I2
tp4025
a(g1072
I1
tp4026
a(g1355
I1
tp4027
a(g3228
I1
tp4028
a(g2196
I1
tp4029
a(g165
I2
tp4030
a(g1613
I1
tp4031
a(g1192
I1
tp4032
a(g888
I1
tp4033
a(g197
I1
tp4034
a(g773
I1
tp4035
a(g2260
I1
tp4036
a(g2589
I1
tp4037
a(g1276
I1
tp4038
a(g1209
I1
tp4039
a(g1497
I1
tp4040
a(g1712
I1
tp4041
a(g2213
I1
tp4042
a(g643
I1
tp4043
a(g1648
I1
tp4044
a(g2045
I1
tp4045
a(g2294
I1
tp4046
a(g2963
I1
tp4047
a(g378
I1
tp4048
a(g2801
I1
tp4049
a(g1126
I1
tp4050
a(g2784
I1
tp4051
a(g2013
I1
tp4052
a(g1791
I1
tp4053
a(g180
I1
tp4054
a(g69
I1
tp4055
a(g2540
I1
tp4056
a(g2062
I1
tp4057
a(g1005
I1
tp4058
a(g2228
I1
tp4059
a(g346
I1
tp4060
a(g1529
I1
tp4061
a(g1826
I1
tp4062
a(g495
I1
tp4063
a(g1929
I1
tp4064
a(g133
I1
tp4065
a(g480
I2
tp4066
a(g806
I1
tp4067
a(g2109
I1
tp4068
a(g395
I1
tp4069
a(g2423
I1
tp4070
a(g708
I1
tp4071
a(g2456
I1
tp4072
a(g2931
I1
tp4073
a(g2732
I1
tp4074
a(g1579
I1
tp4075
a(g2277
I1
tp4076
a(g1727
I1
tp4077
a(g1400
I2
tp4078
a(g2867
I1
tp4079
a(g544
I1
tp4080
a(g1159
I1
tp4081
a(g1878
I1
tp4082
a(g821
I1
tp4083
a(g1175
I1
tp4084
a(g757
I1
tp4085
a(g3129
I1
tp4086
a(g1261
I1
tp4087
a(g1418
I1
tp4088
a(g1630
I1
tp4089
a(g1844
I1
tp4090
a(g1979
I1
tp4091
a(g2899
I1
tp4092
a(g2391
I1
tp4093
a(g1108
I1
tp4094
a(g295
I1
tp4095
a(g2914
I1
tp4096
a(g22
I2
tp4097
a(g2637
I1
tp4098
a(g527
I1
tp4099
a(g1596
I1
tp4100
a(g905
I1
tp4101
a(g1663
I1
tp4102
a(g2523
I1
tp4103
a(g1759
I1
tp4104
a(g2179
I1
tp4105
a(g2767
I1
tp4106
a(g86
I1
tp4107
a(g2408
I1
tp4108
a(g2604
I1
tp4109
a(g2127
I1
tp4110
a(g1695
I1
tp4111
a(g3048
I1
tp4112
a(g1325
I1
tp4113
a(g2144
I1
tp4114
a(g956
I1
tp4115
a(g2717
I1
tp4116
a(g1961
I1
tp4117
a(g1895
I1
tp4118
a(g691
I1
tp4119
a(g855
I1
tp4120
a(g676
I1
tp4121
a(g463
I1
tp4122
a(g1996
I1
tp4123
a(g246
I3
tp4124
a(g1480
I1
tp4125
a(g2702
I1
tp4126
a(g1385
I1
tp4127
a(g613
I1
tp4128
a(g2358
I1
tp4129
a(g3113
I1
tp4130
a(g1243
I1
tp4131
a(g2998
I1
tp4132
a(g1090
I1
tp4133
a(g2557
I1
tp4134
a(g3065
I1
tp4135
a(g2161
I1
tp4136
a(g1226
I1
tp4137
a(g742
I1
tp4138
a(g2243
I1
tp4139
a(g871
I1
tp4140
a(g2376
I1
tp4141
a(g3193
I1
tp4142
a(g2439
I1
tp4143
a(g562
I1
tp4144
a(g3015
I1
tp4145
a(g1861
I1
tp4146
a(g3031
I1
tp4147
a(g329
I1
tp4148
a(g118
I1
tp4149
asg37
(lp4150
(g262
I1
tp4151
a(g3130
I1
tp4152
a(g1436
I1
tp4153
a(g2915
I1
tp4154
a(g379
I1
tp4155
a(g528
I1
tp4156
a(g1845
I1
tp4157
a(g2982
I1
tp4158
a(g2900
I1
tp4159
a(g2295
I1
tp4160
a(g2162
I1
tp4161
a(g839
I1
tp4162
a(g2932
I1
tp4163
a(g198
I1
tp4164
a(g2638
I1
tp4165
a(g1810
I1
tp4166
a(g957
I1
tp4167
a(g1109
I1
tp4168
a(g55
I1
tp4169
a(g2605
I1
tp4170
a(g2128
I1
tp4171
a(g774
I1
tp4172
a(g413
I1
tp4173
a(g3176
I1
tp4174
a(g232
I1
tp4175
a(g3229
I1
tp4176
a(g2733
I1
tp4177
a(g1371
I1
tp4178
a(g104
I1
tp4179
a(g2392
I1
tp4180
a(g1545
I1
tp4181
a(g1930
I1
tp4182
a(g464
I1
tp4183
a(g3145
I1
tp4184
a(g692
I1
tp4185
a(g2145
I1
tp4186
a(g563
I1
tp4187
a(g2046
I1
tp4188
a(g822
I1
tp4189
a(g599
I1
tp4190
a(g743
I1
tp4191
a(g447
I1
tp4192
a(g3032
I1
tp4193
a(g2509
I1
tp4194
a(g1777
I1
tp4195
a(g1827
I1
tp4196
a(g2718
I1
tp4197
a(g181
I1
tp4198
a(g2703
I1
tp4199
a(g2440
I1
tp4200
a(g2278
I1
tp4201
a(g1513
I1
tp4202
a(g1176
I1
tp4203
a(g1262
I1
tp4204
a(g1040
I1
tp4205
a(g807
I1
tp4206
a(g215
I1
tp4207
a(g1896
I1
tp4208
a(g3114
I1
tp4209
a(g1913
I1
tp4210
a(g1451
I1
tp4211
a(g790
I1
tp4212
a(g87
I1
tp4213
a(g2802
I1
tp4214
a(g1127
I1
tp4215
a(g2620
I1
tp4216
a(g2850
I1
tp4217
a(g2344
I1
tp4218
a(g166
I1
tp4219
a(g1311
I1
tp4220
a(g1326
I1
tp4221
a(g2261
I1
tp4222
a(g1073
I1
tp4223
a(g2311
I1
tp4224
a(g1696
I1
tp4225
a(g629
I1
tp4226
a(g1713
I1
tp4227
a(g432
I1
tp4228
a(g2214
I1
tp4229
a(g2093
I1
tp4230
a(g2197
I1
tp4231
a(g1792
I1
tp4232
a(g726
I1
tp4233
a(g364
I1
tp4234
a(g1664
I1
tp4235
a(g2575
I1
tp4236
a(g3081
I1
tp4237
a(g2834
I1
tp4238
a(g2653
I1
tp4239
a(g2541
I1
tp4240
a(g2180
I1
tp4241
a(g2457
I1
tp4242
a(g330
I1
tp4243
a(g1401
I1
tp4244
a(g247
I1
tp4245
a(g1006
I1
tp4246
a(g2078
I1
tp4247
a(g3098
I1
tp4248
a(g2868
I1
tp4249
a(g2244
I1
tp4250
a(g1498
I1
tp4251
a(g709
I1
tp4252
a(g38
I1
tp4253
a(g2409
I1
tp4254
a(g296
I1
tp4255
a(g1879
I1
tp4256
a(g1980
I1
tp4257
a(g149
I1
tp4258
a(g1466
I1
tp4259
a(g1580
I1
tp4260
a(g1563
I1
tp4261
a(g1597
I1
tp4262
a(g889
I1
tp4263
a(g2474
I1
tp4264
a(g1193
I1
tp4265
a(g856
I1
tp4266
a(g989
I1
tp4267
a(g972
I1
tp4268
a(g2110
I1
tp4269
a(g2424
I1
tp4270
a(g3212
I1
tp4271
a(g1056
I1
tp4272
a(g511
I1
tp4273
a(g1760
I1
tp4274
a(g1530
I1
tp4275
a(g3160
I1
tp4276
a(g2359
I1
tp4277
a(g2029
I1
tp4278
a(g1679
I1
tp4279
a(g1386
I1
tp4280
a(g2014
I1
tp4281
a(g279
I1
tp4282
a(g2885
I1
tp4283
a(g1947
I1
tp4284
a(g1227
I1
tp4285
a(g1631
I1
tp4286
a(g1210
I1
tp4287
a(g1341
I1
tp4288
a(g872
I1
tp4289
a(g2686
I1
tp4290
a(g2491
I1
tp4291
a(g677
I1
tp4292
a(g2590
I1
tp4293
a(g1142
I1
tp4294
a(g496
I1
tp4295
a(g581
I1
tp4296
a(g1728
I1
tp4297
a(g2329
I1
tp4298
a(g396
I1
tp4299
a(g2785
I1
tp4300
a(g1997
I1
tp4301
a(g614
I1
tp4302
a(g1862
I1
tp4303
a(g347
I1
tp4304
a(g2229
I1
tp4305
a(g2818
I1
tp4306
a(g545
I1
tp4307
a(g2948
I1
tp4308
a(g758
I1
tp4309
a(g1649
I1
tp4310
a(g1481
I1
tp4311
a(g2964
I1
tp4312
a(g2524
I1
tp4313
a(g119
I1
tp4314
a(g3016
I1
tp4315
a(g1294
I1
tp4316
a(g481
I1
tp4317
a(g2669
I1
tp4318
a(g1023
I1
tp4319
a(g3049
I1
tp4320
a(g906
I1
tp4321
a(g1277
I1
tp4322
a(g2751
I1
tp4323
a(g2768
I1
tp4324
a(g2558
I1
tp4325
a(g1745
I1
tp4326
a(g2063
I1
tp4327
a(g313
I1
tp4328
a(g1356
I1
tp4329
a(g1962
I1
tp4330
a(g3066
I1
tp4331
a(g134
I1
tp4332
a(g1091
I1
tp4333
a(g1244
I1
tp4334
a(g70
I1
tp4335
a(g1419
I1
tp4336
a(g2999
I1
tp4337
a(g661
I1
tp4338
a(g1160
I1
tp4339
a(g1614
I1
tp4340
a(g3194
I1
tp4341
a(g942
I1
tp4342
a(g924
I1
tp4343
a(g2377
I1
tp4344
a(g644
I1
tp4345
asg6
(lp4346
(g7
I89
tp4347
a(g89
I108
tp4348
asg16
(lp4349
(g3043
I1
tp4350
a(g549
I1
tp4351
a(g1821
I1
tp4352
a(g1204
I1
tp4353
a(g358
I5
tp4354
a(g1164
I1
tp4355
a(g113
I24
tp4356
a(g290
I2
tp4357
a(g2057
I2
tp4358
a(g2104
I1
tp4359
a(g341
I1
tp4360
a(g2040
I1
tp4361
a(g256
I17
tp4362
a(g490
I4
tp4363
a(g143
I2
tp4364
a(g17
I2
tp4365
a(g1991
I1
tp4366
a(g1524
I2
tp4367
a(g860
I3
tp4368
a(g98
I14
tp4369
a(g1786
I1
tp4370
a(g2993
I1
tp4371
a(g833
I3
tp4372
a(g192
I1
tp4373
a(g1067
I1
tp4374
a(g475
I4
tp4375
a(g81
I12
tp4376
a(g175
I2
tp4377
a(g1739
I2
tp4378
a(g31
I26
tp4379
a(g1238
I2
tp4380
a(g1673
I1
tp4381
a(g160
I17
tp4382
a(g966
I1
tp4383
a(g1591
I1
tp4384
a(g226
I16
tp4385
a(g1941
I2
tp4386
a(g638
I1
tp4387
a(g2418
I1
tp4388
a(g1608
I1
tp4389
a(g2518
I1
tp4390
a(g2272
I1
tp4391
a(g3075
I1
tp4392
a(g928
I4
tp4393
a(g1549
I1
tp4394
a(g241
I2
tp4395
a(g2680
I1
tp4396
a(g2779
I1
tp4397
a(g2894
I1
tp4398
a(g209
I1
tp4399
a(g2156
I1
tp4400
asg8
(lp4401
(g2755
I1
tp4402
a(g3235
I1
tp4403
a(g1148
I1
tp4404
a(g569
I1
tp4405
a(g2690
I1
tp4406
a(g91
I1
tp4407
a(g2265
I1
tp4408
a(g876
I1
tp4409
a(g1917
I1
tp4410
a(g1551
I2
tp4411
a(g843
I1
tp4412
a(g419
I1
tp4413
a(g2001
I1
tp4414
a(g351
I1
tp4415
a(g2478
I1
tp4416
a(g1849
I1
tp4417
a(g1180
I1
tp4418
a(g3216
I1
tp4419
a(g2248
I1
tp4420
a(g2919
I1
tp4421
a(g202
I1
tp4422
a(g2562
I1
tp4423
a(g648
I1
tp4424
a(g1833
I1
tp4425
a(g2168
I1
tp4426
a(g1732
I1
tp4427
a(g696
I1
tp4428
a(g1485
I1
tp4429
a(g334
I1
tp4430
a(g3085
I1
tp4431
a(g1866
I1
tp4432
a(g893
I1
tp4433
a(g2545
I1
tp4434
a(g1407
I1
tp4435
a(g1281
I1
tp4436
a(g2739
I1
tp4437
a(g1764
I1
tp4438
a(g1683
I1
tp4439
a(g2282
I1
tp4440
a(g451
I1
tp4441
a(g1637
I1
tp4442
a(g2673
I1
tp4443
a(g1517
I1
tp4444
a(g2365
I1
tp4445
a(g1883
I1
tp4446
a(g1214
I1
tp4447
a(g2097
I1
tp4448
a(g2461
I1
tp4449
a(g1934
I1
tp4450
a(g2033
I1
tp4451
a(g1900
I1
tp4452
a(g2201
I1
tp4453
a(g2528
I1
tp4454
a(g2789
I1
tp4455
a(g2396
I1
tp4456
a(g2116
I1
tp4457
a(g1250
I1
tp4458
a(g2772
I1
tp4459
a(g2132
I1
tp4460
a(g794
I1
tp4461
a(g1115
I1
tp4462
a(g3003
I1
tp4463
a(g74
I1
tp4464
a(g826
I1
tp4465
a(g1197
I1
tp4466
a(g300
I1
tp4467
a(g219
I1
tp4468
a(g2872
I1
tp4469
a(g2986
I1
tp4470
a(g1984
I1
tp4471
a(g730
I1
tp4472
a(g1097
I1
tp4473
a(g1601
I1
tp4474
a(g317
I1
tp4475
a(g976
I1
tp4476
a(g2626
I1
tp4477
a(g532
I1
tp4478
a(g587
I1
tp4479
a(g515
I1
tp4480
a(g3053
I1
tp4481
a(g2149
I1
tp4482
a(g1423
I1
tp4483
a(g930
I1
tp4484
a(g400
I1
tp4485
a(g2444
I1
tp4486
a(g993
I1
tp4487
a(g1298
I1
tp4488
a(g3182
I1
tp4489
a(g2317
I1
tp4490
a(g1700
I1
tp4491
a(g2497
I1
tp4492
a(g468
I1
tp4493
a(g1027
I1
tp4494
a(g3200
I1
tp4495
a(g1968
I1
tp4496
a(g1798
I1
tp4497
a(g713
I1
tp4498
a(g9
I2
tp4499
a(g383
I1
tp4500
a(g2184
I1
tp4501
a(g551
I2
tp4502
a(g2050
I1
tp4503
a(g1814
I1
tp4504
a(g2856
I1
tp4505
a(g3036
I1
tp4506
a(g1079
I1
tp4507
a(g1567
I1
tp4508
a(g2970
I1
tp4509
a(g185
I1
tp4510
a(g1060
I1
tp4511
a(g1010
I1
tp4512
a(g1584
I1
tp4513
a(g153
I1
tp4514
a(g283
I1
tp4515
a(g912
I1
tp4516
a(g266
I1
tp4517
asg10
(lp4518
(g796
I1
tp4519
a(g1409
I3
tp4520
a(g436
I1
tp4521
a(g353
I4
tp4522
a(g251
I1
tp4523
a(g2267
I1
tp4524
a(g268
I3
tp4525
a(g123
I2
tp4526
a(g453
I1
tp4527
a(g1668
I2
tp4528
a(g470
I1
tp4529
a(g1440
I1
tp4530
a(g553
I2
tp4531
a(g500
I2
tp4532
a(g1390
I6
tp4533
a(g2707
I2
tp4534
a(g571
I5
tp4535
a(g845
I6
tp4536
a(g2250
I1
tp4537
a(g155
I2
tp4538
a(g1012
I1
tp4539
a(g236
I1
tp4540
a(g2052
I1
tp4541
a(g1970
I1
tp4542
a(g108
I11
tp4543
a(g421
I1
tp4544
a(g914
I2
tp4545
a(g1315
I1
tp4546
a(g1375
I2
tp4547
a(g2203
I1
tp4548
a(g1360
I5
tp4549
a(g633
I4
tp4550
a(g319
I4
tp4551
a(g302
I4
tp4552
a(g1252
I1
tp4553
a(g93
I1
tp4554
a(g1885
I1
tp4555
a(g1766
I1
tp4556
a(g1487
I4
tp4557
a(g517
I4
tp4558
a(g1851
I1
tp4559
a(g3120
I1
tp4560
a(g2301
I1
tp4561
a(g187
I1
tp4562
a(g1835
I1
tp4563
a(g1266
I1
tp4564
a(g2430
I1
tp4565
a(g2921
I1
tp4566
a(g1620
I3
tp4567
a(g2938
I1
tp4568
a(g385
I1
tp4569
a(g221
I10
tp4570
a(g1131
I1
tp4571
a(g1502
I2
tp4572
a(g1283
I1
tp4573
a(g1330
I2
tp4574
a(g3134
I1
tp4575
a(g1553
I1
tp4576
a(g961
I2
tp4577
a(g138
I10
tp4578
a(g3237
I1
tp4579
a(g1300
I1
tp4580
a(g650
I11
tp4581
a(g11
I25
tp4582
a(g1586
I4
tp4583
a(g368
I3
tp4584
a(g2018
I1
tp4585
a(g2218
I1
tp4586
a(g26
I3
tp4587
a(g76
I4
tp4588
a(g828
I2
tp4589
asg12
(lp4590
(g205
I12
tp4591
a(g403
I1
tp4592
a(g1782
I5
tp4593
a(g386
I1
tp4594
a(g369
I1
tp4595
a(g237
I1
tp4596
a(g77
I8
tp4597
a(g1535
I12
tp4598
a(g27
I6
tp4599
a(g3088
I5
tp4600
a(g109
I6
tp4601
a(g337
I2
tp4602
a(g668
I3
tp4603
a(g303
I2
tp4604
a(g1952
I7
tp4605
a(g979
I6
tp4606
a(g286
I1
tp4607
a(g1869
I5
tp4608
a(g3023
I4
tp4609
a(g2629
I7
tp4610
a(g124
I8
tp4611
a(g222
I6
tp4612
a(g252
I2
tp4613
a(g1410
I8
tp4614
a(g13
I9
tp4615
a(g829
I9
tp4616
a(g2922
I6
tp4617
a(g1082
I9
tp4618
a(g171
I6
tp4619
a(g518
I9
tp4620
a(g422
I6
tp4621
a(g94
I4
tp4622
a(g156
I5
tp4623
a(g139
I9
tp4624
a(g2152
I6
tp4625
asg14
(lp4626
(g79
I47
tp4627
a(g15
I91
tp4628
a(g29
I59
tp4629
asg425
(lp4630
(g2663
I1
tp4631
a(g1413
I1
tp4632
a(g3188
I1
tp4633
a(g575
I1
tp4634
a(g2122
I1
tp4635
a(g1974
I1
tp4636
a(g3026
I1
tp4637
a(g1804
I1
tp4638
a(g918
I1
tp4639
a(g2434
I1
tp4640
a(g1839
I1
tp4641
a(g2174
I1
tp4642
a(g1121
I1
tp4643
a(g1085
I1
tp4644
a(g1050
I1
tp4645
a(g3206
I1
tp4646
a(g2503
I1
tp4647
a(g2812
I1
tp4648
a(g3170
I1
tp4649
a(g2371
I1
tp4650
a(g1170
I1
tp4651
a(g3108
I1
tp4652
a(g557
I1
tp4653
a(g2844
I1
tp4654
a(g2305
I1
tp4655
a(g2632
I1
tp4656
a(g768
I1
tp4657
a(g1103
I1
tp4658
a(g671
I1
tp4659
a(g1256
I1
tp4660
a(g1557
I1
tp4661
a(g2323
I1
tp4662
a(g2745
I1
tp4663
a(g3124
I1
tp4664
a(g2862
I1
tp4665
a(g1643
I1
tp4666
a(g1154
I1
tp4667
a(g2828
I1
tp4668
a(g593
I1
tp4669
a(g426
I1
tp4670
a(g2976
I1
tp4671
a(g866
I1
tp4672
a(g3241
I1
tp4673
a(g2942
I1
tp4674
a(g2958
I1
tp4675
a(g784
I1
tp4676
a(g936
I1
tp4677
astp4678
.
